<?xml version="1.0" encoding="UTF-8"?>
<LIBRARY NAME="libcocos2d.dll" PATH="E:\SteamLibrary\steamapps\common\Chrono Trigger\libcocos2d.dll" DATE="Tue Mar 22 10:55:51 PDT 2022" VERSION="">
    <EXPORT ORDINAL="1" NAME="??0?$DataPool@UParticle3D@cocos2d@@@cocos2d@@QAE@ABV01@@Z" PURGE="4" COMMENT="" />
    <EXPORT ORDINAL="2" NAME="??0?$DataPool@UParticle3D@cocos2d@@@cocos2d@@QAE@XZ" PURGE="0" COMMENT="" />
    <EXPORT ORDINAL="3" NAME="??0?$DynArray@D$0BE@@tinyxml2@@QAE@XZ" PURGE="0" COMMENT="" />
    <EXPORT ORDINAL="4" NAME="??0?$DynArray@PAUBlock@?$MemPoolT@$0CE@@tinyxml2@@$09@tinyxml2@@QAE@XZ" PURGE="0" COMMENT="" />
    <EXPORT ORDINAL="5" NAME="??0?$DynArray@PAUBlock@?$MemPoolT@$0CM@@tinyxml2@@$09@tinyxml2@@QAE@XZ" PURGE="0" COMMENT="" />
    <EXPORT ORDINAL="6" NAME="??0?$DynArray@PAUBlock@?$MemPoolT@$0DA@@tinyxml2@@$09@tinyxml2@@QAE@XZ" PURGE="0" COMMENT="" />
    <EXPORT ORDINAL="7" NAME="??0?$DynArray@PAUBlock@?$MemPoolT@$0DE@@tinyxml2@@$09@tinyxml2@@QAE@XZ" PURGE="0" COMMENT="" />
    <EXPORT ORDINAL="8" NAME="??0?$DynArray@PBD$09@tinyxml2@@QAE@XZ" PURGE="0" COMMENT="" />
    <EXPORT ORDINAL="9" NAME="??0?$MemPoolT@$0CE@@tinyxml2@@QAE@ABV01@@Z" PURGE="4" COMMENT="" />
    <EXPORT ORDINAL="10" NAME="??0?$MemPoolT@$0CE@@tinyxml2@@QAE@XZ" PURGE="0" COMMENT="" />
    <EXPORT ORDINAL="11" NAME="??0?$MemPoolT@$0CM@@tinyxml2@@QAE@ABV01@@Z" PURGE="4" COMMENT="" />
    <EXPORT ORDINAL="12" NAME="??0?$MemPoolT@$0CM@@tinyxml2@@QAE@XZ" PURGE="0" COMMENT="" />
    <EXPORT ORDINAL="13" NAME="??0?$MemPoolT@$0DA@@tinyxml2@@QAE@ABV01@@Z" PURGE="4" COMMENT="" />
    <EXPORT ORDINAL="14" NAME="??0?$MemPoolT@$0DA@@tinyxml2@@QAE@XZ" PURGE="0" COMMENT="" />
    <EXPORT ORDINAL="15" NAME="??0?$MemPoolT@$0DE@@tinyxml2@@QAE@ABV01@@Z" PURGE="4" COMMENT="" />
    <EXPORT ORDINAL="16" NAME="??0?$MemPoolT@$0DE@@tinyxml2@@QAE@XZ" PURGE="0" COMMENT="" />
    <EXPORT ORDINAL="17" NAME="??0AABB@cocos2d@@QAE@ABV01@@Z" PURGE="4" COMMENT="" />
    <EXPORT ORDINAL="18" NAME="??0AABB@cocos2d@@QAE@ABVVec3@1@0@Z" PURGE="8" COMMENT="" />
    <EXPORT ORDINAL="19" NAME="??0AABB@cocos2d@@QAE@XZ" PURGE="0" COMMENT="" />
    <EXPORT ORDINAL="20" NAME="??0AbstractCheckButton@ui@cocos2d@@IAE@XZ" PURGE="0" COMMENT="" />
    <EXPORT ORDINAL="21" NAME="??0AccelAmplitude@cocos2d@@QAE@XZ" PURGE="0" COMMENT="" />
    <EXPORT ORDINAL="22" NAME="??0AccelDeccelAmplitude@cocos2d@@QAE@XZ" PURGE="0" COMMENT="" />
    <EXPORT ORDINAL="23" NAME="??0Acceleration@cocos2d@@QAE@$$QAV01@@Z" PURGE="4" COMMENT="" />
    <EXPORT ORDINAL="24" NAME="??0Acceleration@cocos2d@@QAE@ABV01@@Z" PURGE="4" COMMENT="" />
    <EXPORT ORDINAL="25" NAME="??0Acceleration@cocos2d@@QAE@XZ" PURGE="0" COMMENT="" />
    <EXPORT ORDINAL="26" NAME="??0Action@cocos2d@@QAE@XZ" PURGE="0" COMMENT="" />
    <EXPORT ORDINAL="27" NAME="??0ActionCamera@cocos2d@@QAE@XZ" PURGE="0" COMMENT="" />
    <EXPORT ORDINAL="28" NAME="??0ActionEase@cocos2d@@QAE@XZ" PURGE="0" COMMENT="" />
    <EXPORT ORDINAL="29" NAME="??0ActionFadeFrame@cocostudio@@QAE@ABV01@@Z" PURGE="4" COMMENT="" />
    <EXPORT ORDINAL="30" NAME="??0ActionFadeFrame@cocostudio@@QAE@XZ" PURGE="0" COMMENT="" />
    <EXPORT ORDINAL="31" NAME="??0ActionFloat@cocos2d@@QAE@XZ" PURGE="0" COMMENT="" />
    <EXPORT ORDINAL="32" NAME="??0ActionFrame@cocostudio@@QAE@ABV01@@Z" PURGE="4" COMMENT="" />
    <EXPORT ORDINAL="33" NAME="??0ActionFrame@cocostudio@@QAE@XZ" PURGE="0" COMMENT="" />
    <EXPORT ORDINAL="34" NAME="??0ActionFrameEasing@cocostudio@@QAE@ABV01@@Z" PURGE="4" COMMENT="" />
    <EXPORT ORDINAL="35" NAME="??0ActionFrameEasing@cocostudio@@QAE@XZ" PURGE="0" COMMENT="" />
    <EXPORT ORDINAL="36" NAME="??0ActionInstant@cocos2d@@QAE@XZ" PURGE="0" COMMENT="" />
    <EXPORT ORDINAL="37" NAME="??0ActionInterval@cocos2d@@QAE@XZ" PURGE="0" COMMENT="" />
    <EXPORT ORDINAL="38" NAME="??0ActionManager@cocos2d@@QAE@ABV01@@Z" PURGE="4" COMMENT="" />
    <EXPORT ORDINAL="39" NAME="??0ActionManager@cocos2d@@QAE@XZ" PURGE="0" COMMENT="" />
    <EXPORT ORDINAL="40" NAME="??0ActionManagerEx@cocostudio@@QAE@ABV01@@Z" PURGE="4" COMMENT="" />
    <EXPORT ORDINAL="41" NAME="??0ActionManagerEx@cocostudio@@QAE@XZ" PURGE="0" COMMENT="" />
    <EXPORT ORDINAL="42" NAME="??0ActionMoveFrame@cocostudio@@QAE@ABV01@@Z" PURGE="4" COMMENT="" />
    <EXPORT ORDINAL="43" NAME="??0ActionMoveFrame@cocostudio@@QAE@XZ" PURGE="0" COMMENT="" />
    <EXPORT ORDINAL="44" NAME="??0ActionNode@cocostudio@@QAE@ABV01@@Z" PURGE="4" COMMENT="" />
    <EXPORT ORDINAL="45" NAME="??0ActionNode@cocostudio@@QAE@XZ" PURGE="0" COMMENT="" />
    <EXPORT ORDINAL="46" NAME="??0ActionObject@cocostudio@@QAE@ABV01@@Z" PURGE="4" COMMENT="" />
    <EXPORT ORDINAL="47" NAME="??0ActionObject@cocostudio@@QAE@XZ" PURGE="0" COMMENT="" />
    <EXPORT ORDINAL="48" NAME="??0ActionRotationFrame@cocostudio@@QAE@ABV01@@Z" PURGE="4" COMMENT="" />
    <EXPORT ORDINAL="49" NAME="??0ActionRotationFrame@cocostudio@@QAE@XZ" PURGE="0" COMMENT="" />
    <EXPORT ORDINAL="50" NAME="??0ActionScaleFrame@cocostudio@@QAE@ABV01@@Z" PURGE="4" COMMENT="" />
    <EXPORT ORDINAL="51" NAME="??0ActionScaleFrame@cocostudio@@QAE@XZ" PURGE="0" COMMENT="" />
    <EXPORT ORDINAL="52" NAME="??0ActionTimeline@timeline@cocostudio@@QAE@XZ" PURGE="0" COMMENT="" />
    <EXPORT ORDINAL="53" NAME="??0ActionTimelineCache@timeline@cocostudio@@QAE@$$QAV012@@Z" PURGE="4" COMMENT="" />
    <EXPORT ORDINAL="54" NAME="??0ActionTimelineCache@timeline@cocostudio@@QAE@ABV012@@Z" PURGE="4" COMMENT="" />
    <EXPORT ORDINAL="55" NAME="??0ActionTimelineCache@timeline@cocostudio@@QAE@XZ" PURGE="0" COMMENT="" />
    <EXPORT ORDINAL="56" NAME="??0ActionTimelineData@timeline@cocostudio@@QAE@$$QAV012@@Z" PURGE="4" COMMENT="" />
    <EXPORT ORDINAL="57" NAME="??0ActionTimelineData@timeline@cocostudio@@QAE@ABV012@@Z" PURGE="4" COMMENT="" />
    <EXPORT ORDINAL="58" NAME="??0ActionTimelineData@timeline@cocostudio@@QAE@XZ" PURGE="0" COMMENT="" />
    <EXPORT ORDINAL="59" NAME="??0ActionTimelineNode@timeline@cocostudio@@QAE@XZ" PURGE="0" COMMENT="" />
    <EXPORT ORDINAL="60" NAME="??0ActionTintFrame@cocostudio@@QAE@ABV01@@Z" PURGE="4" COMMENT="" />
    <EXPORT ORDINAL="61" NAME="??0ActionTintFrame@cocostudio@@QAE@XZ" PURGE="0" COMMENT="" />
    <EXPORT ORDINAL="62" NAME="??0ActionTween@cocos2d@@QAE@XZ" PURGE="0" COMMENT="" />
    <EXPORT ORDINAL="63" NAME="??0ActionTweenDelegate@cocos2d@@QAE@ABV01@@Z" PURGE="4" COMMENT="" />
    <EXPORT ORDINAL="64" NAME="??0ActionTweenDelegate@cocos2d@@QAE@XZ" PURGE="0" COMMENT="" />
    <EXPORT ORDINAL="65" NAME="??0AlphaFrame@timeline@cocostudio@@QAE@$$QAV012@@Z" PURGE="4" COMMENT="" />
    <EXPORT ORDINAL="66" NAME="??0AlphaFrame@timeline@cocostudio@@QAE@ABV012@@Z" PURGE="4" COMMENT="" />
    <EXPORT ORDINAL="67" NAME="??0AlphaFrame@timeline@cocostudio@@QAE@XZ" PURGE="0" COMMENT="" />
    <EXPORT ORDINAL="68" NAME="??0AmbientLight@cocos2d@@QAE@XZ" PURGE="0" COMMENT="" />
    <EXPORT ORDINAL="69" NAME="??0AnchorPointFrame@timeline@cocostudio@@QAE@$$QAV012@@Z" PURGE="4" COMMENT="" />
    <EXPORT ORDINAL="70" NAME="??0AnchorPointFrame@timeline@cocostudio@@QAE@ABV012@@Z" PURGE="4" COMMENT="" />
    <EXPORT ORDINAL="71" NAME="??0AnchorPointFrame@timeline@cocostudio@@QAE@XZ" PURGE="0" COMMENT="" />
    <EXPORT ORDINAL="72" NAME="??0Animate3D@cocos2d@@QAE@XZ" PURGE="0" COMMENT="" />
    <EXPORT ORDINAL="73" NAME="??0Animate@cocos2d@@QAE@XZ" PURGE="0" COMMENT="" />
    <EXPORT ORDINAL="74" NAME="??0Animation3D@cocos2d@@QAE@ABV01@@Z" PURGE="4" COMMENT="" />
    <EXPORT ORDINAL="75" NAME="??0Animation3D@cocos2d@@QAE@XZ" PURGE="0" COMMENT="" />
    <EXPORT ORDINAL="76" NAME="??0Animation@cocos2d@@QAE@XZ" PURGE="0" COMMENT="" />
    <EXPORT ORDINAL="77" NAME="??0AnimationCache@cocos2d@@QAE@ABV01@@Z" PURGE="4" COMMENT="" />
    <EXPORT ORDINAL="78" NAME="??0AnimationCache@cocos2d@@QAE@XZ" PURGE="0" COMMENT="" />
    <EXPORT ORDINAL="79" NAME="??0AnimationData@cocostudio@@QAE@ABV01@@Z" PURGE="4" COMMENT="" />
    <EXPORT ORDINAL="80" NAME="??0AnimationData@cocostudio@@QAE@XZ" PURGE="0" COMMENT="" />
    <EXPORT ORDINAL="81" NAME="??0AnimationFrame@cocos2d@@QAE@XZ" PURGE="0" COMMENT="" />
    <EXPORT ORDINAL="82" NAME="??0AnimationFrameData@cocos2d@@QAE@$$QAU01@@Z" PURGE="4" COMMENT="" />
    <EXPORT ORDINAL="83" NAME="??0AnimationFrameData@cocos2d@@QAE@ABU01@@Z" PURGE="4" COMMENT="" />
    <EXPORT ORDINAL="84" NAME="??0AnimationFrameData@cocos2d@@QAE@XZ" PURGE="0" COMMENT="" />
    <EXPORT ORDINAL="85" NAME="??0Application@cocos2d@@QAE@ABV01@@Z" PURGE="4" COMMENT="" />
    <EXPORT ORDINAL="86" NAME="??0Application@cocos2d@@QAE@XZ" PURGE="0" COMMENT="" />
    <EXPORT ORDINAL="87" NAME="??0ApplicationProtocol@cocos2d@@QAE@ABV01@@Z" PURGE="4" COMMENT="" />
    <EXPORT ORDINAL="88" NAME="??0ApplicationProtocol@cocos2d@@QAE@XZ" PURGE="0" COMMENT="" />
    <EXPORT ORDINAL="89" NAME="??0Armature@cocostudio@@QAE@XZ" PURGE="0" COMMENT="" />
    <EXPORT ORDINAL="90" NAME="??0ArmatureAnimation@cocostudio@@QAE@ABV01@@Z" PURGE="4" COMMENT="" />
    <EXPORT ORDINAL="91" NAME="??0ArmatureAnimation@cocostudio@@QAE@XZ" PURGE="0" COMMENT="" />
    <EXPORT ORDINAL="92" NAME="??0ArmatureData@cocostudio@@QAE@ABV01@@Z" PURGE="4" COMMENT="" />
    <EXPORT ORDINAL="93" NAME="??0ArmatureData@cocostudio@@QAE@XZ" PURGE="0" COMMENT="" />
    <EXPORT ORDINAL="94" NAME="??0ArmatureDataManager@cocostudio@@AAE@XZ" PURGE="0" COMMENT="" />
    <EXPORT ORDINAL="95" NAME="??0ArmatureDataManager@cocostudio@@QAE@ABV01@@Z" PURGE="4" COMMENT="" />
    <EXPORT ORDINAL="96" NAME="??0ArmatureDisplayData@cocostudio@@QAE@ABV01@@Z" PURGE="4" COMMENT="" />
    <EXPORT ORDINAL="97" NAME="??0ArmatureDisplayData@cocostudio@@QAE@XZ" PURGE="0" COMMENT="" />
    <EXPORT ORDINAL="98" NAME="??0ArmatureMovementDispatcher@cocostudio@@QAE@ABV01@@Z" PURGE="4" COMMENT="" />
    <EXPORT ORDINAL="99" NAME="??0ArmatureMovementDispatcher@cocostudio@@QAE@XZ" PURGE="0" COMMENT="" />
    <EXPORT ORDINAL="100" NAME="??0AssetsManager@extension@cocos2d@@QAE@PBD00@Z" PURGE="12" COMMENT="" />
    <EXPORT ORDINAL="101" NAME="??0AssetsManagerEx@extension@cocos2d@@QAE@ABV012@@Z" PURGE="4" COMMENT="" />
    <EXPORT ORDINAL="102" NAME="??0AssetsManagerEx@extension@cocos2d@@QAE@ABV?$basic_string@DU?$char_traits@D@std@@V?$allocator@D@2@@std@@0@Z" PURGE="8" COMMENT="" />
    <EXPORT ORDINAL="103" NAME="??0AsyncTaskPool@cocos2d@@QAE@XZ" PURGE="0" COMMENT="" />
    <EXPORT ORDINAL="104" NAME="??0AtlasNode@cocos2d@@QAE@XZ" PURGE="0" COMMENT="" />
    <EXPORT ORDINAL="105" NAME="??0AttachNode@cocos2d@@QAE@XZ" PURGE="0" COMMENT="" />
    <EXPORT ORDINAL="106" NAME="??0AudioCache@experimental@cocos2d@@QAE@XZ" PURGE="0" COMMENT="" />
    <EXPORT ORDINAL="107" NAME="??0AudioEngineImpl@experimental@cocos2d@@QAE@XZ" PURGE="0" COMMENT="" />
    <EXPORT ORDINAL="108" NAME="??0AudioPlayer@experimental@cocos2d@@QAE@XZ" PURGE="0" COMMENT="" />
    <EXPORT ORDINAL="109" NAME="??0AudioProfile@experimental@cocos2d@@QAE@$$QAV012@@Z" PURGE="4" COMMENT="" />
    <EXPORT ORDINAL="110" NAME="??0AudioProfile@experimental@cocos2d@@QAE@ABV012@@Z" PURGE="4" COMMENT="" />
    <EXPORT ORDINAL="111" NAME="??0AudioProfile@experimental@cocos2d@@QAE@XZ" PURGE="0" COMMENT="" />
    <EXPORT ORDINAL="112" NAME="??0AutoBindingResolver@GLProgramState@cocos2d@@IAE@XZ" PURGE="0" COMMENT="" />
    <EXPORT ORDINAL="113" NAME="??0AutoBindingResolver@GLProgramState@cocos2d@@QAE@ABV012@@Z" PURGE="4" COMMENT="" />
    <EXPORT ORDINAL="114" NAME="??0AutoPolygon@cocos2d@@QAE@ABV01@@Z" PURGE="4" COMMENT="" />
    <EXPORT ORDINAL="115" NAME="??0AutoPolygon@cocos2d@@QAE@ABV?$basic_string@DU?$char_traits@D@std@@V?$allocator@D@2@@std@@@Z" PURGE="4" COMMENT="" />
    <EXPORT ORDINAL="116" NAME="??0AutoreleasePool@cocos2d@@QAE@ABV01@@Z" PURGE="4" COMMENT="" />
    <EXPORT ORDINAL="117" NAME="??0AutoreleasePool@cocos2d@@QAE@ABV?$basic_string@DU?$char_traits@D@std@@V?$allocator@D@2@@std@@@Z" PURGE="4" COMMENT="" />
    <EXPORT ORDINAL="118" NAME="??0AutoreleasePool@cocos2d@@QAE@XZ" PURGE="0" COMMENT="" />
    <EXPORT ORDINAL="119" NAME="??0BMFontConfiguration@cocos2d@@QAE@ABV01@@Z" PURGE="4" COMMENT="" />
    <EXPORT ORDINAL="120" NAME="??0BMFontConfiguration@cocos2d@@QAE@XZ" PURGE="0" COMMENT="" />
    <EXPORT ORDINAL="121" NAME="??0BaseData@cocostudio@@QAE@ABV01@@Z" PURGE="4" COMMENT="" />
    <EXPORT ORDINAL="122" NAME="??0BaseData@cocostudio@@QAE@XZ" PURGE="0" COMMENT="" />
    <EXPORT ORDINAL="123" NAME="??0BaseLight@cocos2d@@QAE@XZ" PURGE="0" COMMENT="" />
    <EXPORT ORDINAL="124" NAME="??0BaseTriggerAction@cocostudio@@IAE@XZ" PURGE="0" COMMENT="" />
    <EXPORT ORDINAL="125" NAME="??0BaseTriggerAction@cocostudio@@QAE@ABV01@@Z" PURGE="4" COMMENT="" />
    <EXPORT ORDINAL="126" NAME="??0BaseTriggerCondition@cocostudio@@IAE@XZ" PURGE="0" COMMENT="" />
    <EXPORT ORDINAL="127" NAME="??0BaseTriggerCondition@cocostudio@@QAE@ABV01@@Z" PURGE="4" COMMENT="" />
    <EXPORT ORDINAL="128" NAME="??0BatchCommand@cocos2d@@QAE@ABV01@@Z" PURGE="4" COMMENT="" />
    <EXPORT ORDINAL="129" NAME="??0BatchCommand@cocos2d@@QAE@XZ" PURGE="0" COMMENT="" />
    <EXPORT ORDINAL="130" NAME="??0BatchNode@cocostudio@@QAE@XZ" PURGE="0" COMMENT="" />
    <EXPORT ORDINAL="131" NAME="??0BezierBy@cocos2d@@QAE@XZ" PURGE="0" COMMENT="" />
    <EXPORT ORDINAL="132" NAME="??0BezierTo@cocos2d@@QAE@XZ" PURGE="0" COMMENT="" />
    <EXPORT ORDINAL="133" NAME="??0BillBoard@cocos2d@@QAE@XZ" PURGE="0" COMMENT="" />
    <EXPORT ORDINAL="134" NAME="??0BinLocalizationManager@cocostudio@@IAE@XZ" PURGE="0" COMMENT="" />
    <EXPORT ORDINAL="135" NAME="??0BinLocalizationManager@cocostudio@@QAE@ABV01@@Z" PURGE="4" COMMENT="" />
    <EXPORT ORDINAL="136" NAME="??0BlendFuncFrame@timeline@cocostudio@@QAE@$$QAV012@@Z" PURGE="4" COMMENT="" />
    <EXPORT ORDINAL="137" NAME="??0BlendFuncFrame@timeline@cocostudio@@QAE@ABV012@@Z" PURGE="4" COMMENT="" />
    <EXPORT ORDINAL="138" NAME="??0BlendFuncFrame@timeline@cocostudio@@QAE@XZ" PURGE="0" COMMENT="" />
    <EXPORT ORDINAL="139" NAME="??0BlendProtocol@cocos2d@@QAE@ABV01@@Z" PURGE="4" COMMENT="" />
    <EXPORT ORDINAL="140" NAME="??0BlendProtocol@cocos2d@@QAE@XZ" PURGE="0" COMMENT="" />
    <EXPORT ORDINAL="141" NAME="??0Blink@cocos2d@@QAE@XZ" PURGE="0" COMMENT="" />
    <EXPORT ORDINAL="142" NAME="??0Bone3D@cocos2d@@IAE@ABV?$basic_string@DU?$char_traits@D@std@@V?$allocator@D@2@@std@@@Z" PURGE="4" COMMENT="" />
    <EXPORT ORDINAL="143" NAME="??0Bone3D@cocos2d@@QAE@ABV01@@Z" PURGE="4" COMMENT="" />
    <EXPORT ORDINAL="144" NAME="??0Bone@cocostudio@@QAE@XZ" PURGE="0" COMMENT="" />
    <EXPORT ORDINAL="145" NAME="??0BoneData@cocostudio@@QAE@ABV01@@Z" PURGE="4" COMMENT="" />
    <EXPORT ORDINAL="146" NAME="??0BoneData@cocostudio@@QAE@XZ" PURGE="0" COMMENT="" />
    <EXPORT ORDINAL="147" NAME="??0BoneNode@timeline@cocostudio@@QAE@XZ" PURGE="0" COMMENT="" />
    <EXPORT ORDINAL="148" NAME="??0Bundle3D@cocos2d@@QAE@XZ" PURGE="0" COMMENT="" />
    <EXPORT ORDINAL="149" NAME="??0Button@ui@cocos2d@@QAE@XZ" PURGE="0" COMMENT="" />
    <EXPORT ORDINAL="150" NAME="??0ButtonReader@cocostudio@@QAE@ABV01@@Z" PURGE="4" COMMENT="" />
    <EXPORT ORDINAL="151" NAME="??0ButtonReader@cocostudio@@QAE@XZ" PURGE="0" COMMENT="" />
    <EXPORT ORDINAL="152" NAME="??0CCBAnimationManager@cocosbuilder@@QAE@ABV01@@Z" PURGE="4" COMMENT="" />
    <EXPORT ORDINAL="153" NAME="??0CCBAnimationManager@cocosbuilder@@QAE@XZ" PURGE="0" COMMENT="" />
    <EXPORT ORDINAL="154" NAME="??0CCBAnimationManagerDelegate@cocosbuilder@@QAE@ABV01@@Z" PURGE="4" COMMENT="" />
    <EXPORT ORDINAL="155" NAME="??0CCBAnimationManagerDelegate@cocosbuilder@@QAE@XZ" PURGE="0" COMMENT="" />
    <EXPORT ORDINAL="156" NAME="??0CCBEaseInstant@cocosbuilder@@QAE@XZ" PURGE="0" COMMENT="" />
    <EXPORT ORDINAL="157" NAME="??0CCBFileLoader@cocosbuilder@@QAE@ABV01@@Z" PURGE="4" COMMENT="" />
    <EXPORT ORDINAL="158" NAME="??0CCBFileLoader@cocosbuilder@@QAE@XZ" PURGE="0" COMMENT="" />
    <EXPORT ORDINAL="159" NAME="??0CCBKeyframe@cocosbuilder@@QAE@ABV01@@Z" PURGE="4" COMMENT="" />
    <EXPORT ORDINAL="160" NAME="??0CCBKeyframe@cocosbuilder@@QAE@XZ" PURGE="0" COMMENT="" />
    <EXPORT ORDINAL="161" NAME="??0CCBMemberVariableAssigner@cocosbuilder@@QAE@ABV01@@Z" PURGE="4" COMMENT="" />
    <EXPORT ORDINAL="162" NAME="??0CCBMemberVariableAssigner@cocosbuilder@@QAE@XZ" PURGE="0" COMMENT="" />
    <EXPORT ORDINAL="163" NAME="??0CCBReader@cocosbuilder@@QAE@ABV01@@Z" PURGE="4" COMMENT="" />
    <EXPORT ORDINAL="164" NAME="??0CCBReader@cocosbuilder@@QAE@PAV01@@Z" PURGE="4" COMMENT="" />
    <EXPORT ORDINAL="165" NAME="??0CCBReader@cocosbuilder@@QAE@PAVNodeLoaderLibrary@1@PAVCCBMemberVariableAssigner@1@PAVCCBSelectorResolver@1@PAVNodeLoaderListener@1@@Z" PURGE="16" COMMENT="" />
    <EXPORT ORDINAL="166" NAME="??0CCBReader@cocosbuilder@@QAE@XZ" PURGE="0" COMMENT="" />
    <EXPORT ORDINAL="167" NAME="??0CCBRotateTo@cocosbuilder@@QAE@XZ" PURGE="0" COMMENT="" />
    <EXPORT ORDINAL="168" NAME="??0CCBRotateXTo@cocosbuilder@@QAE@XZ" PURGE="0" COMMENT="" />
    <EXPORT ORDINAL="169" NAME="??0CCBRotateYTo@cocosbuilder@@QAE@XZ" PURGE="0" COMMENT="" />
    <EXPORT ORDINAL="170" NAME="??0CCBScriptOwnerProtocol@cocosbuilder@@QAE@ABV01@@Z" PURGE="4" COMMENT="" />
    <EXPORT ORDINAL="171" NAME="??0CCBScriptOwnerProtocol@cocosbuilder@@QAE@XZ" PURGE="0" COMMENT="" />
    <EXPORT ORDINAL="172" NAME="??0CCBSelectorResolver@cocosbuilder@@QAE@ABV01@@Z" PURGE="4" COMMENT="" />
    <EXPORT ORDINAL="173" NAME="??0CCBSelectorResolver@cocosbuilder@@QAE@XZ" PURGE="0" COMMENT="" />
    <EXPORT ORDINAL="174" NAME="??0CCBSequence@cocosbuilder@@QAE@ABV01@@Z" PURGE="4" COMMENT="" />
    <EXPORT ORDINAL="175" NAME="??0CCBSequence@cocosbuilder@@QAE@XZ" PURGE="0" COMMENT="" />
    <EXPORT ORDINAL="176" NAME="??0CCBSequenceProperty@cocosbuilder@@QAE@ABV01@@Z" PURGE="4" COMMENT="" />
    <EXPORT ORDINAL="177" NAME="??0CCBSequenceProperty@cocosbuilder@@QAE@XZ" PURGE="0" COMMENT="" />
    <EXPORT ORDINAL="178" NAME="??0CCBSetSpriteFrame@cocosbuilder@@QAE@XZ" PURGE="0" COMMENT="" />
    <EXPORT ORDINAL="179" NAME="??0CCBSoundEffect@cocosbuilder@@QAE@XZ" PURGE="0" COMMENT="" />
    <EXPORT ORDINAL="180" NAME="??0CCPUBoxEmitter@cocos2d@@QAE@ABV01@@Z" PURGE="4" COMMENT="" />
    <EXPORT ORDINAL="181" NAME="??0CCPUBoxEmitter@cocos2d@@QAE@XZ" PURGE="0" COMMENT="" />
    <EXPORT ORDINAL="182" NAME="??0CSLoader@cocos2d@@QAE@$$QAV01@@Z" PURGE="4" COMMENT="" />
    <EXPORT ORDINAL="183" NAME="??0CSLoader@cocos2d@@QAE@ABV01@@Z" PURGE="4" COMMENT="" />
    <EXPORT ORDINAL="184" NAME="??0CSLoader@cocos2d@@QAE@XZ" PURGE="0" COMMENT="" />
    <EXPORT ORDINAL="185" NAME="??0CallFunc@cocos2d@@QAE@XZ" PURGE="0" COMMENT="" />
    <EXPORT ORDINAL="186" NAME="??0CallFuncN@cocos2d@@QAE@XZ" PURGE="0" COMMENT="" />
    <EXPORT ORDINAL="187" NAME="??0Camera@cocos2d@@QAE@XZ" PURGE="0" COMMENT="" />
    <EXPORT ORDINAL="188" NAME="??0CameraBackgroundBrush@cocos2d@@QAE@ABV01@@Z" PURGE="4" COMMENT="" />
    <EXPORT ORDINAL="189" NAME="??0CameraBackgroundBrush@cocos2d@@QAE@XZ" PURGE="0" COMMENT="" />
    <EXPORT ORDINAL="190" NAME="??0CameraBackgroundColorBrush@cocos2d@@QAE@ABV01@@Z" PURGE="4" COMMENT="" />
    <EXPORT ORDINAL="191" NAME="??0CameraBackgroundColorBrush@cocos2d@@QAE@XZ" PURGE="0" COMMENT="" />
    <EXPORT ORDINAL="192" NAME="??0CameraBackgroundDepthBrush@cocos2d@@QAE@ABV01@@Z" PURGE="4" COMMENT="" />
    <EXPORT ORDINAL="193" NAME="??0CameraBackgroundDepthBrush@cocos2d@@QAE@XZ" PURGE="0" COMMENT="" />
    <EXPORT ORDINAL="194" NAME="??0CameraBackgroundSkyBoxBrush@cocos2d@@QAE@ABV01@@Z" PURGE="4" COMMENT="" />
    <EXPORT ORDINAL="195" NAME="??0CameraBackgroundSkyBoxBrush@cocos2d@@QAE@XZ" PURGE="0" COMMENT="" />
    <EXPORT ORDINAL="196" NAME="??0CardinalSplineBy@cocos2d@@QAE@XZ" PURGE="0" COMMENT="" />
    <EXPORT ORDINAL="197" NAME="??0CardinalSplineTo@cocos2d@@QAE@XZ" PURGE="0" COMMENT="" />
    <EXPORT ORDINAL="198" NAME="??0CatmullRomBy@cocos2d@@QAE@XZ" PURGE="0" COMMENT="" />
    <EXPORT ORDINAL="199" NAME="??0CatmullRomTo@cocos2d@@QAE@XZ" PURGE="0" COMMENT="" />
    <EXPORT ORDINAL="200" NAME="??0CheckBox@ui@cocos2d@@QAE@XZ" PURGE="0" COMMENT="" />
    <EXPORT ORDINAL="201" NAME="??0CheckBoxReader@cocostudio@@QAE@ABV01@@Z" PURGE="4" COMMENT="" />
    <EXPORT ORDINAL="202" NAME="??0CheckBoxReader@cocostudio@@QAE@XZ" PURGE="0" COMMENT="" />
    <EXPORT ORDINAL="203" NAME="??0ClippingNode@cocos2d@@QAE@XZ" PURGE="0" COMMENT="" />
    <EXPORT ORDINAL="204" NAME="??0ClippingRectangleNode@cocos2d@@IAE@XZ" PURGE="0" COMMENT="" />
    <EXPORT ORDINAL="205" NAME="??0Clonable@cocos2d@@QAE@ABV01@@Z" PURGE="4" COMMENT="" />
    <EXPORT ORDINAL="206" NAME="??0Clonable@cocos2d@@QAE@XZ" PURGE="0" COMMENT="" />
    <EXPORT ORDINAL="207" NAME="??0CocoLoader@cocostudio@@QAE@XZ" PURGE="0" COMMENT="" />
    <EXPORT ORDINAL="208" NAME="??0ColliderBody@cocostudio@@QAE@ABV01@@Z" PURGE="4" COMMENT="" />
    <EXPORT ORDINAL="209" NAME="??0ColliderBody@cocostudio@@QAE@PAVContourData@1@@Z" PURGE="4" COMMENT="" />
    <EXPORT ORDINAL="210" NAME="??0ColliderDetector@cocostudio@@QAE@ABV01@@Z" PURGE="4" COMMENT="" />
    <EXPORT ORDINAL="211" NAME="??0ColliderDetector@cocostudio@@QAE@XZ" PURGE="0" COMMENT="" />
    <EXPORT ORDINAL="212" NAME="??0ColliderFilter@cocostudio@@QAE@ABV01@@Z" PURGE="4" COMMENT="" />
    <EXPORT ORDINAL="213" NAME="??0ColliderFilter@cocostudio@@QAE@XZ" PURGE="0" COMMENT="" />
    <EXPORT ORDINAL="214" NAME="??0Color3B@cocos2d@@QAE@ABUColor4B@1@@Z" PURGE="4" COMMENT="" />
    <EXPORT ORDINAL="215" NAME="??0Color3B@cocos2d@@QAE@ABUColor4F@1@@Z" PURGE="4" COMMENT="" />
    <EXPORT ORDINAL="216" NAME="??0Color3B@cocos2d@@QAE@EEE@Z" PURGE="12" COMMENT="" />
    <EXPORT ORDINAL="217" NAME="??0Color3B@cocos2d@@QAE@XZ" PURGE="0" COMMENT="" />
    <EXPORT ORDINAL="218" NAME="??0Color3bObject@extension@cocos2d@@QAE@$$QAV012@@Z" PURGE="4" COMMENT="" />
    <EXPORT ORDINAL="219" NAME="??0Color3bObject@extension@cocos2d@@QAE@ABV012@@Z" PURGE="4" COMMENT="" />
    <EXPORT ORDINAL="220" NAME="??0Color3bObject@extension@cocos2d@@QAE@UColor3B@2@@Z" PURGE="4" COMMENT="" />
    <EXPORT ORDINAL="221" NAME="??0Color4B@cocos2d@@QAE@ABUColor3B@1@E@Z" PURGE="8" COMMENT="" />
    <EXPORT ORDINAL="222" NAME="??0Color4B@cocos2d@@QAE@ABUColor4F@1@@Z" PURGE="4" COMMENT="" />
    <EXPORT ORDINAL="223" NAME="??0Color4B@cocos2d@@QAE@EEEE@Z" PURGE="16" COMMENT="" />
    <EXPORT ORDINAL="224" NAME="??0Color4B@cocos2d@@QAE@XZ" PURGE="0" COMMENT="" />
    <EXPORT ORDINAL="225" NAME="??0Color4F@cocos2d@@QAE@ABUColor3B@1@M@Z" PURGE="8" COMMENT="" />
    <EXPORT ORDINAL="226" NAME="??0Color4F@cocos2d@@QAE@ABUColor4B@1@@Z" PURGE="4" COMMENT="" />
    <EXPORT ORDINAL="227" NAME="??0Color4F@cocos2d@@QAE@MMMM@Z" PURGE="16" COMMENT="" />
    <EXPORT ORDINAL="228" NAME="??0Color4F@cocos2d@@QAE@XZ" PURGE="0" COMMENT="" />
    <EXPORT ORDINAL="229" NAME="??0ColorFrame@timeline@cocostudio@@QAE@$$QAV012@@Z" PURGE="4" COMMENT="" />
    <EXPORT ORDINAL="230" NAME="??0ColorFrame@timeline@cocostudio@@QAE@ABV012@@Z" PURGE="4" COMMENT="" />
    <EXPORT ORDINAL="231" NAME="??0ColorFrame@timeline@cocostudio@@QAE@XZ" PURGE="0" COMMENT="" />
    <EXPORT ORDINAL="232" NAME="??0ComAttribute@cocostudio@@QAE@XZ" PURGE="0" COMMENT="" />
    <EXPORT ORDINAL="233" NAME="??0ComAudio@cocostudio@@QAE@ABV01@@Z" PURGE="4" COMMENT="" />
    <EXPORT ORDINAL="234" NAME="??0ComAudio@cocostudio@@QAE@XZ" PURGE="0" COMMENT="" />
    <EXPORT ORDINAL="235" NAME="??0ComAudioReader@cocostudio@@QAE@ABV01@@Z" PURGE="4" COMMENT="" />
    <EXPORT ORDINAL="236" NAME="??0ComAudioReader@cocostudio@@QAE@XZ" PURGE="0" COMMENT="" />
    <EXPORT ORDINAL="237" NAME="??0ComController@cocostudio@@QAE@ABV01@@Z" PURGE="4" COMMENT="" />
    <EXPORT ORDINAL="238" NAME="??0ComController@cocostudio@@QAE@XZ" PURGE="0" COMMENT="" />
    <EXPORT ORDINAL="239" NAME="??0ComExtensionData@cocostudio@@QAE@ABV01@@Z" PURGE="4" COMMENT="" />
    <EXPORT ORDINAL="240" NAME="??0ComExtensionData@cocostudio@@QAE@XZ" PURGE="0" COMMENT="" />
    <EXPORT ORDINAL="241" NAME="??0ComRender@cocostudio@@QAE@ABV01@@Z" PURGE="4" COMMENT="" />
    <EXPORT ORDINAL="242" NAME="??0ComRender@cocostudio@@QAE@PAVNode@cocos2d@@PBD@Z" PURGE="8" COMMENT="" />
    <EXPORT ORDINAL="243" NAME="??0ComRender@cocostudio@@QAE@XZ" PURGE="0" COMMENT="" />
    <EXPORT ORDINAL="244" NAME="??0Component@cocos2d@@QAE@ABV01@@Z" PURGE="4" COMMENT="" />
    <EXPORT ORDINAL="245" NAME="??0Component@cocos2d@@QAE@XZ" PURGE="0" COMMENT="" />
    <EXPORT ORDINAL="246" NAME="??0ComponentContainer@cocos2d@@IAE@PAVNode@1@@Z" PURGE="4" COMMENT="" />
    <EXPORT ORDINAL="247" NAME="??0ComponentContainer@cocos2d@@QAE@ABV01@@Z" PURGE="4" COMMENT="" />
    <EXPORT ORDINAL="248" NAME="??0Configuration@cocos2d@@AAE@XZ" PURGE="0" COMMENT="" />
    <EXPORT ORDINAL="249" NAME="??0Configuration@cocos2d@@QAE@ABV01@@Z" PURGE="4" COMMENT="" />
    <EXPORT ORDINAL="250" NAME="??0Console@cocos2d@@QAE@XZ" PURGE="0" COMMENT="" />
    <EXPORT ORDINAL="251" NAME="??0ContourData@cocostudio@@QAE@ABV01@@Z" PURGE="4" COMMENT="" />
    <EXPORT ORDINAL="252" NAME="??0ContourData@cocostudio@@QAE@XZ" PURGE="0" COMMENT="" />
    <EXPORT ORDINAL="253" NAME="??0Control@extension@cocos2d@@QAE@XZ" PURGE="0" COMMENT="" />
    <EXPORT ORDINAL="254" NAME="??0ControlButton@extension@cocos2d@@QAE@XZ" PURGE="0" COMMENT="" />
    <EXPORT ORDINAL="255" NAME="??0ControlButtonLoader@cocosbuilder@@QAE@ABV01@@Z" PURGE="4" COMMENT="" />
    <EXPORT ORDINAL="256" NAME="??0ControlButtonLoader@cocosbuilder@@QAE@XZ" PURGE="0" COMMENT="" />
    <EXPORT ORDINAL="257" NAME="??0ControlColourPicker@extension@cocos2d@@QAE@XZ" PURGE="0" COMMENT="" />
    <EXPORT ORDINAL="258" NAME="??0ControlHuePicker@extension@cocos2d@@QAE@XZ" PURGE="0" COMMENT="" />
    <EXPORT ORDINAL="259" NAME="??0ControlLoader@cocosbuilder@@QAE@ABV01@@Z" PURGE="4" COMMENT="" />
    <EXPORT ORDINAL="260" NAME="??0ControlLoader@cocosbuilder@@QAE@XZ" PURGE="0" COMMENT="" />
    <EXPORT ORDINAL="261" NAME="??0ControlPotentiometer@extension@cocos2d@@QAE@XZ" PURGE="0" COMMENT="" />
    <EXPORT ORDINAL="262" NAME="??0ControlSaturationBrightnessPicker@extension@cocos2d@@QAE@XZ" PURGE="0" COMMENT="" />
    <EXPORT ORDINAL="263" NAME="??0ControlSlider@extension@cocos2d@@QAE@XZ" PURGE="0" COMMENT="" />
    <EXPORT ORDINAL="264" NAME="??0ControlStepper@extension@cocos2d@@QAE@XZ" PURGE="0" COMMENT="" />
    <EXPORT ORDINAL="265" NAME="??0ControlSwitch@extension@cocos2d@@QAE@XZ" PURGE="0" COMMENT="" />
    <EXPORT ORDINAL="266" NAME="??0Controller@cocos2d@@AAE@XZ" PURGE="0" COMMENT="" />
    <EXPORT ORDINAL="267" NAME="??0Controller@cocos2d@@QAE@ABV01@@Z" PURGE="4" COMMENT="" />
    <EXPORT ORDINAL="268" NAME="??0CustomCommand@cocos2d@@QAE@ABV01@@Z" PURGE="4" COMMENT="" />
    <EXPORT ORDINAL="269" NAME="??0CustomCommand@cocos2d@@QAE@XZ" PURGE="0" COMMENT="" />
    <EXPORT ORDINAL="270" NAME="??0Data@cocos2d@@QAE@$$QAV01@@Z" PURGE="4" COMMENT="" />
    <EXPORT ORDINAL="271" NAME="??0Data@cocos2d@@QAE@ABV01@@Z" PURGE="4" COMMENT="" />
    <EXPORT ORDINAL="272" NAME="??0Data@cocos2d@@QAE@XZ" PURGE="0" COMMENT="" />
    <EXPORT ORDINAL="273" NAME="??0DataReaderHelper@cocostudio@@QAE@XZ" PURGE="0" COMMENT="" />
    <EXPORT ORDINAL="274" NAME="??0DataVisitor@cocos2d@@QAE@ABV01@@Z" PURGE="4" COMMENT="" />
    <EXPORT ORDINAL="275" NAME="??0DataVisitor@cocos2d@@QAE@XZ" PURGE="0" COMMENT="" />
    <EXPORT ORDINAL="276" NAME="??0DeccelAmplitude@cocos2d@@QAE@XZ" PURGE="0" COMMENT="" />
    <EXPORT ORDINAL="277" NAME="??0DecorativeDisplay@cocostudio@@QAE@ABV01@@Z" PURGE="4" COMMENT="" />
    <EXPORT ORDINAL="278" NAME="??0DecorativeDisplay@cocostudio@@QAE@XZ" PURGE="0" COMMENT="" />
    <EXPORT ORDINAL="279" NAME="??0DelayTime@cocos2d@@QAE@XZ" PURGE="0" COMMENT="" />
    <EXPORT ORDINAL="280" NAME="??0DetailMap@Terrain@cocos2d@@QAE@$$QAU012@@Z" PURGE="4" COMMENT="" />
    <EXPORT ORDINAL="281" NAME="??0DetailMap@Terrain@cocos2d@@QAE@ABU012@@Z" PURGE="4" COMMENT="" />
    <EXPORT ORDINAL="282" NAME="??0DetailMap@Terrain@cocos2d@@QAE@ABV?$basic_string@DU?$char_traits@D@std@@V?$allocator@D@2@@std@@M@Z" PURGE="8" COMMENT="" />
    <EXPORT ORDINAL="283" NAME="??0DetailMap@Terrain@cocos2d@@QAE@XZ" PURGE="0" COMMENT="" />
    <EXPORT ORDINAL="284" NAME="??0DictElement@cocos2d@@AAE@HPAVRef@1@@Z" PURGE="8" COMMENT="" />
    <EXPORT ORDINAL="285" NAME="??0DictElement@cocos2d@@AAE@PBDPAVRef@1@@Z" PURGE="8" COMMENT="" />
    <EXPORT ORDINAL="286" NAME="??0DictionaryHelper@cocostudio@@QAE@XZ" PURGE="0" COMMENT="" />
    <EXPORT ORDINAL="287" NAME="??0DirectionLight@cocos2d@@QAE@XZ" PURGE="0" COMMENT="" />
    <EXPORT ORDINAL="288" NAME="??0Director@cocos2d@@QAE@ABV01@@Z" PURGE="4" COMMENT="" />
    <EXPORT ORDINAL="289" NAME="??0Director@cocos2d@@QAE@XZ" PURGE="0" COMMENT="" />
    <EXPORT ORDINAL="290" NAME="??0DirectorDelegate@cocos2d@@QAE@ABV01@@Z" PURGE="4" COMMENT="" />
    <EXPORT ORDINAL="291" NAME="??0DirectorDelegate@cocos2d@@QAE@XZ" PURGE="0" COMMENT="" />
    <EXPORT ORDINAL="292" NAME="??0DisplayData@cocostudio@@QAE@ABV01@@Z" PURGE="4" COMMENT="" />
    <EXPORT ORDINAL="293" NAME="??0DisplayData@cocostudio@@QAE@XZ" PURGE="0" COMMENT="" />
    <EXPORT ORDINAL="294" NAME="??0DisplayManager@cocostudio@@QAE@ABV01@@Z" PURGE="4" COMMENT="" />
    <EXPORT ORDINAL="295" NAME="??0DisplayManager@cocostudio@@QAE@XZ" PURGE="0" COMMENT="" />
    <EXPORT ORDINAL="296" NAME="??0DownloadTask@network@cocos2d@@QAE@XZ" PURGE="0" COMMENT="" />
    <EXPORT ORDINAL="297" NAME="??0Downloader@network@cocos2d@@QAE@ABVDownloaderHints@12@@Z" PURGE="4" COMMENT="" />
    <EXPORT ORDINAL="298" NAME="??0Downloader@network@cocos2d@@QAE@XZ" PURGE="0" COMMENT="" />
    <EXPORT ORDINAL="299" NAME="??0DownloaderHints@network@cocos2d@@QAE@$$QAV012@@Z" PURGE="4" COMMENT="" />
    <EXPORT ORDINAL="300" NAME="??0DownloaderHints@network@cocos2d@@QAE@ABV012@@Z" PURGE="4" COMMENT="" />
    <EXPORT ORDINAL="301" NAME="??0DownloaderHints@network@cocos2d@@QAE@XZ" PURGE="0" COMMENT="" />
    <EXPORT ORDINAL="302" NAME="??0DrawNode@cocos2d@@QAE@M@Z" PURGE="4" COMMENT="" />
    <EXPORT ORDINAL="303" NAME="??0EaseBackIn@cocos2d@@QAE@XZ" PURGE="0" COMMENT="" />
    <EXPORT ORDINAL="304" NAME="??0EaseBackInOut@cocos2d@@QAE@XZ" PURGE="0" COMMENT="" />
    <EXPORT ORDINAL="305" NAME="??0EaseBackOut@cocos2d@@QAE@XZ" PURGE="0" COMMENT="" />
    <EXPORT ORDINAL="306" NAME="??0EaseBezierAction@cocos2d@@QAE@XZ" PURGE="0" COMMENT="" />
    <EXPORT ORDINAL="307" NAME="??0EaseBounce@cocos2d@@QAE@XZ" PURGE="0" COMMENT="" />
    <EXPORT ORDINAL="308" NAME="??0EaseBounceIn@cocos2d@@QAE@XZ" PURGE="0" COMMENT="" />
    <EXPORT ORDINAL="309" NAME="??0EaseBounceInOut@cocos2d@@QAE@XZ" PURGE="0" COMMENT="" />
    <EXPORT ORDINAL="310" NAME="??0EaseBounceOut@cocos2d@@QAE@XZ" PURGE="0" COMMENT="" />
    <EXPORT ORDINAL="311" NAME="??0EaseCircleActionIn@cocos2d@@QAE@XZ" PURGE="0" COMMENT="" />
    <EXPORT ORDINAL="312" NAME="??0EaseCircleActionInOut@cocos2d@@QAE@XZ" PURGE="0" COMMENT="" />
    <EXPORT ORDINAL="313" NAME="??0EaseCircleActionOut@cocos2d@@QAE@XZ" PURGE="0" COMMENT="" />
    <EXPORT ORDINAL="314" NAME="??0EaseCubicActionIn@cocos2d@@QAE@XZ" PURGE="0" COMMENT="" />
    <EXPORT ORDINAL="315" NAME="??0EaseCubicActionInOut@cocos2d@@QAE@XZ" PURGE="0" COMMENT="" />
    <EXPORT ORDINAL="316" NAME="??0EaseCubicActionOut@cocos2d@@QAE@XZ" PURGE="0" COMMENT="" />
    <EXPORT ORDINAL="317" NAME="??0EaseElastic@cocos2d@@QAE@XZ" PURGE="0" COMMENT="" />
    <EXPORT ORDINAL="318" NAME="??0EaseElasticIn@cocos2d@@QAE@XZ" PURGE="0" COMMENT="" />
    <EXPORT ORDINAL="319" NAME="??0EaseElasticInOut@cocos2d@@QAE@XZ" PURGE="0" COMMENT="" />
    <EXPORT ORDINAL="320" NAME="??0EaseElasticOut@cocos2d@@QAE@XZ" PURGE="0" COMMENT="" />
    <EXPORT ORDINAL="321" NAME="??0EaseExponentialIn@cocos2d@@QAE@XZ" PURGE="0" COMMENT="" />
    <EXPORT ORDINAL="322" NAME="??0EaseExponentialInOut@cocos2d@@QAE@XZ" PURGE="0" COMMENT="" />
    <EXPORT ORDINAL="323" NAME="??0EaseExponentialOut@cocos2d@@QAE@XZ" PURGE="0" COMMENT="" />
    <EXPORT ORDINAL="324" NAME="??0EaseIn@cocos2d@@QAE@XZ" PURGE="0" COMMENT="" />
    <EXPORT ORDINAL="325" NAME="??0EaseInOut@cocos2d@@QAE@XZ" PURGE="0" COMMENT="" />
    <EXPORT ORDINAL="326" NAME="??0EaseOut@cocos2d@@QAE@XZ" PURGE="0" COMMENT="" />
    <EXPORT ORDINAL="327" NAME="??0EaseQuadraticActionIn@cocos2d@@QAE@XZ" PURGE="0" COMMENT="" />
    <EXPORT ORDINAL="328" NAME="??0EaseQuadraticActionInOut@cocos2d@@QAE@XZ" PURGE="0" COMMENT="" />
    <EXPORT ORDINAL="329" NAME="??0EaseQuadraticActionOut@cocos2d@@QAE@XZ" PURGE="0" COMMENT="" />
    <EXPORT ORDINAL="330" NAME="??0EaseQuarticActionIn@cocos2d@@QAE@XZ" PURGE="0" COMMENT="" />
    <EXPORT ORDINAL="331" NAME="??0EaseQuarticActionInOut@cocos2d@@QAE@XZ" PURGE="0" COMMENT="" />
    <EXPORT ORDINAL="332" NAME="??0EaseQuarticActionOut@cocos2d@@QAE@XZ" PURGE="0" COMMENT="" />
    <EXPORT ORDINAL="333" NAME="??0EaseQuinticActionIn@cocos2d@@QAE@XZ" PURGE="0" COMMENT="" />
    <EXPORT ORDINAL="334" NAME="??0EaseQuinticActionInOut@cocos2d@@QAE@XZ" PURGE="0" COMMENT="" />
    <EXPORT ORDINAL="335" NAME="??0EaseQuinticActionOut@cocos2d@@QAE@XZ" PURGE="0" COMMENT="" />
    <EXPORT ORDINAL="336" NAME="??0EaseRateAction@cocos2d@@QAE@XZ" PURGE="0" COMMENT="" />
    <EXPORT ORDINAL="337" NAME="??0EaseSineIn@cocos2d@@QAE@XZ" PURGE="0" COMMENT="" />
    <EXPORT ORDINAL="338" NAME="??0EaseSineInOut@cocos2d@@QAE@XZ" PURGE="0" COMMENT="" />
    <EXPORT ORDINAL="339" NAME="??0EaseSineOut@cocos2d@@QAE@XZ" PURGE="0" COMMENT="" />
    <EXPORT ORDINAL="340" NAME="??0EditBox@ui@cocos2d@@QAE@XZ" PURGE="0" COMMENT="" />
    <EXPORT ORDINAL="341" NAME="??0EditBoxDelegate@ui@cocos2d@@QAE@ABV012@@Z" PURGE="4" COMMENT="" />
    <EXPORT ORDINAL="342" NAME="??0EditBoxDelegate@ui@cocos2d@@QAE@XZ" PURGE="0" COMMENT="" />
    <EXPORT ORDINAL="343" NAME="??0EditBoxImpl@ui@cocos2d@@QAE@ABV012@@Z" PURGE="4" COMMENT="" />
    <EXPORT ORDINAL="344" NAME="??0EditBoxImpl@ui@cocos2d@@QAE@PAVEditBox@12@@Z" PURGE="4" COMMENT="" />
    <EXPORT ORDINAL="345" NAME="??0EditBoxImplWin@ui@cocos2d@@QAE@ABV012@@Z" PURGE="4" COMMENT="" />
    <EXPORT ORDINAL="346" NAME="??0EditBoxImplWin@ui@cocos2d@@QAE@PAVEditBox@12@@Z" PURGE="4" COMMENT="" />
    <EXPORT ORDINAL="347" NAME="??0Event@cocos2d@@QAE@ABV01@@Z" PURGE="4" COMMENT="" />
    <EXPORT ORDINAL="348" NAME="??0Event@cocos2d@@QAE@W4Type@01@@Z" PURGE="4" COMMENT="" />
    <EXPORT ORDINAL="349" NAME="??0EventAcceleration@cocos2d@@QAE@$$QAV01@@Z" PURGE="4" COMMENT="" />
    <EXPORT ORDINAL="350" NAME="??0EventAcceleration@cocos2d@@QAE@ABV01@@Z" PURGE="4" COMMENT="" />
    <EXPORT ORDINAL="351" NAME="??0EventAcceleration@cocos2d@@QAE@ABVAcceleration@1@@Z" PURGE="4" COMMENT="" />
    <EXPORT ORDINAL="352" NAME="??0EventAssetsManagerEx@extension@cocos2d@@QAE@$$QAV012@@Z" PURGE="4" COMMENT="" />
    <EXPORT ORDINAL="353" NAME="??0EventAssetsManagerEx@extension@cocos2d@@QAE@ABV012@@Z" PURGE="4" COMMENT="" />
    <EXPORT ORDINAL="354" NAME="??0EventAssetsManagerEx@extension@cocos2d@@QAE@ABV?$basic_string@DU?$char_traits@D@std@@V?$allocator@D@2@@std@@PAVAssetsManagerEx@12@ABW4EventCode@012@MM00HH@Z" PURGE="36" COMMENT="" />
    <EXPORT ORDINAL="355" NAME="??0EventCustom@cocos2d@@QAE@$$QAV01@@Z" PURGE="4" COMMENT="" />
    <EXPORT ORDINAL="356" NAME="??0EventCustom@cocos2d@@QAE@ABV01@@Z" PURGE="4" COMMENT="" />
    <EXPORT ORDINAL="357" NAME="??0EventCustom@cocos2d@@QAE@ABV?$basic_string@DU?$char_traits@D@std@@V?$allocator@D@2@@std@@@Z" PURGE="4" COMMENT="" />
    <EXPORT ORDINAL="358" NAME="??0EventDispatcher@cocos2d@@QAE@ABV01@@Z" PURGE="4" COMMENT="" />
    <EXPORT ORDINAL="359" NAME="??0EventDispatcher@cocos2d@@QAE@XZ" PURGE="0" COMMENT="" />
    <EXPORT ORDINAL="360" NAME="??0EventFocus@cocos2d@@QAE@$$QAV01@@Z" PURGE="4" COMMENT="" />
    <EXPORT ORDINAL="361" NAME="??0EventFocus@cocos2d@@QAE@ABV01@@Z" PURGE="4" COMMENT="" />
    <EXPORT ORDINAL="362" NAME="??0EventFocus@cocos2d@@QAE@PAVWidget@ui@1@0@Z" PURGE="8" COMMENT="" />
    <EXPORT ORDINAL="363" NAME="??0EventFrame@timeline@cocostudio@@QAE@$$QAV012@@Z" PURGE="4" COMMENT="" />
    <EXPORT ORDINAL="364" NAME="??0EventFrame@timeline@cocostudio@@QAE@ABV012@@Z" PURGE="4" COMMENT="" />
    <EXPORT ORDINAL="365" NAME="??0EventFrame@timeline@cocostudio@@QAE@XZ" PURGE="0" COMMENT="" />
    <EXPORT ORDINAL="366" NAME="??0EventKeyboard@cocos2d@@QAE@$$QAV01@@Z" PURGE="4" COMMENT="" />
    <EXPORT ORDINAL="367" NAME="??0EventKeyboard@cocos2d@@QAE@ABV01@@Z" PURGE="4" COMMENT="" />
    <EXPORT ORDINAL="368" NAME="??0EventKeyboard@cocos2d@@QAE@W4KeyCode@01@_N@Z" PURGE="8" COMMENT="" />
    <EXPORT ORDINAL="369" NAME="??0EventListener@cocos2d@@QAE@ABV01@@Z" PURGE="4" COMMENT="" />
    <EXPORT ORDINAL="370" NAME="??0EventListener@cocos2d@@QAE@XZ" PURGE="0" COMMENT="" />
    <EXPORT ORDINAL="371" NAME="??0EventListenerAcceleration@cocos2d@@QAE@ABV01@@Z" PURGE="4" COMMENT="" />
    <EXPORT ORDINAL="372" NAME="??0EventListenerAcceleration@cocos2d@@QAE@XZ" PURGE="0" COMMENT="" />
    <EXPORT ORDINAL="373" NAME="??0EventListenerAssetsManagerEx@extension@cocos2d@@QAE@$$QAV012@@Z" PURGE="4" COMMENT="" />
    <EXPORT ORDINAL="374" NAME="??0EventListenerAssetsManagerEx@extension@cocos2d@@QAE@ABV012@@Z" PURGE="4" COMMENT="" />
    <EXPORT ORDINAL="375" NAME="??0EventListenerAssetsManagerEx@extension@cocos2d@@QAE@XZ" PURGE="0" COMMENT="" />
    <EXPORT ORDINAL="376" NAME="??0EventListenerController@cocos2d@@QAE@$$QAV01@@Z" PURGE="4" COMMENT="" />
    <EXPORT ORDINAL="377" NAME="??0EventListenerController@cocos2d@@QAE@ABV01@@Z" PURGE="4" COMMENT="" />
    <EXPORT ORDINAL="378" NAME="??0EventListenerController@cocos2d@@QAE@XZ" PURGE="0" COMMENT="" />
    <EXPORT ORDINAL="379" NAME="??0EventListenerCustom@cocos2d@@QAE@$$QAV01@@Z" PURGE="4" COMMENT="" />
    <EXPORT ORDINAL="380" NAME="??0EventListenerCustom@cocos2d@@QAE@ABV01@@Z" PURGE="4" COMMENT="" />
    <EXPORT ORDINAL="381" NAME="??0EventListenerCustom@cocos2d@@QAE@XZ" PURGE="0" COMMENT="" />
    <EXPORT ORDINAL="382" NAME="??0EventListenerFocus@cocos2d@@QAE@ABV01@@Z" PURGE="4" COMMENT="" />
    <EXPORT ORDINAL="383" NAME="??0EventListenerFocus@cocos2d@@QAE@XZ" PURGE="0" COMMENT="" />
    <EXPORT ORDINAL="384" NAME="??0EventListenerKeyboard@cocos2d@@QAE@$$QAV01@@Z" PURGE="4" COMMENT="" />
    <EXPORT ORDINAL="385" NAME="??0EventListenerKeyboard@cocos2d@@QAE@ABV01@@Z" PURGE="4" COMMENT="" />
    <EXPORT ORDINAL="386" NAME="??0EventListenerKeyboard@cocos2d@@QAE@XZ" PURGE="0" COMMENT="" />
    <EXPORT ORDINAL="387" NAME="??0EventListenerMouse@cocos2d@@QAE@$$QAV01@@Z" PURGE="4" COMMENT="" />
    <EXPORT ORDINAL="388" NAME="??0EventListenerMouse@cocos2d@@QAE@ABV01@@Z" PURGE="4" COMMENT="" />
    <EXPORT ORDINAL="389" NAME="??0EventListenerMouse@cocos2d@@QAE@XZ" PURGE="0" COMMENT="" />
    <EXPORT ORDINAL="390" NAME="??0EventListenerPhysicsContact@cocos2d@@IAE@XZ" PURGE="0" COMMENT="" />
    <EXPORT ORDINAL="391" NAME="??0EventListenerPhysicsContact@cocos2d@@QAE@ABV01@@Z" PURGE="4" COMMENT="" />
    <EXPORT ORDINAL="392" NAME="??0EventListenerPhysicsContactWithBodies@cocos2d@@IAE@XZ" PURGE="0" COMMENT="" />
    <EXPORT ORDINAL="393" NAME="??0EventListenerPhysicsContactWithBodies@cocos2d@@QAE@ABV01@@Z" PURGE="4" COMMENT="" />
    <EXPORT ORDINAL="394" NAME="??0EventListenerPhysicsContactWithGroup@cocos2d@@IAE@XZ" PURGE="0" COMMENT="" />
    <EXPORT ORDINAL="395" NAME="??0EventListenerPhysicsContactWithGroup@cocos2d@@QAE@ABV01@@Z" PURGE="4" COMMENT="" />
    <EXPORT ORDINAL="396" NAME="??0EventListenerPhysicsContactWithShapes@cocos2d@@IAE@XZ" PURGE="0" COMMENT="" />
    <EXPORT ORDINAL="397" NAME="??0EventListenerPhysicsContactWithShapes@cocos2d@@QAE@ABV01@@Z" PURGE="4" COMMENT="" />
    <EXPORT ORDINAL="398" NAME="??0EventListenerTouchAllAtOnce@cocos2d@@QAE@ABV01@@Z" PURGE="4" COMMENT="" />
    <EXPORT ORDINAL="399" NAME="??0EventListenerTouchAllAtOnce@cocos2d@@QAE@XZ" PURGE="0" COMMENT="" />
    <EXPORT ORDINAL="400" NAME="??0EventListenerTouchOneByOne@cocos2d@@QAE@ABV01@@Z" PURGE="4" COMMENT="" />
    <EXPORT ORDINAL="401" NAME="??0EventListenerTouchOneByOne@cocos2d@@QAE@XZ" PURGE="0" COMMENT="" />
    <EXPORT ORDINAL="402" NAME="??0EventMouse@cocos2d@@QAE@$$QAV01@@Z" PURGE="4" COMMENT="" />
    <EXPORT ORDINAL="403" NAME="??0EventMouse@cocos2d@@QAE@ABV01@@Z" PURGE="4" COMMENT="" />
    <EXPORT ORDINAL="404" NAME="??0EventMouse@cocos2d@@QAE@W4MouseEventType@01@@Z" PURGE="4" COMMENT="" />
    <EXPORT ORDINAL="405" NAME="??0EventTouch@cocos2d@@QAE@$$QAV01@@Z" PURGE="4" COMMENT="" />
    <EXPORT ORDINAL="406" NAME="??0EventTouch@cocos2d@@QAE@ABV01@@Z" PURGE="4" COMMENT="" />
    <EXPORT ORDINAL="407" NAME="??0EventTouch@cocos2d@@QAE@XZ" PURGE="0" COMMENT="" />
    <EXPORT ORDINAL="408" NAME="??0FadeIn@cocos2d@@QAE@XZ" PURGE="0" COMMENT="" />
    <EXPORT ORDINAL="409" NAME="??0FadeOut@cocos2d@@QAE@XZ" PURGE="0" COMMENT="" />
    <EXPORT ORDINAL="410" NAME="??0FadeOutBLTiles@cocos2d@@QAE@XZ" PURGE="0" COMMENT="" />
    <EXPORT ORDINAL="411" NAME="??0FadeOutDownTiles@cocos2d@@QAE@XZ" PURGE="0" COMMENT="" />
    <EXPORT ORDINAL="412" NAME="??0FadeOutTRTiles@cocos2d@@QAE@XZ" PURGE="0" COMMENT="" />
    <EXPORT ORDINAL="413" NAME="??0FadeOutUpTiles@cocos2d@@QAE@XZ" PURGE="0" COMMENT="" />
    <EXPORT ORDINAL="414" NAME="??0FadeTo@cocos2d@@QAE@XZ" PURGE="0" COMMENT="" />
    <EXPORT ORDINAL="415" NAME="??0FileUtils@cocos2d@@IAE@XZ" PURGE="0" COMMENT="" />
    <EXPORT ORDINAL="416" NAME="??0FileUtils@cocos2d@@QAE@ABV01@@Z" PURGE="4" COMMENT="" />
    <EXPORT ORDINAL="417" NAME="??0FileUtilsWin32@cocos2d@@IAE@XZ" PURGE="0" COMMENT="" />
    <EXPORT ORDINAL="418" NAME="??0FileUtilsWin32@cocos2d@@QAE@$$QAV01@@Z" PURGE="4" COMMENT="" />
    <EXPORT ORDINAL="419" NAME="??0FileUtilsWin32@cocos2d@@QAE@ABV01@@Z" PURGE="4" COMMENT="" />
    <EXPORT ORDINAL="420" NAME="??0FiniteTimeAction@cocos2d@@QAE@XZ" PURGE="0" COMMENT="" />
    <EXPORT ORDINAL="421" NAME="??0FlatBuffersSerialize@cocostudio@@QAE@ABV01@@Z" PURGE="4" COMMENT="" />
    <EXPORT ORDINAL="422" NAME="??0FlatBuffersSerialize@cocostudio@@QAE@XZ" PURGE="0" COMMENT="" />
    <EXPORT ORDINAL="423" NAME="??0FlipX3D@cocos2d@@QAE@XZ" PURGE="0" COMMENT="" />
    <EXPORT ORDINAL="424" NAME="??0FlipX@cocos2d@@QAE@XZ" PURGE="0" COMMENT="" />
    <EXPORT ORDINAL="425" NAME="??0FlipY3D@cocos2d@@QAE@XZ" PURGE="0" COMMENT="" />
    <EXPORT ORDINAL="426" NAME="??0FlipY@cocos2d@@QAE@XZ" PURGE="0" COMMENT="" />
    <EXPORT ORDINAL="427" NAME="??0Follow@cocos2d@@QAE@XZ" PURGE="0" COMMENT="" />
    <EXPORT ORDINAL="428" NAME="??0Font@cocos2d@@QAE@$$QAV01@@Z" PURGE="4" COMMENT="" />
    <EXPORT ORDINAL="429" NAME="??0Font@cocos2d@@QAE@ABV01@@Z" PURGE="4" COMMENT="" />
    <EXPORT ORDINAL="430" NAME="??0Font@cocos2d@@QAE@XZ" PURGE="0" COMMENT="" />
    <EXPORT ORDINAL="431" NAME="??0FontAtlas@cocos2d@@QAE@AAVFont@1@@Z" PURGE="4" COMMENT="" />
    <EXPORT ORDINAL="432" NAME="??0FontAtlas@cocos2d@@QAE@ABV01@@Z" PURGE="4" COMMENT="" />
    <EXPORT ORDINAL="433" NAME="??0FontDefinition@cocos2d@@QAE@$$QAU01@@Z" PURGE="4" COMMENT="" />
    <EXPORT ORDINAL="434" NAME="??0FontDefinition@cocos2d@@QAE@ABU01@@Z" PURGE="4" COMMENT="" />
    <EXPORT ORDINAL="435" NAME="??0FontDefinition@cocos2d@@QAE@XZ" PURGE="0" COMMENT="" />
    <EXPORT ORDINAL="436" NAME="??0FontFNT@cocos2d@@IAE@PAVBMFontConfiguration@1@ABVVec2@1@@Z" PURGE="8" COMMENT="" />
    <EXPORT ORDINAL="437" NAME="??0FontFNT@cocos2d@@QAE@ABV01@@Z" PURGE="4" COMMENT="" />
    <EXPORT ORDINAL="438" NAME="??0FontFreeType@cocos2d@@AAE@_NH@Z" PURGE="8" COMMENT="" />
    <EXPORT ORDINAL="439" NAME="??0FontFreeType@cocos2d@@QAE@ABV01@@Z" PURGE="4" COMMENT="" />
    <EXPORT ORDINAL="440" NAME="??0FontShadow@cocos2d@@QAE@$$QAU01@@Z" PURGE="4" COMMENT="" />
    <EXPORT ORDINAL="441" NAME="??0FontShadow@cocos2d@@QAE@ABU01@@Z" PURGE="4" COMMENT="" />
    <EXPORT ORDINAL="442" NAME="??0FontShadow@cocos2d@@QAE@XZ" PURGE="0" COMMENT="" />
    <EXPORT ORDINAL="443" NAME="??0FontStroke@cocos2d@@QAE@XZ" PURGE="0" COMMENT="" />
    <EXPORT ORDINAL="444" NAME="??0Frame@timeline@cocostudio@@IAE@XZ" PURGE="0" COMMENT="" />
    <EXPORT ORDINAL="445" NAME="??0Frame@timeline@cocostudio@@QAE@ABV012@@Z" PURGE="4" COMMENT="" />
    <EXPORT ORDINAL="446" NAME="??0FrameBuffer@experimental@cocos2d@@QAE@ABV012@@Z" PURGE="4" COMMENT="" />
    <EXPORT ORDINAL="447" NAME="??0FrameBuffer@experimental@cocos2d@@QAE@XZ" PURGE="0" COMMENT="" />
    <EXPORT ORDINAL="448" NAME="??0FrameData@cocostudio@@QAE@ABV01@@Z" PURGE="4" COMMENT="" />
    <EXPORT ORDINAL="449" NAME="??0FrameData@cocostudio@@QAE@XZ" PURGE="0" COMMENT="" />
    <EXPORT ORDINAL="450" NAME="??0Frustum@cocos2d@@QAE@ABV01@@Z" PURGE="4" COMMENT="" />
    <EXPORT ORDINAL="451" NAME="??0Frustum@cocos2d@@QAE@XZ" PURGE="0" COMMENT="" />
    <EXPORT ORDINAL="452" NAME="??0GLProgram@cocos2d@@QAE@ABV01@@Z" PURGE="4" COMMENT="" />
    <EXPORT ORDINAL="453" NAME="??0GLProgram@cocos2d@@QAE@XZ" PURGE="0" COMMENT="" />
    <EXPORT ORDINAL="454" NAME="??0GLProgramCache@cocos2d@@QAE@ABV01@@Z" PURGE="4" COMMENT="" />
    <EXPORT ORDINAL="455" NAME="??0GLProgramCache@cocos2d@@QAE@XZ" PURGE="0" COMMENT="" />
    <EXPORT ORDINAL="456" NAME="??0GLProgramState@cocos2d@@IAE@XZ" PURGE="0" COMMENT="" />
    <EXPORT ORDINAL="457" NAME="??0GLProgramState@cocos2d@@QAE@ABV01@@Z" PURGE="4" COMMENT="" />
    <EXPORT ORDINAL="458" NAME="??0GLProgramStateCache@cocos2d@@IAE@XZ" PURGE="0" COMMENT="" />
    <EXPORT ORDINAL="459" NAME="??0GLProgramStateCache@cocos2d@@QAE@ABV01@@Z" PURGE="4" COMMENT="" />
    <EXPORT ORDINAL="460" NAME="??0GLView@cocos2d@@QAE@ABV01@@Z" PURGE="4" COMMENT="" />
    <EXPORT ORDINAL="461" NAME="??0GLView@cocos2d@@QAE@XZ" PURGE="0" COMMENT="" />
    <EXPORT ORDINAL="462" NAME="??0GLViewImpl@cocos2d@@IAE@_N@Z" PURGE="4" COMMENT="" />
    <EXPORT ORDINAL="463" NAME="??0GUIReader@cocostudio@@IAE@XZ" PURGE="0" COMMENT="" />
    <EXPORT ORDINAL="464" NAME="??0GUIReader@cocostudio@@QAE@ABV01@@Z" PURGE="4" COMMENT="" />
    <EXPORT ORDINAL="465" NAME="??0GameMapReader@cocostudio@@QAE@ABV01@@Z" PURGE="4" COMMENT="" />
    <EXPORT ORDINAL="466" NAME="??0GameMapReader@cocostudio@@QAE@XZ" PURGE="0" COMMENT="" />
    <EXPORT ORDINAL="467" NAME="??0GameNode3DReader@cocostudio@@QAE@ABV01@@Z" PURGE="4" COMMENT="" />
    <EXPORT ORDINAL="468" NAME="??0GameNode3DReader@cocostudio@@QAE@XZ" PURGE="0" COMMENT="" />
    <EXPORT ORDINAL="469" NAME="??0Grid3D@cocos2d@@QAE@ABV01@@Z" PURGE="4" COMMENT="" />
    <EXPORT ORDINAL="470" NAME="??0Grid3D@cocos2d@@QAE@XZ" PURGE="0" COMMENT="" />
    <EXPORT ORDINAL="471" NAME="??0Grid3DAction@cocos2d@@QAE@XZ" PURGE="0" COMMENT="" />
    <EXPORT ORDINAL="472" NAME="??0GridAction@cocos2d@@QAE@XZ" PURGE="0" COMMENT="" />
    <EXPORT ORDINAL="473" NAME="??0GridBase@cocos2d@@QAE@ABV01@@Z" PURGE="4" COMMENT="" />
    <EXPORT ORDINAL="474" NAME="??0GridBase@cocos2d@@QAE@XZ" PURGE="0" COMMENT="" />
    <EXPORT ORDINAL="475" NAME="??0GroupCommand@cocos2d@@QAE@ABV01@@Z" PURGE="4" COMMENT="" />
    <EXPORT ORDINAL="476" NAME="??0GroupCommand@cocos2d@@QAE@XZ" PURGE="0" COMMENT="" />
    <EXPORT ORDINAL="477" NAME="??0HBox@ui@cocos2d@@QAE@XZ" PURGE="0" COMMENT="" />
    <EXPORT ORDINAL="478" NAME="??0Hide@cocos2d@@QAE@XZ" PURGE="0" COMMENT="" />
    <EXPORT ORDINAL="479" NAME="??0HttpClient@network@cocos2d@@AAE@XZ" PURGE="0" COMMENT="" />
    <EXPORT ORDINAL="480" NAME="??0HttpRequest@network@cocos2d@@QAE@ABV012@@Z" PURGE="4" COMMENT="" />
    <EXPORT ORDINAL="481" NAME="??0HttpRequest@network@cocos2d@@QAE@XZ" PURGE="0" COMMENT="" />
    <EXPORT ORDINAL="482" NAME="??0HttpResponse@network@cocos2d@@QAE@ABV012@@Z" PURGE="4" COMMENT="" />
    <EXPORT ORDINAL="483" NAME="??0HttpResponse@network@cocos2d@@QAE@PAVHttpRequest@12@@Z" PURGE="4" COMMENT="" />
    <EXPORT ORDINAL="484" NAME="??0IDownloadTask@network@cocos2d@@QAE@ABV012@@Z" PURGE="4" COMMENT="" />
    <EXPORT ORDINAL="485" NAME="??0IDownloadTask@network@cocos2d@@QAE@XZ" PURGE="0" COMMENT="" />
    <EXPORT ORDINAL="486" NAME="??0ILocalizationManager@cocostudio@@QAE@ABV01@@Z" PURGE="4" COMMENT="" />
    <EXPORT ORDINAL="487" NAME="??0ILocalizationManager@cocostudio@@QAE@XZ" PURGE="0" COMMENT="" />
    <EXPORT ORDINAL="488" NAME="??0IMEDelegate@cocos2d@@IAE@XZ" PURGE="0" COMMENT="" />
    <EXPORT ORDINAL="489" NAME="??0IMEDelegate@cocos2d@@QAE@ABV01@@Z" PURGE="4" COMMENT="" />
    <EXPORT ORDINAL="490" NAME="??0IMEDispatcher@cocos2d@@AAE@XZ" PURGE="0" COMMENT="" />
    <EXPORT ORDINAL="491" NAME="??0Image@cocos2d@@QAE@XZ" PURGE="0" COMMENT="" />
    <EXPORT ORDINAL="492" NAME="??0ImageView@ui@cocos2d@@QAE@XZ" PURGE="0" COMMENT="" />
    <EXPORT ORDINAL="493" NAME="??0ImageViewReader@cocostudio@@QAE@ABV01@@Z" PURGE="4" COMMENT="" />
    <EXPORT ORDINAL="494" NAME="??0ImageViewReader@cocostudio@@QAE@XZ" PURGE="0" COMMENT="" />
    <EXPORT ORDINAL="495" NAME="??0IndexBuffer@cocos2d@@IAE@XZ" PURGE="0" COMMENT="" />
    <EXPORT ORDINAL="496" NAME="??0IndexBuffer@cocos2d@@QAE@ABV01@@Z" PURGE="4" COMMENT="" />
    <EXPORT ORDINAL="497" NAME="??0InnerActionFrame@timeline@cocostudio@@QAE@$$QAV012@@Z" PURGE="4" COMMENT="" />
    <EXPORT ORDINAL="498" NAME="??0InnerActionFrame@timeline@cocostudio@@QAE@ABV012@@Z" PURGE="4" COMMENT="" />
    <EXPORT ORDINAL="499" NAME="??0InnerActionFrame@timeline@cocostudio@@QAE@XZ" PURGE="0" COMMENT="" />
    <EXPORT ORDINAL="500" NAME="??0InputDelegate@cocostudio@@QAE@ABV01@@Z" PURGE="4" COMMENT="" />
    <EXPORT ORDINAL="501" NAME="??0InputDelegate@cocostudio@@QAE@XZ" PURGE="0" COMMENT="" />
    <EXPORT ORDINAL="502" NAME="??0Invocation@extension@cocos2d@@QAE@$$QAV012@@Z" PURGE="4" COMMENT="" />
    <EXPORT ORDINAL="503" NAME="??0Invocation@extension@cocos2d@@QAE@ABV012@@Z" PURGE="4" COMMENT="" />
    <EXPORT ORDINAL="504" NAME="??0Invocation@extension@cocos2d@@QAE@PAVRef@2@P832@AEX0W4EventType@Control@12@@Z1@Z" PURGE="12" COMMENT="" />
    <EXPORT ORDINAL="505" NAME="??0JsonLocalizationManager@cocostudio@@IAE@XZ" PURGE="0" COMMENT="" />
    <EXPORT ORDINAL="506" NAME="??0JsonLocalizationManager@cocostudio@@QAE@ABV01@@Z" PURGE="4" COMMENT="" />
    <EXPORT ORDINAL="507" NAME="??0JumpBy@cocos2d@@QAE@XZ" PURGE="0" COMMENT="" />
    <EXPORT ORDINAL="508" NAME="??0JumpTiles3D@cocos2d@@QAE@XZ" PURGE="0" COMMENT="" />
    <EXPORT ORDINAL="509" NAME="??0JumpTo@cocos2d@@QAE@XZ" PURGE="0" COMMENT="" />
    <EXPORT ORDINAL="510" NAME="??0Label@cocos2d@@QAE@W4TextHAlignment@1@W4TextVAlignment@1@@Z" PURGE="8" COMMENT="" />
    <EXPORT ORDINAL="511" NAME="??0LabelAtlas@cocos2d@@QAE@XZ" PURGE="0" COMMENT="" />
    <EXPORT ORDINAL="512" NAME="??0LabelBMFont@cocos2d@@QAE@XZ" PURGE="0" COMMENT="" />
    <EXPORT ORDINAL="513" NAME="??0LabelBMFontLoader@cocosbuilder@@QAE@ABV01@@Z" PURGE="4" COMMENT="" />
    <EXPORT ORDINAL="514" NAME="??0LabelBMFontLoader@cocosbuilder@@QAE@XZ" PURGE="0" COMMENT="" />
    <EXPORT ORDINAL="515" NAME="??0LabelProtocol@cocos2d@@QAE@ABV01@@Z" PURGE="4" COMMENT="" />
    <EXPORT ORDINAL="516" NAME="??0LabelProtocol@cocos2d@@QAE@XZ" PURGE="0" COMMENT="" />
    <EXPORT ORDINAL="517" NAME="??0LabelTTF@cocos2d@@QAE@XZ" PURGE="0" COMMENT="" />
    <EXPORT ORDINAL="518" NAME="??0LabelTTFLoader@cocosbuilder@@QAE@ABV01@@Z" PURGE="4" COMMENT="" />
    <EXPORT ORDINAL="519" NAME="??0LabelTTFLoader@cocosbuilder@@QAE@XZ" PURGE="0" COMMENT="" />
    <EXPORT ORDINAL="520" NAME="??0Layer@cocos2d@@QAE@XZ" PURGE="0" COMMENT="" />
    <EXPORT ORDINAL="521" NAME="??0LayerColor@cocos2d@@QAE@XZ" PURGE="0" COMMENT="" />
    <EXPORT ORDINAL="522" NAME="??0LayerColorLoader@cocosbuilder@@QAE@ABV01@@Z" PURGE="4" COMMENT="" />
    <EXPORT ORDINAL="523" NAME="??0LayerColorLoader@cocosbuilder@@QAE@XZ" PURGE="0" COMMENT="" />
    <EXPORT ORDINAL="524" NAME="??0LayerGradient@cocos2d@@QAE@XZ" PURGE="0" COMMENT="" />
    <EXPORT ORDINAL="525" NAME="??0LayerGradientLoader@cocosbuilder@@QAE@ABV01@@Z" PURGE="4" COMMENT="" />
    <EXPORT ORDINAL="526" NAME="??0LayerGradientLoader@cocosbuilder@@QAE@XZ" PURGE="0" COMMENT="" />
    <EXPORT ORDINAL="527" NAME="??0LayerLoader@cocosbuilder@@QAE@ABV01@@Z" PURGE="4" COMMENT="" />
    <EXPORT ORDINAL="528" NAME="??0LayerLoader@cocosbuilder@@QAE@XZ" PURGE="0" COMMENT="" />
    <EXPORT ORDINAL="529" NAME="??0LayerMultiplex@cocos2d@@QAE@XZ" PURGE="0" COMMENT="" />
    <EXPORT ORDINAL="530" NAME="??0Layout@ui@cocos2d@@QAE@XZ" PURGE="0" COMMENT="" />
    <EXPORT ORDINAL="531" NAME="??0LayoutComponent@ui@cocos2d@@QAE@ABV012@@Z" PURGE="4" COMMENT="" />
    <EXPORT ORDINAL="532" NAME="??0LayoutComponent@ui@cocos2d@@QAE@XZ" PURGE="0" COMMENT="" />
    <EXPORT ORDINAL="533" NAME="??0LayoutManager@ui@cocos2d@@QAE@ABV012@@Z" PURGE="4" COMMENT="" />
    <EXPORT ORDINAL="534" NAME="??0LayoutManager@ui@cocos2d@@QAE@XZ" PURGE="0" COMMENT="" />
    <EXPORT ORDINAL="535" NAME="??0LayoutParameter@ui@cocos2d@@QAE@ABV012@@Z" PURGE="4" COMMENT="" />
    <EXPORT ORDINAL="536" NAME="??0LayoutParameter@ui@cocos2d@@QAE@XZ" PURGE="0" COMMENT="" />
    <EXPORT ORDINAL="537" NAME="??0LayoutParameterProtocol@ui@cocos2d@@QAE@ABV012@@Z" PURGE="4" COMMENT="" />
    <EXPORT ORDINAL="538" NAME="??0LayoutParameterProtocol@ui@cocos2d@@QAE@XZ" PURGE="0" COMMENT="" />
    <EXPORT ORDINAL="539" NAME="??0LayoutProtocol@ui@cocos2d@@QAE@ABV012@@Z" PURGE="4" COMMENT="" />
    <EXPORT ORDINAL="540" NAME="??0LayoutProtocol@ui@cocos2d@@QAE@XZ" PURGE="0" COMMENT="" />
    <EXPORT ORDINAL="541" NAME="??0LayoutReader@cocostudio@@QAE@ABV01@@Z" PURGE="4" COMMENT="" />
    <EXPORT ORDINAL="542" NAME="??0LayoutReader@cocostudio@@QAE@XZ" PURGE="0" COMMENT="" />
    <EXPORT ORDINAL="543" NAME="??0Lens3D@cocos2d@@QAE@XZ" PURGE="0" COMMENT="" />
    <EXPORT ORDINAL="544" NAME="??0Light3DReader@cocostudio@@QAE@ABV01@@Z" PURGE="4" COMMENT="" />
    <EXPORT ORDINAL="545" NAME="??0Light3DReader@cocostudio@@QAE@XZ" PURGE="0" COMMENT="" />
    <EXPORT ORDINAL="546" NAME="??0LinearHorizontalLayoutManager@ui@cocos2d@@AAE@XZ" PURGE="0" COMMENT="" />
    <EXPORT ORDINAL="547" NAME="??0LinearHorizontalLayoutManager@ui@cocos2d@@QAE@ABV012@@Z" PURGE="4" COMMENT="" />
    <EXPORT ORDINAL="548" NAME="??0LinearLayoutParameter@ui@cocos2d@@QAE@ABV012@@Z" PURGE="4" COMMENT="" />
    <EXPORT ORDINAL="549" NAME="??0LinearLayoutParameter@ui@cocos2d@@QAE@XZ" PURGE="0" COMMENT="" />
    <EXPORT ORDINAL="550" NAME="??0LinearVerticalLayoutManager@ui@cocos2d@@AAE@XZ" PURGE="0" COMMENT="" />
    <EXPORT ORDINAL="551" NAME="??0LinearVerticalLayoutManager@ui@cocos2d@@QAE@ABV012@@Z" PURGE="4" COMMENT="" />
    <EXPORT ORDINAL="552" NAME="??0Liquid@cocos2d@@QAE@XZ" PURGE="0" COMMENT="" />
    <EXPORT ORDINAL="553" NAME="??0ListView@ui@cocos2d@@QAE@XZ" PURGE="0" COMMENT="" />
    <EXPORT ORDINAL="554" NAME="??0ListViewReader@cocostudio@@QAE@ABV01@@Z" PURGE="4" COMMENT="" />
    <EXPORT ORDINAL="555" NAME="??0ListViewReader@cocostudio@@QAE@XZ" PURGE="0" COMMENT="" />
    <EXPORT ORDINAL="556" NAME="??0LoadingBar@ui@cocos2d@@QAE@XZ" PURGE="0" COMMENT="" />
    <EXPORT ORDINAL="557" NAME="??0LoadingBarReader@cocostudio@@QAE@ABV01@@Z" PURGE="4" COMMENT="" />
    <EXPORT ORDINAL="558" NAME="??0LoadingBarReader@cocostudio@@QAE@XZ" PURGE="0" COMMENT="" />
    <EXPORT ORDINAL="559" NAME="??0Manifest@extension@cocos2d@@IAE@ABV?$basic_string@DU?$char_traits@D@std@@V?$allocator@D@2@@std@@@Z" PURGE="4" COMMENT="" />
    <EXPORT ORDINAL="560" NAME="??0Manifest@extension@cocos2d@@QAE@$$QAV012@@Z" PURGE="4" COMMENT="" />
    <EXPORT ORDINAL="561" NAME="??0Margin@ui@cocos2d@@QAE@ABV012@@Z" PURGE="4" COMMENT="" />
    <EXPORT ORDINAL="562" NAME="??0Margin@ui@cocos2d@@QAE@MMMM@Z" PURGE="16" COMMENT="" />
    <EXPORT ORDINAL="563" NAME="??0Margin@ui@cocos2d@@QAE@XZ" PURGE="0" COMMENT="" />
    <EXPORT ORDINAL="564" NAME="??0Mat4@cocos2d@@QAE@ABV01@@Z" PURGE="4" COMMENT="" />
    <EXPORT ORDINAL="565" NAME="??0Mat4@cocos2d@@QAE@MMMMMMMMMMMMMMMM@Z" PURGE="64" COMMENT="" />
    <EXPORT ORDINAL="566" NAME="??0Mat4@cocos2d@@QAE@PBM@Z" PURGE="4" COMMENT="" />
    <EXPORT ORDINAL="567" NAME="??0Mat4@cocos2d@@QAE@XZ" PURGE="0" COMMENT="" />
    <EXPORT ORDINAL="568" NAME="??0Material@cocos2d@@IAE@XZ" PURGE="0" COMMENT="" />
    <EXPORT ORDINAL="569" NAME="??0Material@cocos2d@@QAE@ABV01@@Z" PURGE="4" COMMENT="" />
    <EXPORT ORDINAL="570" NAME="??0MemPool@tinyxml2@@QAE@ABV01@@Z" PURGE="4" COMMENT="" />
    <EXPORT ORDINAL="571" NAME="??0MemPool@tinyxml2@@QAE@XZ" PURGE="0" COMMENT="" />
    <EXPORT ORDINAL="572" NAME="??0Menu@cocos2d@@QAE@XZ" PURGE="0" COMMENT="" />
    <EXPORT ORDINAL="573" NAME="??0MenuItem@cocos2d@@QAE@XZ" PURGE="0" COMMENT="" />
    <EXPORT ORDINAL="574" NAME="??0MenuItemAtlasFont@cocos2d@@QAE@XZ" PURGE="0" COMMENT="" />
    <EXPORT ORDINAL="575" NAME="??0MenuItemFont@cocos2d@@QAE@XZ" PURGE="0" COMMENT="" />
    <EXPORT ORDINAL="576" NAME="??0MenuItemImage@cocos2d@@QAE@XZ" PURGE="0" COMMENT="" />
    <EXPORT ORDINAL="577" NAME="??0MenuItemImageLoader@cocosbuilder@@QAE@ABV01@@Z" PURGE="4" COMMENT="" />
    <EXPORT ORDINAL="578" NAME="??0MenuItemImageLoader@cocosbuilder@@QAE@XZ" PURGE="0" COMMENT="" />
    <EXPORT ORDINAL="579" NAME="??0MenuItemLabel@cocos2d@@QAE@XZ" PURGE="0" COMMENT="" />
    <EXPORT ORDINAL="580" NAME="??0MenuItemLoader@cocosbuilder@@QAE@ABV01@@Z" PURGE="4" COMMENT="" />
    <EXPORT ORDINAL="581" NAME="??0MenuItemLoader@cocosbuilder@@QAE@XZ" PURGE="0" COMMENT="" />
    <EXPORT ORDINAL="582" NAME="??0MenuItemSprite@cocos2d@@QAE@XZ" PURGE="0" COMMENT="" />
    <EXPORT ORDINAL="583" NAME="??0MenuItemToggle@cocos2d@@QAE@XZ" PURGE="0" COMMENT="" />
    <EXPORT ORDINAL="584" NAME="??0MenuLoader@cocosbuilder@@QAE@ABV01@@Z" PURGE="4" COMMENT="" />
    <EXPORT ORDINAL="585" NAME="??0MenuLoader@cocosbuilder@@QAE@XZ" PURGE="0" COMMENT="" />
    <EXPORT ORDINAL="586" NAME="??0Mesh@cocos2d@@QAE@ABV01@@Z" PURGE="4" COMMENT="" />
    <EXPORT ORDINAL="587" NAME="??0Mesh@cocos2d@@QAE@XZ" PURGE="0" COMMENT="" />
    <EXPORT ORDINAL="588" NAME="??0MeshCommand@cocos2d@@QAE@ABV01@@Z" PURGE="4" COMMENT="" />
    <EXPORT ORDINAL="589" NAME="??0MeshCommand@cocos2d@@QAE@XZ" PURGE="0" COMMENT="" />
    <EXPORT ORDINAL="590" NAME="??0MeshIndexData@cocos2d@@QAE@ABV01@@Z" PURGE="4" COMMENT="" />
    <EXPORT ORDINAL="591" NAME="??0MeshIndexData@cocos2d@@QAE@XZ" PURGE="0" COMMENT="" />
    <EXPORT ORDINAL="592" NAME="??0MeshSkin@cocos2d@@QAE@ABV01@@Z" PURGE="4" COMMENT="" />
    <EXPORT ORDINAL="593" NAME="??0MeshSkin@cocos2d@@QAE@XZ" PURGE="0" COMMENT="" />
    <EXPORT ORDINAL="594" NAME="??0MeshVertexData@cocos2d@@QAE@ABV01@@Z" PURGE="4" COMMENT="" />
    <EXPORT ORDINAL="595" NAME="??0MeshVertexData@cocos2d@@QAE@XZ" PURGE="0" COMMENT="" />
    <EXPORT ORDINAL="596" NAME="??0MotionStreak3D@cocos2d@@QAE@XZ" PURGE="0" COMMENT="" />
    <EXPORT ORDINAL="597" NAME="??0MotionStreak@cocos2d@@QAE@XZ" PURGE="0" COMMENT="" />
    <EXPORT ORDINAL="598" NAME="??0MoveBy@cocos2d@@QAE@XZ" PURGE="0" COMMENT="" />
    <EXPORT ORDINAL="599" NAME="??0MoveTo@cocos2d@@QAE@XZ" PURGE="0" COMMENT="" />
    <EXPORT ORDINAL="600" NAME="??0MovementBoneData@cocostudio@@QAE@ABV01@@Z" PURGE="4" COMMENT="" />
    <EXPORT ORDINAL="601" NAME="??0MovementBoneData@cocostudio@@QAE@XZ" PURGE="0" COMMENT="" />
    <EXPORT ORDINAL="602" NAME="??0MovementData@cocostudio@@QAE@ABV01@@Z" PURGE="4" COMMENT="" />
    <EXPORT ORDINAL="603" NAME="??0MovementData@cocostudio@@QAE@XZ" PURGE="0" COMMENT="" />
    <EXPORT ORDINAL="604" NAME="??0NavMesh@cocos2d@@QAE@ABV01@@Z" PURGE="4" COMMENT="" />
    <EXPORT ORDINAL="605" NAME="??0NavMesh@cocos2d@@QAE@XZ" PURGE="0" COMMENT="" />
    <EXPORT ORDINAL="606" NAME="??0NavMeshAgent@cocos2d@@QAE@ABV01@@Z" PURGE="4" COMMENT="" />
    <EXPORT ORDINAL="607" NAME="??0NavMeshAgent@cocos2d@@QAE@XZ" PURGE="0" COMMENT="" />
    <EXPORT ORDINAL="608" NAME="??0NavMeshAgentParam@cocos2d@@QAE@XZ" PURGE="0" COMMENT="" />
    <EXPORT ORDINAL="609" NAME="??0NavMeshObstacle@cocos2d@@QAE@ABV01@@Z" PURGE="4" COMMENT="" />
    <EXPORT ORDINAL="610" NAME="??0NavMeshObstacle@cocos2d@@QAE@XZ" PURGE="0" COMMENT="" />
    <EXPORT ORDINAL="611" NAME="??0NinePatchImageParser@cocos2d@@QAE@ABV01@@Z" PURGE="4" COMMENT="" />
    <EXPORT ORDINAL="612" NAME="??0NinePatchImageParser@cocos2d@@QAE@PAVImage@1@@Z" PURGE="4" COMMENT="" />
    <EXPORT ORDINAL="613" NAME="??0NinePatchImageParser@cocos2d@@QAE@PAVImage@1@ABVRect@1@_N@Z" PURGE="12" COMMENT="" />
    <EXPORT ORDINAL="614" NAME="??0NinePatchImageParser@cocos2d@@QAE@XZ" PURGE="0" COMMENT="" />
    <EXPORT ORDINAL="615" NAME="??0Node3DReader@cocostudio@@QAE@ABV01@@Z" PURGE="4" COMMENT="" />
    <EXPORT ORDINAL="616" NAME="??0Node3DReader@cocostudio@@QAE@XZ" PURGE="0" COMMENT="" />
    <EXPORT ORDINAL="617" NAME="??0Node@cocos2d@@QAE@XZ" PURGE="0" COMMENT="" />
    <EXPORT ORDINAL="618" NAME="??0NodeGrid@cocos2d@@QAE@XZ" PURGE="0" COMMENT="" />
    <EXPORT ORDINAL="619" NAME="??0NodeLoader@cocosbuilder@@QAE@ABV01@@Z" PURGE="4" COMMENT="" />
    <EXPORT ORDINAL="620" NAME="??0NodeLoader@cocosbuilder@@QAE@XZ" PURGE="0" COMMENT="" />
    <EXPORT ORDINAL="621" NAME="??0NodeLoaderLibrary@cocosbuilder@@QAE@ABV01@@Z" PURGE="4" COMMENT="" />
    <EXPORT ORDINAL="622" NAME="??0NodeLoaderLibrary@cocosbuilder@@QAE@XZ" PURGE="0" COMMENT="" />
    <EXPORT ORDINAL="623" NAME="??0NodeLoaderListener@cocosbuilder@@QAE@ABV01@@Z" PURGE="4" COMMENT="" />
    <EXPORT ORDINAL="624" NAME="??0NodeLoaderListener@cocosbuilder@@QAE@XZ" PURGE="0" COMMENT="" />
    <EXPORT ORDINAL="625" NAME="??0NodeReader@cocostudio@@QAE@ABV01@@Z" PURGE="4" COMMENT="" />
    <EXPORT ORDINAL="626" NAME="??0NodeReader@cocostudio@@QAE@XZ" PURGE="0" COMMENT="" />
    <EXPORT ORDINAL="627" NAME="??0NodeReaderProtocol@cocostudio@@QAE@ABV01@@Z" PURGE="4" COMMENT="" />
    <EXPORT ORDINAL="628" NAME="??0NodeReaderProtocol@cocostudio@@QAE@XZ" PURGE="0" COMMENT="" />
    <EXPORT ORDINAL="629" NAME="??0NotificationObserver@cocos2d@@QAE@ABV01@@Z" PURGE="4" COMMENT="" />
    <EXPORT ORDINAL="630" NAME="??0NotificationObserver@cocos2d@@QAE@PAVRef@1@P821@AEX0@ZABV?$basic_string@DU?$char_traits@D@std@@V?$allocator@D@2@@std@@0@Z" PURGE="16" COMMENT="" />
    <EXPORT ORDINAL="631" NAME="??0OBB@cocos2d@@QAE@$$QAV01@@Z" PURGE="4" COMMENT="" />
    <EXPORT ORDINAL="632" NAME="??0OBB@cocos2d@@QAE@ABV01@@Z" PURGE="4" COMMENT="" />
    <EXPORT ORDINAL="633" NAME="??0OBB@cocos2d@@QAE@ABVAABB@1@@Z" PURGE="4" COMMENT="" />
    <EXPORT ORDINAL="634" NAME="??0OBB@cocos2d@@QAE@PBVVec3@1@H@Z" PURGE="8" COMMENT="" />
    <EXPORT ORDINAL="635" NAME="??0OBB@cocos2d@@QAE@XZ" PURGE="0" COMMENT="" />
    <EXPORT ORDINAL="636" NAME="??0ObjectFactory@cocos2d@@IAE@XZ" PURGE="0" COMMENT="" />
    <EXPORT ORDINAL="637" NAME="??0ObjectFactory@cocos2d@@QAE@ABV01@@Z" PURGE="4" COMMENT="" />
    <EXPORT ORDINAL="638" NAME="??0OffMeshLinkData@cocos2d@@QAE@$$QAU01@@Z" PURGE="4" COMMENT="" />
    <EXPORT ORDINAL="639" NAME="??0OffMeshLinkData@cocos2d@@QAE@ABU01@@Z" PURGE="4" COMMENT="" />
    <EXPORT ORDINAL="640" NAME="??0OffMeshLinkData@cocos2d@@QAE@XZ" PURGE="0" COMMENT="" />
    <EXPORT ORDINAL="641" NAME="??0OrbitCamera@cocos2d@@QAE@XZ" PURGE="0" COMMENT="" />
    <EXPORT ORDINAL="642" NAME="??0PUAbstractNode@cocos2d@@QAE@ABV01@@Z" PURGE="4" COMMENT="" />
    <EXPORT ORDINAL="643" NAME="??0PUAbstractNode@cocos2d@@QAE@PAV01@@Z" PURGE="4" COMMENT="" />
    <EXPORT ORDINAL="644" NAME="??0PUAffector@cocos2d@@QAE@ABV01@@Z" PURGE="4" COMMENT="" />
    <EXPORT ORDINAL="645" NAME="??0PUAffector@cocos2d@@QAE@XZ" PURGE="0" COMMENT="" />
    <EXPORT ORDINAL="646" NAME="??0PUAlignAffector@cocos2d@@QAE@ABV01@@Z" PURGE="4" COMMENT="" />
    <EXPORT ORDINAL="647" NAME="??0PUAlignAffector@cocos2d@@QAE@XZ" PURGE="0" COMMENT="" />
    <EXPORT ORDINAL="648" NAME="??0PUAtomAbstractNode@cocos2d@@QAE@$$QAV01@@Z" PURGE="4" COMMENT="" />
    <EXPORT ORDINAL="649" NAME="??0PUAtomAbstractNode@cocos2d@@QAE@ABV01@@Z" PURGE="4" COMMENT="" />
    <EXPORT ORDINAL="650" NAME="??0PUAtomAbstractNode@cocos2d@@QAE@PAVPUAbstractNode@1@@Z" PURGE="4" COMMENT="" />
    <EXPORT ORDINAL="651" NAME="??0PUBaseCollider@cocos2d@@QAE@ABV01@@Z" PURGE="4" COMMENT="" />
    <EXPORT ORDINAL="652" NAME="??0PUBaseCollider@cocos2d@@QAE@XZ" PURGE="0" COMMENT="" />
    <EXPORT ORDINAL="653" NAME="??0PUBaseForceAffector@cocos2d@@QAE@ABV01@@Z" PURGE="4" COMMENT="" />
    <EXPORT ORDINAL="654" NAME="??0PUBaseForceAffector@cocos2d@@QAE@XZ" PURGE="0" COMMENT="" />
    <EXPORT ORDINAL="655" NAME="??0PUBeamRender@cocos2d@@QAE@ABV01@@Z" PURGE="4" COMMENT="" />
    <EXPORT ORDINAL="656" NAME="??0PUBeamRender@cocos2d@@QAE@XZ" PURGE="0" COMMENT="" />
    <EXPORT ORDINAL="657" NAME="??0PUBehaviour@cocos2d@@QAE@ABV01@@Z" PURGE="4" COMMENT="" />
    <EXPORT ORDINAL="658" NAME="??0PUBehaviour@cocos2d@@QAE@XZ" PURGE="0" COMMENT="" />
    <EXPORT ORDINAL="659" NAME="??0PUBoxCollider@cocos2d@@QAE@ABV01@@Z" PURGE="4" COMMENT="" />
    <EXPORT ORDINAL="660" NAME="??0PUBoxCollider@cocos2d@@QAE@XZ" PURGE="0" COMMENT="" />
    <EXPORT ORDINAL="661" NAME="??0PUCircleEmitter@cocos2d@@QAE@ABV01@@Z" PURGE="4" COMMENT="" />
    <EXPORT ORDINAL="662" NAME="??0PUCircleEmitter@cocos2d@@QAE@XZ" PURGE="0" COMMENT="" />
    <EXPORT ORDINAL="663" NAME="??0PUCollisionAvoidanceAffector@cocos2d@@QAE@ABV01@@Z" PURGE="4" COMMENT="" />
    <EXPORT ORDINAL="664" NAME="??0PUCollisionAvoidanceAffector@cocos2d@@QAE@XZ" PURGE="0" COMMENT="" />
    <EXPORT ORDINAL="665" NAME="??0PUColorAffector@cocos2d@@QAE@ABV01@@Z" PURGE="4" COMMENT="" />
    <EXPORT ORDINAL="666" NAME="??0PUColorAffector@cocos2d@@QAE@XZ" PURGE="0" COMMENT="" />
    <EXPORT ORDINAL="667" NAME="??0PUDoAffectorEventHandler@cocos2d@@QAE@ABV01@@Z" PURGE="4" COMMENT="" />
    <EXPORT ORDINAL="668" NAME="??0PUDoAffectorEventHandler@cocos2d@@QAE@XZ" PURGE="0" COMMENT="" />
    <EXPORT ORDINAL="669" NAME="??0PUDoEnableComponentEventHandler@cocos2d@@QAE@ABV01@@Z" PURGE="4" COMMENT="" />
    <EXPORT ORDINAL="670" NAME="??0PUDoEnableComponentEventHandler@cocos2d@@QAE@XZ" PURGE="0" COMMENT="" />
    <EXPORT ORDINAL="671" NAME="??0PUDoExpireEventHandler@cocos2d@@QAE@ABV01@@Z" PURGE="4" COMMENT="" />
    <EXPORT ORDINAL="672" NAME="??0PUDoExpireEventHandler@cocos2d@@QAE@XZ" PURGE="0" COMMENT="" />
    <EXPORT ORDINAL="673" NAME="??0PUDoFreezeEventHandler@cocos2d@@QAE@ABV01@@Z" PURGE="4" COMMENT="" />
    <EXPORT ORDINAL="674" NAME="??0PUDoFreezeEventHandler@cocos2d@@QAE@XZ" PURGE="0" COMMENT="" />
    <EXPORT ORDINAL="675" NAME="??0PUDoPlacementParticleEventHandler@cocos2d@@QAE@ABV01@@Z" PURGE="4" COMMENT="" />
    <EXPORT ORDINAL="676" NAME="??0PUDoPlacementParticleEventHandler@cocos2d@@QAE@XZ" PURGE="0" COMMENT="" />
    <EXPORT ORDINAL="677" NAME="??0PUDoScaleEventHandler@cocos2d@@QAE@ABV01@@Z" PURGE="4" COMMENT="" />
    <EXPORT ORDINAL="678" NAME="??0PUDoScaleEventHandler@cocos2d@@QAE@XZ" PURGE="0" COMMENT="" />
    <EXPORT ORDINAL="679" NAME="??0PUDoStopSystemEventHandler@cocos2d@@QAE@ABV01@@Z" PURGE="4" COMMENT="" />
    <EXPORT ORDINAL="680" NAME="??0PUDoStopSystemEventHandler@cocos2d@@QAE@XZ" PURGE="0" COMMENT="" />
    <EXPORT ORDINAL="681" NAME="??0PUDynamicAttribute@cocos2d@@QAE@ABV01@@Z" PURGE="4" COMMENT="" />
    <EXPORT ORDINAL="682" NAME="??0PUDynamicAttribute@cocos2d@@QAE@XZ" PURGE="0" COMMENT="" />
    <EXPORT ORDINAL="683" NAME="??0PUDynamicAttributeCurved@cocos2d@@QAE@ABV01@@Z" PURGE="4" COMMENT="" />
    <EXPORT ORDINAL="684" NAME="??0PUDynamicAttributeCurved@cocos2d@@QAE@W4PUInterpolationType@1@@Z" PURGE="4" COMMENT="" />
    <EXPORT ORDINAL="685" NAME="??0PUDynamicAttributeCurved@cocos2d@@QAE@XZ" PURGE="0" COMMENT="" />
    <EXPORT ORDINAL="686" NAME="??0PUDynamicAttributeFixed@cocos2d@@QAE@ABV01@@Z" PURGE="4" COMMENT="" />
    <EXPORT ORDINAL="687" NAME="??0PUDynamicAttributeFixed@cocos2d@@QAE@XZ" PURGE="0" COMMENT="" />
    <EXPORT ORDINAL="688" NAME="??0PUDynamicAttributeOscillate@cocos2d@@QAE@ABV01@@Z" PURGE="4" COMMENT="" />
    <EXPORT ORDINAL="689" NAME="??0PUDynamicAttributeOscillate@cocos2d@@QAE@XZ" PURGE="0" COMMENT="" />
    <EXPORT ORDINAL="690" NAME="??0PUDynamicAttributeRandom@cocos2d@@QAE@ABV01@@Z" PURGE="4" COMMENT="" />
    <EXPORT ORDINAL="691" NAME="??0PUDynamicAttributeRandom@cocos2d@@QAE@XZ" PURGE="0" COMMENT="" />
    <EXPORT ORDINAL="692" NAME="??0PUEmitter@cocos2d@@QAE@ABV01@@Z" PURGE="4" COMMENT="" />
    <EXPORT ORDINAL="693" NAME="??0PUEmitter@cocos2d@@QAE@XZ" PURGE="0" COMMENT="" />
    <EXPORT ORDINAL="694" NAME="??0PUEventHandler@cocos2d@@QAE@ABV01@@Z" PURGE="4" COMMENT="" />
    <EXPORT ORDINAL="695" NAME="??0PUEventHandler@cocos2d@@QAE@XZ" PURGE="0" COMMENT="" />
    <EXPORT ORDINAL="696" NAME="??0PUFlockCenteringAffector@cocos2d@@QAE@ABV01@@Z" PURGE="4" COMMENT="" />
    <EXPORT ORDINAL="697" NAME="??0PUFlockCenteringAffector@cocos2d@@QAE@XZ" PURGE="0" COMMENT="" />
    <EXPORT ORDINAL="698" NAME="??0PUForceFieldAffector@cocos2d@@QAE@ABV01@@Z" PURGE="4" COMMENT="" />
    <EXPORT ORDINAL="699" NAME="??0PUForceFieldAffector@cocos2d@@QAE@XZ" PURGE="0" COMMENT="" />
    <EXPORT ORDINAL="700" NAME="??0PUGeometryRotator@cocos2d@@QAE@ABV01@@Z" PURGE="4" COMMENT="" />
    <EXPORT ORDINAL="701" NAME="??0PUGeometryRotator@cocos2d@@QAE@XZ" PURGE="0" COMMENT="" />
    <EXPORT ORDINAL="702" NAME="??0PUGravityAffector@cocos2d@@QAE@ABV01@@Z" PURGE="4" COMMENT="" />
    <EXPORT ORDINAL="703" NAME="??0PUGravityAffector@cocos2d@@QAE@XZ" PURGE="0" COMMENT="" />
    <EXPORT ORDINAL="704" NAME="??0PUJetAffector@cocos2d@@QAE@ABV01@@Z" PURGE="4" COMMENT="" />
    <EXPORT ORDINAL="705" NAME="??0PUJetAffector@cocos2d@@QAE@XZ" PURGE="0" COMMENT="" />
    <EXPORT ORDINAL="706" NAME="??0PULineAffector@cocos2d@@QAE@ABV01@@Z" PURGE="4" COMMENT="" />
    <EXPORT ORDINAL="707" NAME="??0PULineAffector@cocos2d@@QAE@XZ" PURGE="0" COMMENT="" />
    <EXPORT ORDINAL="708" NAME="??0PULineEmitter@cocos2d@@QAE@ABV01@@Z" PURGE="4" COMMENT="" />
    <EXPORT ORDINAL="709" NAME="??0PULineEmitter@cocos2d@@QAE@XZ" PURGE="0" COMMENT="" />
    <EXPORT ORDINAL="710" NAME="??0PULinearForceAffector@cocos2d@@QAE@ABV01@@Z" PURGE="4" COMMENT="" />
    <EXPORT ORDINAL="711" NAME="??0PULinearForceAffector@cocos2d@@QAE@XZ" PURGE="0" COMMENT="" />
    <EXPORT ORDINAL="712" NAME="??0PUListener@cocos2d@@QAE@ABV01@@Z" PURGE="4" COMMENT="" />
    <EXPORT ORDINAL="713" NAME="??0PUListener@cocos2d@@QAE@XZ" PURGE="0" COMMENT="" />
    <EXPORT ORDINAL="714" NAME="??0PUMaterial@cocos2d@@QAE@$$QAV01@@Z" PURGE="4" COMMENT="" />
    <EXPORT ORDINAL="715" NAME="??0PUMaterial@cocos2d@@QAE@ABV01@@Z" PURGE="4" COMMENT="" />
    <EXPORT ORDINAL="716" NAME="??0PUMaterial@cocos2d@@QAE@XZ" PURGE="0" COMMENT="" />
    <EXPORT ORDINAL="717" NAME="??0PUMaterialCache@cocos2d@@QAE@ABV01@@Z" PURGE="4" COMMENT="" />
    <EXPORT ORDINAL="718" NAME="??0PUMaterialCache@cocos2d@@QAE@XZ" PURGE="0" COMMENT="" />
    <EXPORT ORDINAL="719" NAME="??0PUMeshSurfaceEmitter@cocos2d@@QAE@ABV01@@Z" PURGE="4" COMMENT="" />
    <EXPORT ORDINAL="720" NAME="??0PUMeshSurfaceEmitter@cocos2d@@QAE@XZ" PURGE="0" COMMENT="" />
    <EXPORT ORDINAL="721" NAME="??0PUObjectAbstractNode@cocos2d@@QAE@ABV01@@Z" PURGE="4" COMMENT="" />
    <EXPORT ORDINAL="722" NAME="??0PUObjectAbstractNode@cocos2d@@QAE@PAVPUAbstractNode@1@@Z" PURGE="4" COMMENT="" />
    <EXPORT ORDINAL="723" NAME="??0PUObserver@cocos2d@@QAE@ABV01@@Z" PURGE="4" COMMENT="" />
    <EXPORT ORDINAL="724" NAME="??0PUObserver@cocos2d@@QAE@XZ" PURGE="0" COMMENT="" />
    <EXPORT ORDINAL="725" NAME="??0PUOnClearObserver@cocos2d@@QAE@ABV01@@Z" PURGE="4" COMMENT="" />
    <EXPORT ORDINAL="726" NAME="??0PUOnClearObserver@cocos2d@@QAE@XZ" PURGE="0" COMMENT="" />
    <EXPORT ORDINAL="727" NAME="??0PUOnCollisionObserver@cocos2d@@QAE@ABV01@@Z" PURGE="4" COMMENT="" />
    <EXPORT ORDINAL="728" NAME="??0PUOnCollisionObserver@cocos2d@@QAE@XZ" PURGE="0" COMMENT="" />
    <EXPORT ORDINAL="729" NAME="??0PUOnCountObserver@cocos2d@@QAE@ABV01@@Z" PURGE="4" COMMENT="" />
    <EXPORT ORDINAL="730" NAME="??0PUOnCountObserver@cocos2d@@QAE@XZ" PURGE="0" COMMENT="" />
    <EXPORT ORDINAL="731" NAME="??0PUOnEmissionObserver@cocos2d@@QAE@ABV01@@Z" PURGE="4" COMMENT="" />
    <EXPORT ORDINAL="732" NAME="??0PUOnEmissionObserver@cocos2d@@QAE@XZ" PURGE="0" COMMENT="" />
    <EXPORT ORDINAL="733" NAME="??0PUOnEventFlagObserver@cocos2d@@QAE@ABV01@@Z" PURGE="4" COMMENT="" />
    <EXPORT ORDINAL="734" NAME="??0PUOnEventFlagObserver@cocos2d@@QAE@XZ" PURGE="0" COMMENT="" />
    <EXPORT ORDINAL="735" NAME="??0PUOnExpireObserver@cocos2d@@QAE@ABV01@@Z" PURGE="4" COMMENT="" />
    <EXPORT ORDINAL="736" NAME="??0PUOnExpireObserver@cocos2d@@QAE@XZ" PURGE="0" COMMENT="" />
    <EXPORT ORDINAL="737" NAME="??0PUOnPositionObserver@cocos2d@@QAE@ABV01@@Z" PURGE="4" COMMENT="" />
    <EXPORT ORDINAL="738" NAME="??0PUOnPositionObserver@cocos2d@@QAE@XZ" PURGE="0" COMMENT="" />
    <EXPORT ORDINAL="739" NAME="??0PUOnQuotaObserver@cocos2d@@QAE@ABV01@@Z" PURGE="4" COMMENT="" />
    <EXPORT ORDINAL="740" NAME="??0PUOnQuotaObserver@cocos2d@@QAE@XZ" PURGE="0" COMMENT="" />
    <EXPORT ORDINAL="741" NAME="??0PUOnRandomObserver@cocos2d@@QAE@ABV01@@Z" PURGE="4" COMMENT="" />
    <EXPORT ORDINAL="742" NAME="??0PUOnRandomObserver@cocos2d@@QAE@XZ" PURGE="0" COMMENT="" />
    <EXPORT ORDINAL="743" NAME="??0PUOnTimeObserver@cocos2d@@QAE@ABV01@@Z" PURGE="4" COMMENT="" />
    <EXPORT ORDINAL="744" NAME="??0PUOnTimeObserver@cocos2d@@QAE@XZ" PURGE="0" COMMENT="" />
    <EXPORT ORDINAL="745" NAME="??0PUOnVelocityObserver@cocos2d@@QAE@ABV01@@Z" PURGE="4" COMMENT="" />
    <EXPORT ORDINAL="746" NAME="??0PUOnVelocityObserver@cocos2d@@QAE@XZ" PURGE="0" COMMENT="" />
    <EXPORT ORDINAL="747" NAME="??0PUParticle3D@cocos2d@@QAE@ABU01@@Z" PURGE="4" COMMENT="" />
    <EXPORT ORDINAL="748" NAME="??0PUParticle3D@cocos2d@@QAE@XZ" PURGE="0" COMMENT="" />
    <EXPORT ORDINAL="749" NAME="??0PUParticle3DBoxRender@cocos2d@@QAE@ABV01@@Z" PURGE="4" COMMENT="" />
    <EXPORT ORDINAL="750" NAME="??0PUParticle3DBoxRender@cocos2d@@QAE@XZ" PURGE="0" COMMENT="" />
    <EXPORT ORDINAL="751" NAME="??0PUParticle3DEntityRender@cocos2d@@QAE@ABV01@@Z" PURGE="4" COMMENT="" />
    <EXPORT ORDINAL="752" NAME="??0PUParticle3DEntityRender@cocos2d@@QAE@XZ" PURGE="0" COMMENT="" />
    <EXPORT ORDINAL="753" NAME="??0PUParticle3DInterParticleCollider@cocos2d@@QAE@ABV01@@Z" PURGE="4" COMMENT="" />
    <EXPORT ORDINAL="754" NAME="??0PUParticle3DInterParticleCollider@cocos2d@@QAE@XZ" PURGE="0" COMMENT="" />
    <EXPORT ORDINAL="755" NAME="??0PUParticle3DModelRender@cocos2d@@QAE@ABV01@@Z" PURGE="4" COMMENT="" />
    <EXPORT ORDINAL="756" NAME="??0PUParticle3DModelRender@cocos2d@@QAE@XZ" PURGE="0" COMMENT="" />
    <EXPORT ORDINAL="757" NAME="??0PUParticle3DQuadRender@cocos2d@@QAE@ABV01@@Z" PURGE="4" COMMENT="" />
    <EXPORT ORDINAL="758" NAME="??0PUParticle3DQuadRender@cocos2d@@QAE@XZ" PURGE="0" COMMENT="" />
    <EXPORT ORDINAL="759" NAME="??0PUParticleFollower@cocos2d@@QAE@ABV01@@Z" PURGE="4" COMMENT="" />
    <EXPORT ORDINAL="760" NAME="??0PUParticleFollower@cocos2d@@QAE@XZ" PURGE="0" COMMENT="" />
    <EXPORT ORDINAL="761" NAME="??0PUParticleSystem3D@cocos2d@@QAE@XZ" PURGE="0" COMMENT="" />
    <EXPORT ORDINAL="762" NAME="??0PUPathFollower@cocos2d@@QAE@ABV01@@Z" PURGE="4" COMMENT="" />
    <EXPORT ORDINAL="763" NAME="??0PUPathFollower@cocos2d@@QAE@XZ" PURGE="0" COMMENT="" />
    <EXPORT ORDINAL="764" NAME="??0PUPlaneCollider@cocos2d@@QAE@ABV01@@Z" PURGE="4" COMMENT="" />
    <EXPORT ORDINAL="765" NAME="??0PUPlaneCollider@cocos2d@@QAE@XZ" PURGE="0" COMMENT="" />
    <EXPORT ORDINAL="766" NAME="??0PUPointEmitter@cocos2d@@QAE@ABV01@@Z" PURGE="4" COMMENT="" />
    <EXPORT ORDINAL="767" NAME="??0PUPointEmitter@cocos2d@@QAE@XZ" PURGE="0" COMMENT="" />
    <EXPORT ORDINAL="768" NAME="??0PUPositionEmitter@cocos2d@@QAE@ABV01@@Z" PURGE="4" COMMENT="" />
    <EXPORT ORDINAL="769" NAME="??0PUPositionEmitter@cocos2d@@QAE@XZ" PURGE="0" COMMENT="" />
    <EXPORT ORDINAL="770" NAME="??0PUPropertyAbstractNode@cocos2d@@QAE@ABV01@@Z" PURGE="4" COMMENT="" />
    <EXPORT ORDINAL="771" NAME="??0PUPropertyAbstractNode@cocos2d@@QAE@PAVPUAbstractNode@1@@Z" PURGE="4" COMMENT="" />
    <EXPORT ORDINAL="772" NAME="??0PURandomiser@cocos2d@@QAE@ABV01@@Z" PURGE="4" COMMENT="" />
    <EXPORT ORDINAL="773" NAME="??0PURandomiser@cocos2d@@QAE@XZ" PURGE="0" COMMENT="" />
    <EXPORT ORDINAL="774" NAME="??0PURender@cocos2d@@QAE@$$QAV01@@Z" PURGE="4" COMMENT="" />
    <EXPORT ORDINAL="775" NAME="??0PURender@cocos2d@@QAE@ABV01@@Z" PURGE="4" COMMENT="" />
    <EXPORT ORDINAL="776" NAME="??0PURender@cocos2d@@QAE@XZ" PURGE="0" COMMENT="" />
    <EXPORT ORDINAL="777" NAME="??0PURibbonTrailRender@cocos2d@@QAE@ABV01@@Z" PURGE="4" COMMENT="" />
    <EXPORT ORDINAL="778" NAME="??0PURibbonTrailRender@cocos2d@@QAE@XZ" PURGE="0" COMMENT="" />
    <EXPORT ORDINAL="779" NAME="??0PUScaleAffector@cocos2d@@QAE@ABV01@@Z" PURGE="4" COMMENT="" />
    <EXPORT ORDINAL="780" NAME="??0PUScaleAffector@cocos2d@@QAE@XZ" PURGE="0" COMMENT="" />
    <EXPORT ORDINAL="781" NAME="??0PUScaleVelocityAffector@cocos2d@@QAE@ABV01@@Z" PURGE="4" COMMENT="" />
    <EXPORT ORDINAL="782" NAME="??0PUScaleVelocityAffector@cocos2d@@QAE@XZ" PURGE="0" COMMENT="" />
    <EXPORT ORDINAL="783" NAME="??0PUScriptCompiler@cocos2d@@AAE@XZ" PURGE="0" COMMENT="" />
    <EXPORT ORDINAL="784" NAME="??0PUScriptCompiler@cocos2d@@QAE@ABV01@@Z" PURGE="4" COMMENT="" />
    <EXPORT ORDINAL="785" NAME="??0PUSineForceAffector@cocos2d@@QAE@ABV01@@Z" PURGE="4" COMMENT="" />
    <EXPORT ORDINAL="786" NAME="??0PUSineForceAffector@cocos2d@@QAE@XZ" PURGE="0" COMMENT="" />
    <EXPORT ORDINAL="787" NAME="??0PUSlaveBehaviour@cocos2d@@QAE@ABV01@@Z" PURGE="4" COMMENT="" />
    <EXPORT ORDINAL="788" NAME="??0PUSlaveBehaviour@cocos2d@@QAE@XZ" PURGE="0" COMMENT="" />
    <EXPORT ORDINAL="789" NAME="??0PUSlaveEmitter@cocos2d@@QAE@ABV01@@Z" PURGE="4" COMMENT="" />
    <EXPORT ORDINAL="790" NAME="??0PUSlaveEmitter@cocos2d@@QAE@XZ" PURGE="0" COMMENT="" />
    <EXPORT ORDINAL="791" NAME="??0PUSphereCollider@cocos2d@@QAE@ABV01@@Z" PURGE="4" COMMENT="" />
    <EXPORT ORDINAL="792" NAME="??0PUSphereCollider@cocos2d@@QAE@XZ" PURGE="0" COMMENT="" />
    <EXPORT ORDINAL="793" NAME="??0PUSphereRender@cocos2d@@QAE@ABV01@@Z" PURGE="4" COMMENT="" />
    <EXPORT ORDINAL="794" NAME="??0PUSphereRender@cocos2d@@QAE@XZ" PURGE="0" COMMENT="" />
    <EXPORT ORDINAL="795" NAME="??0PUSphereSurfaceEmitter@cocos2d@@QAE@ABV01@@Z" PURGE="4" COMMENT="" />
    <EXPORT ORDINAL="796" NAME="??0PUSphereSurfaceEmitter@cocos2d@@QAE@XZ" PURGE="0" COMMENT="" />
    <EXPORT ORDINAL="797" NAME="??0PUTextureAnimator@cocos2d@@QAE@ABV01@@Z" PURGE="4" COMMENT="" />
    <EXPORT ORDINAL="798" NAME="??0PUTextureAnimator@cocos2d@@QAE@XZ" PURGE="0" COMMENT="" />
    <EXPORT ORDINAL="799" NAME="??0PUTextureRotator@cocos2d@@QAE@ABV01@@Z" PURGE="4" COMMENT="" />
    <EXPORT ORDINAL="800" NAME="??0PUTextureRotator@cocos2d@@QAE@XZ" PURGE="0" COMMENT="" />
    <EXPORT ORDINAL="801" NAME="??0PUVelocityMatchingAffector@cocos2d@@QAE@ABV01@@Z" PURGE="4" COMMENT="" />
    <EXPORT ORDINAL="802" NAME="??0PUVelocityMatchingAffector@cocos2d@@QAE@XZ" PURGE="0" COMMENT="" />
    <EXPORT ORDINAL="803" NAME="??0PUVortexAffector@cocos2d@@QAE@ABV01@@Z" PURGE="4" COMMENT="" />
    <EXPORT ORDINAL="804" NAME="??0PUVortexAffector@cocos2d@@QAE@XZ" PURGE="0" COMMENT="" />
    <EXPORT ORDINAL="805" NAME="??0PageTurn3D@cocos2d@@QAE@XZ" PURGE="0" COMMENT="" />
    <EXPORT ORDINAL="806" NAME="??0PageView@ui@cocos2d@@QAE@XZ" PURGE="0" COMMENT="" />
    <EXPORT ORDINAL="807" NAME="??0PageViewReader@cocostudio@@QAE@ABV01@@Z" PURGE="4" COMMENT="" />
    <EXPORT ORDINAL="808" NAME="??0PageViewReader@cocostudio@@QAE@XZ" PURGE="0" COMMENT="" />
    <EXPORT ORDINAL="809" NAME="??0ParallaxNode@cocos2d@@QAE@XZ" PURGE="0" COMMENT="" />
    <EXPORT ORDINAL="810" NAME="??0Particle3D@cocos2d@@QAE@ABU01@@Z" PURGE="4" COMMENT="" />
    <EXPORT ORDINAL="811" NAME="??0Particle3D@cocos2d@@QAE@XZ" PURGE="0" COMMENT="" />
    <EXPORT ORDINAL="812" NAME="??0Particle3DAffector@cocos2d@@QAE@ABV01@@Z" PURGE="4" COMMENT="" />
    <EXPORT ORDINAL="813" NAME="??0Particle3DAffector@cocos2d@@QAE@XZ" PURGE="0" COMMENT="" />
    <EXPORT ORDINAL="814" NAME="??0Particle3DEmitter@cocos2d@@QAE@ABV01@@Z" PURGE="4" COMMENT="" />
    <EXPORT ORDINAL="815" NAME="??0Particle3DEmitter@cocos2d@@QAE@XZ" PURGE="0" COMMENT="" />
    <EXPORT ORDINAL="816" NAME="??0Particle3DModelRender@cocos2d@@QAE@ABV01@@Z" PURGE="4" COMMENT="" />
    <EXPORT ORDINAL="817" NAME="??0Particle3DModelRender@cocos2d@@QAE@XZ" PURGE="0" COMMENT="" />
    <EXPORT ORDINAL="818" NAME="??0Particle3DQuadRender@cocos2d@@QAE@ABV01@@Z" PURGE="4" COMMENT="" />
    <EXPORT ORDINAL="819" NAME="??0Particle3DQuadRender@cocos2d@@QAE@XZ" PURGE="0" COMMENT="" />
    <EXPORT ORDINAL="820" NAME="??0Particle3DReader@cocostudio@@QAE@ABV01@@Z" PURGE="4" COMMENT="" />
    <EXPORT ORDINAL="821" NAME="??0Particle3DReader@cocostudio@@QAE@XZ" PURGE="0" COMMENT="" />
    <EXPORT ORDINAL="822" NAME="??0Particle3DRender@cocos2d@@QAE@ABV01@@Z" PURGE="4" COMMENT="" />
    <EXPORT ORDINAL="823" NAME="??0Particle3DRender@cocos2d@@QAE@XZ" PURGE="0" COMMENT="" />
    <EXPORT ORDINAL="824" NAME="??0ParticleBatchNode@cocos2d@@QAE@XZ" PURGE="0" COMMENT="" />
    <EXPORT ORDINAL="825" NAME="??0ParticleData@cocos2d@@QAE@XZ" PURGE="0" COMMENT="" />
    <EXPORT ORDINAL="826" NAME="??0ParticleDisplayData@cocostudio@@QAE@ABV01@@Z" PURGE="4" COMMENT="" />
    <EXPORT ORDINAL="827" NAME="??0ParticleDisplayData@cocostudio@@QAE@XZ" PURGE="0" COMMENT="" />
    <EXPORT ORDINAL="828" NAME="??0ParticleExplosion@cocos2d@@QAE@XZ" PURGE="0" COMMENT="" />
    <EXPORT ORDINAL="829" NAME="??0ParticleFire@cocos2d@@QAE@XZ" PURGE="0" COMMENT="" />
    <EXPORT ORDINAL="830" NAME="??0ParticleFireworks@cocos2d@@QAE@XZ" PURGE="0" COMMENT="" />
    <EXPORT ORDINAL="831" NAME="??0ParticleFlower@cocos2d@@QAE@XZ" PURGE="0" COMMENT="" />
    <EXPORT ORDINAL="832" NAME="??0ParticleGalaxy@cocos2d@@QAE@XZ" PURGE="0" COMMENT="" />
    <EXPORT ORDINAL="833" NAME="??0ParticleMeteor@cocos2d@@QAE@XZ" PURGE="0" COMMENT="" />
    <EXPORT ORDINAL="834" NAME="??0ParticleRain@cocos2d@@QAE@XZ" PURGE="0" COMMENT="" />
    <EXPORT ORDINAL="835" NAME="??0ParticleReader@cocostudio@@QAE@ABV01@@Z" PURGE="4" COMMENT="" />
    <EXPORT ORDINAL="836" NAME="??0ParticleReader@cocostudio@@QAE@XZ" PURGE="0" COMMENT="" />
    <EXPORT ORDINAL="837" NAME="??0ParticleSmoke@cocos2d@@QAE@XZ" PURGE="0" COMMENT="" />
    <EXPORT ORDINAL="838" NAME="??0ParticleSnow@cocos2d@@QAE@XZ" PURGE="0" COMMENT="" />
    <EXPORT ORDINAL="839" NAME="??0ParticleSpiral@cocos2d@@QAE@XZ" PURGE="0" COMMENT="" />
    <EXPORT ORDINAL="840" NAME="??0ParticleSun@cocos2d@@QAE@XZ" PURGE="0" COMMENT="" />
    <EXPORT ORDINAL="841" NAME="??0ParticleSystem3D@cocos2d@@QAE@XZ" PURGE="0" COMMENT="" />
    <EXPORT ORDINAL="842" NAME="??0ParticleSystem@cocos2d@@QAE@XZ" PURGE="0" COMMENT="" />
    <EXPORT ORDINAL="843" NAME="??0ParticleSystemQuad@cocos2d@@QAE@XZ" PURGE="0" COMMENT="" />
    <EXPORT ORDINAL="844" NAME="??0ParticleSystemQuadLoader@cocosbuilder@@QAE@ABV01@@Z" PURGE="4" COMMENT="" />
    <EXPORT ORDINAL="845" NAME="??0ParticleSystemQuadLoader@cocosbuilder@@QAE@XZ" PURGE="0" COMMENT="" />
    <EXPORT ORDINAL="846" NAME="??0Pass@cocos2d@@IAE@XZ" PURGE="0" COMMENT="" />
    <EXPORT ORDINAL="847" NAME="??0Pass@cocos2d@@QAE@ABV01@@Z" PURGE="4" COMMENT="" />
    <EXPORT ORDINAL="848" NAME="??0Physics3D6DofConstraint@cocos2d@@QAE@ABV01@@Z" PURGE="4" COMMENT="" />
    <EXPORT ORDINAL="849" NAME="??0Physics3D6DofConstraint@cocos2d@@QAE@XZ" PURGE="0" COMMENT="" />
    <EXPORT ORDINAL="850" NAME="??0Physics3DCollider@cocos2d@@QAE@ABV01@@Z" PURGE="4" COMMENT="" />
    <EXPORT ORDINAL="851" NAME="??0Physics3DCollider@cocos2d@@QAE@XZ" PURGE="0" COMMENT="" />
    <EXPORT ORDINAL="852" NAME="??0Physics3DColliderDes@cocos2d@@QAE@$$QAU01@@Z" PURGE="4" COMMENT="" />
    <EXPORT ORDINAL="853" NAME="??0Physics3DColliderDes@cocos2d@@QAE@ABU01@@Z" PURGE="4" COMMENT="" />
    <EXPORT ORDINAL="854" NAME="??0Physics3DColliderDes@cocos2d@@QAE@XZ" PURGE="0" COMMENT="" />
    <EXPORT ORDINAL="855" NAME="??0Physics3DCollisionInfo@cocos2d@@QAE@$$QAU01@@Z" PURGE="4" COMMENT="" />
    <EXPORT ORDINAL="856" NAME="??0Physics3DCollisionInfo@cocos2d@@QAE@ABU01@@Z" PURGE="4" COMMENT="" />
    <EXPORT ORDINAL="857" NAME="??0Physics3DCollisionInfo@cocos2d@@QAE@XZ" PURGE="0" COMMENT="" />
    <EXPORT ORDINAL="858" NAME="??0Physics3DComponent@cocos2d@@QAE@ABV01@@Z" PURGE="4" COMMENT="" />
    <EXPORT ORDINAL="859" NAME="??0Physics3DComponent@cocos2d@@QAE@XZ" PURGE="0" COMMENT="" />
    <EXPORT ORDINAL="860" NAME="??0Physics3DConeTwistConstraint@cocos2d@@QAE@ABV01@@Z" PURGE="4" COMMENT="" />
    <EXPORT ORDINAL="861" NAME="??0Physics3DConeTwistConstraint@cocos2d@@QAE@XZ" PURGE="0" COMMENT="" />
    <EXPORT ORDINAL="862" NAME="??0Physics3DConstraint@cocos2d@@IAE@XZ" PURGE="0" COMMENT="" />
    <EXPORT ORDINAL="863" NAME="??0Physics3DConstraint@cocos2d@@QAE@ABV01@@Z" PURGE="4" COMMENT="" />
    <EXPORT ORDINAL="864" NAME="??0Physics3DHingeConstraint@cocos2d@@QAE@ABV01@@Z" PURGE="4" COMMENT="" />
    <EXPORT ORDINAL="865" NAME="??0Physics3DHingeConstraint@cocos2d@@QAE@XZ" PURGE="0" COMMENT="" />
    <EXPORT ORDINAL="866" NAME="??0Physics3DObject@cocos2d@@QAE@ABV01@@Z" PURGE="4" COMMENT="" />
    <EXPORT ORDINAL="867" NAME="??0Physics3DObject@cocos2d@@QAE@XZ" PURGE="0" COMMENT="" />
    <EXPORT ORDINAL="868" NAME="??0Physics3DPointToPointConstraint@cocos2d@@QAE@ABV01@@Z" PURGE="4" COMMENT="" />
    <EXPORT ORDINAL="869" NAME="??0Physics3DPointToPointConstraint@cocos2d@@QAE@XZ" PURGE="0" COMMENT="" />
    <EXPORT ORDINAL="870" NAME="??0Physics3DRigidBody@cocos2d@@QAE@ABV01@@Z" PURGE="4" COMMENT="" />
    <EXPORT ORDINAL="871" NAME="??0Physics3DRigidBody@cocos2d@@QAE@XZ" PURGE="0" COMMENT="" />
    <EXPORT ORDINAL="872" NAME="??0Physics3DRigidBodyDes@cocos2d@@QAE@$$QAU01@@Z" PURGE="4" COMMENT="" />
    <EXPORT ORDINAL="873" NAME="??0Physics3DRigidBodyDes@cocos2d@@QAE@ABU01@@Z" PURGE="4" COMMENT="" />
    <EXPORT ORDINAL="874" NAME="??0Physics3DRigidBodyDes@cocos2d@@QAE@XZ" PURGE="0" COMMENT="" />
    <EXPORT ORDINAL="875" NAME="??0Physics3DShape@cocos2d@@QAE@ABV01@@Z" PURGE="4" COMMENT="" />
    <EXPORT ORDINAL="876" NAME="??0Physics3DShape@cocos2d@@QAE@XZ" PURGE="0" COMMENT="" />
    <EXPORT ORDINAL="877" NAME="??0Physics3DSliderConstraint@cocos2d@@QAE@ABV01@@Z" PURGE="4" COMMENT="" />
    <EXPORT ORDINAL="878" NAME="??0Physics3DSliderConstraint@cocos2d@@QAE@XZ" PURGE="0" COMMENT="" />
    <EXPORT ORDINAL="879" NAME="??0Physics3DWorld@cocos2d@@QAE@ABV01@@Z" PURGE="4" COMMENT="" />
    <EXPORT ORDINAL="880" NAME="??0Physics3DWorld@cocos2d@@QAE@XZ" PURGE="0" COMMENT="" />
    <EXPORT ORDINAL="881" NAME="??0Physics3DWorldDes@cocos2d@@QAE@$$QAU01@@Z" PURGE="4" COMMENT="" />
    <EXPORT ORDINAL="882" NAME="??0Physics3DWorldDes@cocos2d@@QAE@ABU01@@Z" PURGE="4" COMMENT="" />
    <EXPORT ORDINAL="883" NAME="??0Physics3DWorldDes@cocos2d@@QAE@XZ" PURGE="0" COMMENT="" />
    <EXPORT ORDINAL="884" NAME="??0PhysicsBody@cocos2d@@IAE@XZ" PURGE="0" COMMENT="" />
    <EXPORT ORDINAL="885" NAME="??0PhysicsBody@cocos2d@@QAE@ABV01@@Z" PURGE="4" COMMENT="" />
    <EXPORT ORDINAL="886" NAME="??0PhysicsContact@cocos2d@@AAE@XZ" PURGE="0" COMMENT="" />
    <EXPORT ORDINAL="887" NAME="??0PhysicsContact@cocos2d@@QAE@ABV01@@Z" PURGE="4" COMMENT="" />
    <EXPORT ORDINAL="888" NAME="??0PhysicsContactData@cocos2d@@QAE@$$QAU01@@Z" PURGE="4" COMMENT="" />
    <EXPORT ORDINAL="889" NAME="??0PhysicsContactData@cocos2d@@QAE@ABU01@@Z" PURGE="4" COMMENT="" />
    <EXPORT ORDINAL="890" NAME="??0PhysicsContactData@cocos2d@@QAE@XZ" PURGE="0" COMMENT="" />
    <EXPORT ORDINAL="891" NAME="??0PhysicsContactPostSolve@cocos2d@@AAE@PAX@Z" PURGE="4" COMMENT="" />
    <EXPORT ORDINAL="892" NAME="??0PhysicsContactPreSolve@cocos2d@@AAE@PAX@Z" PURGE="4" COMMENT="" />
    <EXPORT ORDINAL="893" NAME="??0PhysicsDebugNode@extension@cocos2d@@QAE@XZ" PURGE="0" COMMENT="" />
    <EXPORT ORDINAL="894" NAME="??0PhysicsJoint@cocos2d@@IAE@XZ" PURGE="0" COMMENT="" />
    <EXPORT ORDINAL="895" NAME="??0PhysicsJoint@cocos2d@@QAE@ABV01@@Z" PURGE="4" COMMENT="" />
    <EXPORT ORDINAL="896" NAME="??0PhysicsJointDistance@cocos2d@@IAE@XZ" PURGE="0" COMMENT="" />
    <EXPORT ORDINAL="897" NAME="??0PhysicsJointDistance@cocos2d@@QAE@ABV01@@Z" PURGE="4" COMMENT="" />
    <EXPORT ORDINAL="898" NAME="??0PhysicsJointFixed@cocos2d@@IAE@XZ" PURGE="0" COMMENT="" />
    <EXPORT ORDINAL="899" NAME="??0PhysicsJointFixed@cocos2d@@QAE@ABV01@@Z" PURGE="4" COMMENT="" />
    <EXPORT ORDINAL="900" NAME="??0PhysicsJointGear@cocos2d@@IAE@XZ" PURGE="0" COMMENT="" />
    <EXPORT ORDINAL="901" NAME="??0PhysicsJointGear@cocos2d@@QAE@ABV01@@Z" PURGE="4" COMMENT="" />
    <EXPORT ORDINAL="902" NAME="??0PhysicsJointGroove@cocos2d@@IAE@XZ" PURGE="0" COMMENT="" />
    <EXPORT ORDINAL="903" NAME="??0PhysicsJointGroove@cocos2d@@QAE@ABV01@@Z" PURGE="4" COMMENT="" />
    <EXPORT ORDINAL="904" NAME="??0PhysicsJointLimit@cocos2d@@IAE@XZ" PURGE="0" COMMENT="" />
    <EXPORT ORDINAL="905" NAME="??0PhysicsJointLimit@cocos2d@@QAE@ABV01@@Z" PURGE="4" COMMENT="" />
    <EXPORT ORDINAL="906" NAME="??0PhysicsJointMotor@cocos2d@@IAE@XZ" PURGE="0" COMMENT="" />
    <EXPORT ORDINAL="907" NAME="??0PhysicsJointMotor@cocos2d@@QAE@ABV01@@Z" PURGE="4" COMMENT="" />
    <EXPORT ORDINAL="908" NAME="??0PhysicsJointPin@cocos2d@@IAE@XZ" PURGE="0" COMMENT="" />
    <EXPORT ORDINAL="909" NAME="??0PhysicsJointPin@cocos2d@@QAE@ABV01@@Z" PURGE="4" COMMENT="" />
    <EXPORT ORDINAL="910" NAME="??0PhysicsJointRatchet@cocos2d@@IAE@XZ" PURGE="0" COMMENT="" />
    <EXPORT ORDINAL="911" NAME="??0PhysicsJointRatchet@cocos2d@@QAE@ABV01@@Z" PURGE="4" COMMENT="" />
    <EXPORT ORDINAL="912" NAME="??0PhysicsJointRotaryLimit@cocos2d@@IAE@XZ" PURGE="0" COMMENT="" />
    <EXPORT ORDINAL="913" NAME="??0PhysicsJointRotaryLimit@cocos2d@@QAE@ABV01@@Z" PURGE="4" COMMENT="" />
    <EXPORT ORDINAL="914" NAME="??0PhysicsJointRotarySpring@cocos2d@@IAE@XZ" PURGE="0" COMMENT="" />
    <EXPORT ORDINAL="915" NAME="??0PhysicsJointRotarySpring@cocos2d@@QAE@ABV01@@Z" PURGE="4" COMMENT="" />
    <EXPORT ORDINAL="916" NAME="??0PhysicsJointSpring@cocos2d@@IAE@XZ" PURGE="0" COMMENT="" />
    <EXPORT ORDINAL="917" NAME="??0PhysicsJointSpring@cocos2d@@QAE@ABV01@@Z" PURGE="4" COMMENT="" />
    <EXPORT ORDINAL="918" NAME="??0PhysicsMaterial@cocos2d@@QAE@MMM@Z" PURGE="12" COMMENT="" />
    <EXPORT ORDINAL="919" NAME="??0PhysicsMaterial@cocos2d@@QAE@XZ" PURGE="0" COMMENT="" />
    <EXPORT ORDINAL="920" NAME="??0PhysicsShape@cocos2d@@IAE@XZ" PURGE="0" COMMENT="" />
    <EXPORT ORDINAL="921" NAME="??0PhysicsShape@cocos2d@@QAE@ABV01@@Z" PURGE="4" COMMENT="" />
    <EXPORT ORDINAL="922" NAME="??0PhysicsShapeBox@cocos2d@@IAE@XZ" PURGE="0" COMMENT="" />
    <EXPORT ORDINAL="923" NAME="??0PhysicsShapeBox@cocos2d@@QAE@ABV01@@Z" PURGE="4" COMMENT="" />
    <EXPORT ORDINAL="924" NAME="??0PhysicsShapeCircle@cocos2d@@IAE@XZ" PURGE="0" COMMENT="" />
    <EXPORT ORDINAL="925" NAME="??0PhysicsShapeCircle@cocos2d@@QAE@ABV01@@Z" PURGE="4" COMMENT="" />
    <EXPORT ORDINAL="926" NAME="??0PhysicsShapeEdgeBox@cocos2d@@IAE@XZ" PURGE="0" COMMENT="" />
    <EXPORT ORDINAL="927" NAME="??0PhysicsShapeEdgeBox@cocos2d@@QAE@ABV01@@Z" PURGE="4" COMMENT="" />
    <EXPORT ORDINAL="928" NAME="??0PhysicsShapeEdgeChain@cocos2d@@IAE@XZ" PURGE="0" COMMENT="" />
    <EXPORT ORDINAL="929" NAME="??0PhysicsShapeEdgeChain@cocos2d@@QAE@ABV01@@Z" PURGE="4" COMMENT="" />
    <EXPORT ORDINAL="930" NAME="??0PhysicsShapeEdgePolygon@cocos2d@@IAE@XZ" PURGE="0" COMMENT="" />
    <EXPORT ORDINAL="931" NAME="??0PhysicsShapeEdgePolygon@cocos2d@@QAE@ABV01@@Z" PURGE="4" COMMENT="" />
    <EXPORT ORDINAL="932" NAME="??0PhysicsShapeEdgeSegment@cocos2d@@IAE@XZ" PURGE="0" COMMENT="" />
    <EXPORT ORDINAL="933" NAME="??0PhysicsShapeEdgeSegment@cocos2d@@QAE@ABV01@@Z" PURGE="4" COMMENT="" />
    <EXPORT ORDINAL="934" NAME="??0PhysicsShapePolygon@cocos2d@@IAE@XZ" PURGE="0" COMMENT="" />
    <EXPORT ORDINAL="935" NAME="??0PhysicsShapePolygon@cocos2d@@QAE@ABV01@@Z" PURGE="4" COMMENT="" />
    <EXPORT ORDINAL="936" NAME="??0PhysicsSprite3D@cocos2d@@QAE@XZ" PURGE="0" COMMENT="" />
    <EXPORT ORDINAL="937" NAME="??0PhysicsSprite@extension@cocos2d@@QAE@XZ" PURGE="0" COMMENT="" />
    <EXPORT ORDINAL="938" NAME="??0PhysicsWorld@cocos2d@@IAE@XZ" PURGE="0" COMMENT="" />
    <EXPORT ORDINAL="939" NAME="??0PhysicsWorld@cocos2d@@QAE@ABV01@@Z" PURGE="4" COMMENT="" />
    <EXPORT ORDINAL="940" NAME="??0Place@cocos2d@@QAE@XZ" PURGE="0" COMMENT="" />
    <EXPORT ORDINAL="941" NAME="??0Plane@cocos2d@@QAE@$$QAV01@@Z" PURGE="4" COMMENT="" />
    <EXPORT ORDINAL="942" NAME="??0Plane@cocos2d@@QAE@ABV01@@Z" PURGE="4" COMMENT="" />
    <EXPORT ORDINAL="943" NAME="??0Plane@cocos2d@@QAE@ABVVec3@1@00@Z" PURGE="12" COMMENT="" />
    <EXPORT ORDINAL="944" NAME="??0Plane@cocos2d@@QAE@ABVVec3@1@0@Z" PURGE="8" COMMENT="" />
    <EXPORT ORDINAL="945" NAME="??0Plane@cocos2d@@QAE@ABVVec3@1@M@Z" PURGE="8" COMMENT="" />
    <EXPORT ORDINAL="946" NAME="??0Plane@cocos2d@@QAE@XZ" PURGE="0" COMMENT="" />
    <EXPORT ORDINAL="947" NAME="??0PlayableFrame@timeline@cocostudio@@QAE@$$QAV012@@Z" PURGE="4" COMMENT="" />
    <EXPORT ORDINAL="948" NAME="??0PlayableFrame@timeline@cocostudio@@QAE@ABV012@@Z" PURGE="4" COMMENT="" />
    <EXPORT ORDINAL="949" NAME="??0PlayableFrame@timeline@cocostudio@@QAE@XZ" PURGE="0" COMMENT="" />
    <EXPORT ORDINAL="950" NAME="??0PlayableProtocol@cocos2d@@QAE@ABV01@@Z" PURGE="4" COMMENT="" />
    <EXPORT ORDINAL="951" NAME="??0PlayableProtocol@cocos2d@@QAE@XZ" PURGE="0" COMMENT="" />
    <EXPORT ORDINAL="952" NAME="??0PointArray@cocos2d@@QAE@ABV01@@Z" PURGE="4" COMMENT="" />
    <EXPORT ORDINAL="953" NAME="??0PointArray@cocos2d@@QAE@XZ" PURGE="0" COMMENT="" />
    <EXPORT ORDINAL="954" NAME="??0PointLight@cocos2d@@QAE@XZ" PURGE="0" COMMENT="" />
    <EXPORT ORDINAL="955" NAME="??0PointSprite@cocos2d@@QAE@$$QAU01@@Z" PURGE="4" COMMENT="" />
    <EXPORT ORDINAL="956" NAME="??0PointSprite@cocos2d@@QAE@ABU01@@Z" PURGE="4" COMMENT="" />
    <EXPORT ORDINAL="957" NAME="??0PointSprite@cocos2d@@QAE@XZ" PURGE="0" COMMENT="" />
    <EXPORT ORDINAL="958" NAME="??0PolygonInfo@cocos2d@@QAE@ABV01@@Z" PURGE="4" COMMENT="" />
    <EXPORT ORDINAL="959" NAME="??0PolygonInfo@cocos2d@@QAE@XZ" PURGE="0" COMMENT="" />
    <EXPORT ORDINAL="960" NAME="??0PoolManager@cocos2d@@AAE@XZ" PURGE="0" COMMENT="" />
    <EXPORT ORDINAL="961" NAME="??0PoolManager@cocos2d@@QAE@ABV01@@Z" PURGE="4" COMMENT="" />
    <EXPORT ORDINAL="962" NAME="??0PositionFrame@timeline@cocostudio@@QAE@$$QAV012@@Z" PURGE="4" COMMENT="" />
    <EXPORT ORDINAL="963" NAME="??0PositionFrame@timeline@cocostudio@@QAE@ABV012@@Z" PURGE="4" COMMENT="" />
    <EXPORT ORDINAL="964" NAME="??0PositionFrame@timeline@cocostudio@@QAE@XZ" PURGE="0" COMMENT="" />
    <EXPORT ORDINAL="965" NAME="??0PrettyPrinter@cocos2d@@QAE@$$QAV01@@Z" PURGE="4" COMMENT="" />
    <EXPORT ORDINAL="966" NAME="??0PrettyPrinter@cocos2d@@QAE@ABV01@@Z" PURGE="4" COMMENT="" />
    <EXPORT ORDINAL="967" NAME="??0PrettyPrinter@cocos2d@@QAE@H@Z" PURGE="4" COMMENT="" />
    <EXPORT ORDINAL="968" NAME="??0Primitive@cocos2d@@IAE@XZ" PURGE="0" COMMENT="" />
    <EXPORT ORDINAL="969" NAME="??0Primitive@cocos2d@@QAE@ABV01@@Z" PURGE="4" COMMENT="" />
    <EXPORT ORDINAL="970" NAME="??0PrimitiveCommand@cocos2d@@QAE@ABV01@@Z" PURGE="4" COMMENT="" />
    <EXPORT ORDINAL="971" NAME="??0PrimitiveCommand@cocos2d@@QAE@XZ" PURGE="0" COMMENT="" />
    <EXPORT ORDINAL="972" NAME="??0ProcessBase@cocostudio@@QAE@ABV01@@Z" PURGE="4" COMMENT="" />
    <EXPORT ORDINAL="973" NAME="??0ProcessBase@cocostudio@@QAE@XZ" PURGE="0" COMMENT="" />
    <EXPORT ORDINAL="974" NAME="??0Profiler@cocos2d@@QAE@ABV01@@Z" PURGE="4" COMMENT="" />
    <EXPORT ORDINAL="975" NAME="??0Profiler@cocos2d@@QAE@XZ" PURGE="0" COMMENT="" />
    <EXPORT ORDINAL="976" NAME="??0ProgressFromTo@cocos2d@@QAE@XZ" PURGE="0" COMMENT="" />
    <EXPORT ORDINAL="977" NAME="??0ProgressTimer@cocos2d@@QAE@XZ" PURGE="0" COMMENT="" />
    <EXPORT ORDINAL="978" NAME="??0ProgressTo@cocos2d@@QAE@XZ" PURGE="0" COMMENT="" />
    <EXPORT ORDINAL="979" NAME="??0ProjectNodeReader@cocostudio@@QAE@ABV01@@Z" PURGE="4" COMMENT="" />
    <EXPORT ORDINAL="980" NAME="??0ProjectNodeReader@cocostudio@@QAE@XZ" PURGE="0" COMMENT="" />
    <EXPORT ORDINAL="981" NAME="??0Properties@cocos2d@@AAE@ABV01@@Z" PURGE="4" COMMENT="" />
    <EXPORT ORDINAL="982" NAME="??0Properties@cocos2d@@AAE@PAVData@1@PAJ@Z" PURGE="8" COMMENT="" />
    <EXPORT ORDINAL="983" NAME="??0Properties@cocos2d@@AAE@PAVData@1@PAJABV?$basic_string@DU?$char_traits@D@std@@V?$allocator@D@2@@std@@PBD3PAV01@@Z" PURGE="24" COMMENT="" />
    <EXPORT ORDINAL="984" NAME="??0Properties@cocos2d@@AAE@XZ" PURGE="0" COMMENT="" />
    <EXPORT ORDINAL="985" NAME="??0ProtectedNode@cocos2d@@QAE@XZ" PURGE="0" COMMENT="" />
    <EXPORT ORDINAL="986" NAME="??0Quad2@cocos2d@@QAE@$$QAU01@@Z" PURGE="4" COMMENT="" />
    <EXPORT ORDINAL="987" NAME="??0Quad2@cocos2d@@QAE@ABU01@@Z" PURGE="4" COMMENT="" />
    <EXPORT ORDINAL="988" NAME="??0Quad2@cocos2d@@QAE@XZ" PURGE="0" COMMENT="" />
    <EXPORT ORDINAL="989" NAME="??0Quad3@cocos2d@@QAE@$$QAU01@@Z" PURGE="4" COMMENT="" />
    <EXPORT ORDINAL="990" NAME="??0Quad3@cocos2d@@QAE@ABU01@@Z" PURGE="4" COMMENT="" />
    <EXPORT ORDINAL="991" NAME="??0Quad3@cocos2d@@QAE@XZ" PURGE="0" COMMENT="" />
    <EXPORT ORDINAL="992" NAME="??0QuadCommand@cocos2d@@QAE@ABV01@@Z" PURGE="4" COMMENT="" />
    <EXPORT ORDINAL="993" NAME="??0QuadCommand@cocos2d@@QAE@XZ" PURGE="0" COMMENT="" />
    <EXPORT ORDINAL="994" NAME="??0QuadTree@Terrain@cocos2d@@QAE@ABU012@@Z" PURGE="4" COMMENT="" />
    <EXPORT ORDINAL="995" NAME="??0QuadTree@Terrain@cocos2d@@QAE@HHHHPAV12@@Z" PURGE="20" COMMENT="" />
    <EXPORT ORDINAL="996" NAME="??0Quaternion@cocos2d@@QAE@ABV01@@Z" PURGE="4" COMMENT="" />
    <EXPORT ORDINAL="997" NAME="??0Quaternion@cocos2d@@QAE@ABVMat4@1@@Z" PURGE="4" COMMENT="" />
    <EXPORT ORDINAL="998" NAME="??0Quaternion@cocos2d@@QAE@ABVVec3@1@M@Z" PURGE="8" COMMENT="" />
    <EXPORT ORDINAL="999" NAME="??0Quaternion@cocos2d@@QAE@MMMM@Z" PURGE="16" COMMENT="" />
    <EXPORT ORDINAL="1000" NAME="??0Quaternion@cocos2d@@QAE@PAM@Z" PURGE="4" COMMENT="" />
    <EXPORT ORDINAL="1001" NAME="??0Quaternion@cocos2d@@QAE@XZ" PURGE="0" COMMENT="" />
    <EXPORT ORDINAL="1002" NAME="??0RadioButton@ui@cocos2d@@QAE@XZ" PURGE="0" COMMENT="" />
    <EXPORT ORDINAL="1003" NAME="??0RadioButtonGroup@ui@cocos2d@@QAE@XZ" PURGE="0" COMMENT="" />
    <EXPORT ORDINAL="1004" NAME="??0Ray@cocos2d@@QAE@ABV01@@Z" PURGE="4" COMMENT="" />
    <EXPORT ORDINAL="1005" NAME="??0Ray@cocos2d@@QAE@ABVVec3@1@0@Z" PURGE="8" COMMENT="" />
    <EXPORT ORDINAL="1006" NAME="??0Ray@cocos2d@@QAE@XZ" PURGE="0" COMMENT="" />
    <EXPORT ORDINAL="1007" NAME="??0Rect@cocos2d@@QAE@ABV01@@Z" PURGE="4" COMMENT="" />
    <EXPORT ORDINAL="1008" NAME="??0Rect@cocos2d@@QAE@ABVVec2@1@ABVSize@1@@Z" PURGE="8" COMMENT="" />
    <EXPORT ORDINAL="1009" NAME="??0Rect@cocos2d@@QAE@MMMM@Z" PURGE="16" COMMENT="" />
    <EXPORT ORDINAL="1010" NAME="??0Rect@cocos2d@@QAE@XZ" PURGE="0" COMMENT="" />
    <EXPORT ORDINAL="1011" NAME="??0Ref@cocos2d@@IAE@XZ" PURGE="0" COMMENT="" />
    <EXPORT ORDINAL="1012" NAME="??0Ref@cocos2d@@QAE@ABV01@@Z" PURGE="4" COMMENT="" />
    <EXPORT ORDINAL="1013" NAME="??0RelativeBox@ui@cocos2d@@QAE@XZ" PURGE="0" COMMENT="" />
    <EXPORT ORDINAL="1014" NAME="??0RelativeLayoutManager@ui@cocos2d@@AAE@XZ" PURGE="0" COMMENT="" />
    <EXPORT ORDINAL="1015" NAME="??0RelativeLayoutManager@ui@cocos2d@@QAE@ABV012@@Z" PURGE="4" COMMENT="" />
    <EXPORT ORDINAL="1016" NAME="??0RelativeLayoutParameter@ui@cocos2d@@QAE@ABV012@@Z" PURGE="4" COMMENT="" />
    <EXPORT ORDINAL="1017" NAME="??0RelativeLayoutParameter@ui@cocos2d@@QAE@XZ" PURGE="0" COMMENT="" />
    <EXPORT ORDINAL="1018" NAME="??0RemoveSelf@cocos2d@@QAE@XZ" PURGE="0" COMMENT="" />
    <EXPORT ORDINAL="1019" NAME="??0RenderCommand@cocos2d@@IAE@XZ" PURGE="0" COMMENT="" />
    <EXPORT ORDINAL="1020" NAME="??0RenderCommand@cocos2d@@QAE@ABV01@@Z" PURGE="4" COMMENT="" />
    <EXPORT ORDINAL="1021" NAME="??0RenderState@cocos2d@@IAE@XZ" PURGE="0" COMMENT="" />
    <EXPORT ORDINAL="1022" NAME="??0RenderState@cocos2d@@QAE@ABV01@@Z" PURGE="4" COMMENT="" />
    <EXPORT ORDINAL="1023" NAME="??0RenderTarget@experimental@cocos2d@@QAE@ABV012@@Z" PURGE="4" COMMENT="" />
    <EXPORT ORDINAL="1024" NAME="??0RenderTarget@experimental@cocos2d@@QAE@XZ" PURGE="0" COMMENT="" />
    <EXPORT ORDINAL="1025" NAME="??0RenderTargetBase@experimental@cocos2d@@IAE@XZ" PURGE="0" COMMENT="" />
    <EXPORT ORDINAL="1026" NAME="??0RenderTargetBase@experimental@cocos2d@@QAE@ABV012@@Z" PURGE="4" COMMENT="" />
    <EXPORT ORDINAL="1027" NAME="??0RenderTargetDepthStencil@experimental@cocos2d@@QAE@ABV012@@Z" PURGE="4" COMMENT="" />
    <EXPORT ORDINAL="1028" NAME="??0RenderTargetDepthStencil@experimental@cocos2d@@QAE@XZ" PURGE="0" COMMENT="" />
    <EXPORT ORDINAL="1029" NAME="??0RenderTargetRenderBuffer@experimental@cocos2d@@QAE@ABV012@@Z" PURGE="4" COMMENT="" />
    <EXPORT ORDINAL="1030" NAME="??0RenderTargetRenderBuffer@experimental@cocos2d@@QAE@XZ" PURGE="0" COMMENT="" />
    <EXPORT ORDINAL="1031" NAME="??0RenderTexture@cocos2d@@QAE@XZ" PURGE="0" COMMENT="" />
    <EXPORT ORDINAL="1032" NAME="??0Renderer@cocos2d@@QAE@ABV01@@Z" PURGE="4" COMMENT="" />
    <EXPORT ORDINAL="1033" NAME="??0Renderer@cocos2d@@QAE@XZ" PURGE="0" COMMENT="" />
    <EXPORT ORDINAL="1034" NAME="??0Repeat@cocos2d@@QAE@XZ" PURGE="0" COMMENT="" />
    <EXPORT ORDINAL="1035" NAME="??0RepeatForever@cocos2d@@QAE@XZ" PURGE="0" COMMENT="" />
    <EXPORT ORDINAL="1036" NAME="??0ResizeBy@cocos2d@@QAE@XZ" PURGE="0" COMMENT="" />
    <EXPORT ORDINAL="1037" NAME="??0ResizeTo@cocos2d@@QAE@XZ" PURGE="0" COMMENT="" />
    <EXPORT ORDINAL="1038" NAME="??0ResourceData@cocos2d@@QAE@$$QAU01@@Z" PURGE="4" COMMENT="" />
    <EXPORT ORDINAL="1039" NAME="??0ResourceData@cocos2d@@QAE@ABU01@@Z" PURGE="4" COMMENT="" />
    <EXPORT ORDINAL="1040" NAME="??0ResourceData@cocos2d@@QAE@HV?$basic_string@DU?$char_traits@D@std@@V?$allocator@D@2@@std@@0@Z" PURGE="52" COMMENT="" />
    <EXPORT ORDINAL="1041" NAME="??0ResourceData@cocos2d@@QAE@XZ" PURGE="0" COMMENT="" />
    <EXPORT ORDINAL="1042" NAME="??0ReuseGrid@cocos2d@@QAE@XZ" PURGE="0" COMMENT="" />
    <EXPORT ORDINAL="1043" NAME="??0ReverseTime@cocos2d@@QAE@XZ" PURGE="0" COMMENT="" />
    <EXPORT ORDINAL="1044" NAME="??0RichElement@ui@cocos2d@@QAE@ABV012@@Z" PURGE="4" COMMENT="" />
    <EXPORT ORDINAL="1045" NAME="??0RichElement@ui@cocos2d@@QAE@XZ" PURGE="0" COMMENT="" />
    <EXPORT ORDINAL="1046" NAME="??0RichElementCustomNode@ui@cocos2d@@QAE@ABV012@@Z" PURGE="4" COMMENT="" />
    <EXPORT ORDINAL="1047" NAME="??0RichElementCustomNode@ui@cocos2d@@QAE@XZ" PURGE="0" COMMENT="" />
    <EXPORT ORDINAL="1048" NAME="??0RichElementImage@ui@cocos2d@@QAE@ABV012@@Z" PURGE="4" COMMENT="" />
    <EXPORT ORDINAL="1049" NAME="??0RichElementImage@ui@cocos2d@@QAE@XZ" PURGE="0" COMMENT="" />
    <EXPORT ORDINAL="1050" NAME="??0RichElementNewLine@ui@cocos2d@@QAE@ABV012@@Z" PURGE="4" COMMENT="" />
    <EXPORT ORDINAL="1051" NAME="??0RichElementNewLine@ui@cocos2d@@QAE@XZ" PURGE="0" COMMENT="" />
    <EXPORT ORDINAL="1052" NAME="??0RichElementText@ui@cocos2d@@QAE@ABV012@@Z" PURGE="4" COMMENT="" />
    <EXPORT ORDINAL="1053" NAME="??0RichElementText@ui@cocos2d@@QAE@XZ" PURGE="0" COMMENT="" />
    <EXPORT ORDINAL="1054" NAME="??0RichText@ui@cocos2d@@QAE@XZ" PURGE="0" COMMENT="" />
    <EXPORT ORDINAL="1055" NAME="??0Ripple3D@cocos2d@@QAE@XZ" PURGE="0" COMMENT="" />
    <EXPORT ORDINAL="1056" NAME="??0RotateBy@cocos2d@@QAE@XZ" PURGE="0" COMMENT="" />
    <EXPORT ORDINAL="1057" NAME="??0RotateTo@cocos2d@@QAE@XZ" PURGE="0" COMMENT="" />
    <EXPORT ORDINAL="1058" NAME="??0RotationFrame@timeline@cocostudio@@QAE@$$QAV012@@Z" PURGE="4" COMMENT="" />
    <EXPORT ORDINAL="1059" NAME="??0RotationFrame@timeline@cocostudio@@QAE@ABV012@@Z" PURGE="4" COMMENT="" />
    <EXPORT ORDINAL="1060" NAME="??0RotationFrame@timeline@cocostudio@@QAE@XZ" PURGE="0" COMMENT="" />
    <EXPORT ORDINAL="1061" NAME="??0RotationSkewFrame@timeline@cocostudio@@QAE@$$QAV012@@Z" PURGE="4" COMMENT="" />
    <EXPORT ORDINAL="1062" NAME="??0RotationSkewFrame@timeline@cocostudio@@QAE@ABV012@@Z" PURGE="4" COMMENT="" />
    <EXPORT ORDINAL="1063" NAME="??0RotationSkewFrame@timeline@cocostudio@@QAE@XZ" PURGE="0" COMMENT="" />
    <EXPORT ORDINAL="1064" NAME="??0SAXDelegator@cocos2d@@QAE@ABV01@@Z" PURGE="4" COMMENT="" />
    <EXPORT ORDINAL="1065" NAME="??0SAXDelegator@cocos2d@@QAE@XZ" PURGE="0" COMMENT="" />
    <EXPORT ORDINAL="1066" NAME="??0SAXParser@cocos2d@@QAE@XZ" PURGE="0" COMMENT="" />
    <EXPORT ORDINAL="1067" NAME="??0Scale9Sprite@ui@cocos2d@@QAE@XZ" PURGE="0" COMMENT="" />
    <EXPORT ORDINAL="1068" NAME="??0Scale9SpriteLoader@cocosbuilder@@QAE@ABV01@@Z" PURGE="4" COMMENT="" />
    <EXPORT ORDINAL="1069" NAME="??0Scale9SpriteLoader@cocosbuilder@@QAE@XZ" PURGE="0" COMMENT="" />
    <EXPORT ORDINAL="1070" NAME="??0ScaleBy@cocos2d@@QAE@XZ" PURGE="0" COMMENT="" />
    <EXPORT ORDINAL="1071" NAME="??0ScaleFrame@timeline@cocostudio@@QAE@$$QAV012@@Z" PURGE="4" COMMENT="" />
    <EXPORT ORDINAL="1072" NAME="??0ScaleFrame@timeline@cocostudio@@QAE@ABV012@@Z" PURGE="4" COMMENT="" />
    <EXPORT ORDINAL="1073" NAME="??0ScaleFrame@timeline@cocostudio@@QAE@XZ" PURGE="0" COMMENT="" />
    <EXPORT ORDINAL="1074" NAME="??0ScaleTo@cocos2d@@QAE@XZ" PURGE="0" COMMENT="" />
    <EXPORT ORDINAL="1075" NAME="??0Scene@cocos2d@@QAE@XZ" PURGE="0" COMMENT="" />
    <EXPORT ORDINAL="1076" NAME="??0SceneReader@cocostudio@@QAE@ABV01@@Z" PURGE="4" COMMENT="" />
    <EXPORT ORDINAL="1077" NAME="??0SceneReader@cocostudio@@QAE@XZ" PURGE="0" COMMENT="" />
    <EXPORT ORDINAL="1078" NAME="??0Scheduler@cocos2d@@QAE@XZ" PURGE="0" COMMENT="" />
    <EXPORT ORDINAL="1079" NAME="??0ScriptEngineManager@cocos2d@@AAE@XZ" PURGE="0" COMMENT="" />
    <EXPORT ORDINAL="1080" NAME="??0ScriptEngineProtocol@cocos2d@@QAE@ABV01@@Z" PURGE="4" COMMENT="" />
    <EXPORT ORDINAL="1081" NAME="??0ScriptEngineProtocol@cocos2d@@QAE@XZ" PURGE="0" COMMENT="" />
    <EXPORT ORDINAL="1082" NAME="??0ScrollView@extension@cocos2d@@QAE@XZ" PURGE="0" COMMENT="" />
    <EXPORT ORDINAL="1083" NAME="??0ScrollView@ui@cocos2d@@QAE@XZ" PURGE="0" COMMENT="" />
    <EXPORT ORDINAL="1084" NAME="??0ScrollViewBar@ui@cocos2d@@QAE@PAVScrollView@12@W4Direction@312@@Z" PURGE="8" COMMENT="" />
    <EXPORT ORDINAL="1085" NAME="??0ScrollViewDelegate@extension@cocos2d@@QAE@ABV012@@Z" PURGE="4" COMMENT="" />
    <EXPORT ORDINAL="1086" NAME="??0ScrollViewDelegate@extension@cocos2d@@QAE@XZ" PURGE="0" COMMENT="" />
    <EXPORT ORDINAL="1087" NAME="??0ScrollViewLoader@cocosbuilder@@QAE@ABV01@@Z" PURGE="4" COMMENT="" />
    <EXPORT ORDINAL="1088" NAME="??0ScrollViewLoader@cocosbuilder@@QAE@XZ" PURGE="0" COMMENT="" />
    <EXPORT ORDINAL="1089" NAME="??0ScrollViewReader@cocostudio@@QAE@ABV01@@Z" PURGE="4" COMMENT="" />
    <EXPORT ORDINAL="1090" NAME="??0ScrollViewReader@cocostudio@@QAE@XZ" PURGE="0" COMMENT="" />
    <EXPORT ORDINAL="1091" NAME="??0Sequence@cocos2d@@QAE@XZ" PURGE="0" COMMENT="" />
    <EXPORT ORDINAL="1092" NAME="??0SerData@@QAE@XZ" PURGE="0" COMMENT="" />
    <EXPORT ORDINAL="1093" NAME="??0Shaky3D@cocos2d@@QAE@XZ" PURGE="0" COMMENT="" />
    <EXPORT ORDINAL="1094" NAME="??0ShakyTiles3D@cocos2d@@QAE@XZ" PURGE="0" COMMENT="" />
    <EXPORT ORDINAL="1095" NAME="??0ShatteredTiles3D@cocos2d@@QAE@XZ" PURGE="0" COMMENT="" />
    <EXPORT ORDINAL="1096" NAME="??0Show@cocos2d@@QAE@XZ" PURGE="0" COMMENT="" />
    <EXPORT ORDINAL="1097" NAME="??0ShuffleTiles@cocos2d@@QAE@XZ" PURGE="0" COMMENT="" />
    <EXPORT ORDINAL="1098" NAME="??0SimpleAudioEngine@CocosDenshion@@IAE@XZ" PURGE="0" COMMENT="" />
    <EXPORT ORDINAL="1099" NAME="??0SimpleAudioEngine@CocosDenshion@@QAE@ABV01@@Z" PURGE="4" COMMENT="" />
    <EXPORT ORDINAL="1100" NAME="??0SingleNodeReader@cocostudio@@QAE@ABV01@@Z" PURGE="4" COMMENT="" />
    <EXPORT ORDINAL="1101" NAME="??0SingleNodeReader@cocostudio@@QAE@XZ" PURGE="0" COMMENT="" />
    <EXPORT ORDINAL="1102" NAME="??0Size@cocos2d@@QAE@ABV01@@Z" PURGE="4" COMMENT="" />
    <EXPORT ORDINAL="1103" NAME="??0Size@cocos2d@@QAE@ABVVec2@1@@Z" PURGE="4" COMMENT="" />
    <EXPORT ORDINAL="1104" NAME="??0Size@cocos2d@@QAE@MM@Z" PURGE="8" COMMENT="" />
    <EXPORT ORDINAL="1105" NAME="??0Size@cocos2d@@QAE@XZ" PURGE="0" COMMENT="" />
    <EXPORT ORDINAL="1106" NAME="??0Skeleton3D@cocos2d@@QAE@ABV01@@Z" PURGE="4" COMMENT="" />
    <EXPORT ORDINAL="1107" NAME="??0Skeleton3D@cocos2d@@QAE@XZ" PURGE="0" COMMENT="" />
    <EXPORT ORDINAL="1108" NAME="??0SkeletonNode@timeline@cocostudio@@QAE@XZ" PURGE="0" COMMENT="" />
    <EXPORT ORDINAL="1109" NAME="??0SkewBy@cocos2d@@QAE@XZ" PURGE="0" COMMENT="" />
    <EXPORT ORDINAL="1110" NAME="??0SkewFrame@timeline@cocostudio@@QAE@$$QAV012@@Z" PURGE="4" COMMENT="" />
    <EXPORT ORDINAL="1111" NAME="??0SkewFrame@timeline@cocostudio@@QAE@ABV012@@Z" PURGE="4" COMMENT="" />
    <EXPORT ORDINAL="1112" NAME="??0SkewFrame@timeline@cocostudio@@QAE@XZ" PURGE="0" COMMENT="" />
    <EXPORT ORDINAL="1113" NAME="??0SkewTo@cocos2d@@QAE@XZ" PURGE="0" COMMENT="" />
    <EXPORT ORDINAL="1114" NAME="??0Skin@cocostudio@@QAE@XZ" PURGE="0" COMMENT="" />
    <EXPORT ORDINAL="1115" NAME="??0Skybox@cocos2d@@QAE@XZ" PURGE="0" COMMENT="" />
    <EXPORT ORDINAL="1116" NAME="??0Slider@ui@cocos2d@@QAE@XZ" PURGE="0" COMMENT="" />
    <EXPORT ORDINAL="1117" NAME="??0SliderReader@cocostudio@@QAE@ABV01@@Z" PURGE="4" COMMENT="" />
    <EXPORT ORDINAL="1118" NAME="??0SliderReader@cocostudio@@QAE@XZ" PURGE="0" COMMENT="" />
    <EXPORT ORDINAL="1119" NAME="??0Spawn@cocos2d@@QAE@XZ" PURGE="0" COMMENT="" />
    <EXPORT ORDINAL="1120" NAME="??0Speed@cocos2d@@QAE@XZ" PURGE="0" COMMENT="" />
    <EXPORT ORDINAL="1121" NAME="??0SplitCols@cocos2d@@QAE@XZ" PURGE="0" COMMENT="" />
    <EXPORT ORDINAL="1122" NAME="??0SplitRows@cocos2d@@QAE@XZ" PURGE="0" COMMENT="" />
    <EXPORT ORDINAL="1123" NAME="??0SpotLight@cocos2d@@QAE@XZ" PURGE="0" COMMENT="" />
    <EXPORT ORDINAL="1124" NAME="??0Sprite3D@cocos2d@@QAE@XZ" PURGE="0" COMMENT="" />
    <EXPORT ORDINAL="1125" NAME="??0Sprite3DCache@cocos2d@@QAE@ABV01@@Z" PURGE="4" COMMENT="" />
    <EXPORT ORDINAL="1126" NAME="??0Sprite3DCache@cocos2d@@QAE@XZ" PURGE="0" COMMENT="" />
    <EXPORT ORDINAL="1127" NAME="??0Sprite3DMaterial@cocos2d@@QAE@$$QAV01@@Z" PURGE="4" COMMENT="" />
    <EXPORT ORDINAL="1128" NAME="??0Sprite3DMaterial@cocos2d@@QAE@ABV01@@Z" PURGE="4" COMMENT="" />
    <EXPORT ORDINAL="1129" NAME="??0Sprite3DMaterial@cocos2d@@QAE@XZ" PURGE="0" COMMENT="" />
    <EXPORT ORDINAL="1130" NAME="??0Sprite3DReader@cocostudio@@QAE@ABV01@@Z" PURGE="4" COMMENT="" />
    <EXPORT ORDINAL="1131" NAME="??0Sprite3DReader@cocostudio@@QAE@XZ" PURGE="0" COMMENT="" />
    <EXPORT ORDINAL="1132" NAME="??0Sprite@cocos2d@@QAE@XZ" PURGE="0" COMMENT="" />
    <EXPORT ORDINAL="1133" NAME="??0SpriteBatchNode@cocos2d@@QAE@XZ" PURGE="0" COMMENT="" />
    <EXPORT ORDINAL="1134" NAME="??0SpriteDisplayData@cocostudio@@QAE@ABV01@@Z" PURGE="4" COMMENT="" />
    <EXPORT ORDINAL="1135" NAME="??0SpriteDisplayData@cocostudio@@QAE@XZ" PURGE="0" COMMENT="" />
    <EXPORT ORDINAL="1136" NAME="??0SpriteFrame@cocos2d@@QAE@ABV01@@Z" PURGE="4" COMMENT="" />
    <EXPORT ORDINAL="1137" NAME="??0SpriteFrame@cocos2d@@QAE@XZ" PURGE="0" COMMENT="" />
    <EXPORT ORDINAL="1138" NAME="??0SpriteFrameCache@cocos2d@@IAE@XZ" PURGE="0" COMMENT="" />
    <EXPORT ORDINAL="1139" NAME="??0SpriteFrameCache@cocos2d@@QAE@ABV01@@Z" PURGE="4" COMMENT="" />
    <EXPORT ORDINAL="1140" NAME="??0SpriteFrameCacheHelper@cocostudio@@AAE@XZ" PURGE="0" COMMENT="" />
    <EXPORT ORDINAL="1141" NAME="??0SpriteFrameCacheHelper@cocostudio@@QAE@ABV01@@Z" PURGE="4" COMMENT="" />
    <EXPORT ORDINAL="1142" NAME="??0SpriteLoader@cocosbuilder@@QAE@ABV01@@Z" PURGE="4" COMMENT="" />
    <EXPORT ORDINAL="1143" NAME="??0SpriteLoader@cocosbuilder@@QAE@XZ" PURGE="0" COMMENT="" />
    <EXPORT ORDINAL="1144" NAME="??0SpriteReader@cocostudio@@QAE@ABV01@@Z" PURGE="4" COMMENT="" />
    <EXPORT ORDINAL="1145" NAME="??0SpriteReader@cocostudio@@QAE@XZ" PURGE="0" COMMENT="" />
    <EXPORT ORDINAL="1146" NAME="??0StateBlock@RenderState@cocos2d@@QAE@ABV012@@Z" PURGE="4" COMMENT="" />
    <EXPORT ORDINAL="1147" NAME="??0StateBlock@RenderState@cocos2d@@QAE@XZ" PURGE="0" COMMENT="" />
    <EXPORT ORDINAL="1148" NAME="??0StencilStateManager@cocos2d@@QAE@XZ" PURGE="0" COMMENT="" />
    <EXPORT ORDINAL="1149" NAME="??0StopGrid@cocos2d@@QAE@XZ" PURGE="0" COMMENT="" />
    <EXPORT ORDINAL="1150" NAME="??0StrPair@tinyxml2@@QAE@XZ" PURGE="0" COMMENT="" />
    <EXPORT ORDINAL="1151" NAME="??0StringUTF8@StringUtils@cocos2d@@QAE@ABV012@@Z" PURGE="4" COMMENT="" />
    <EXPORT ORDINAL="1152" NAME="??0StringUTF8@StringUtils@cocos2d@@QAE@ABV?$basic_string@DU?$char_traits@D@std@@V?$allocator@D@2@@std@@@Z" PURGE="4" COMMENT="" />
    <EXPORT ORDINAL="1153" NAME="??0StringUTF8@StringUtils@cocos2d@@QAE@XZ" PURGE="0" COMMENT="" />
    <EXPORT ORDINAL="1154" NAME="??0T2F_Quad@cocos2d@@QAE@XZ" PURGE="0" COMMENT="" />
    <EXPORT ORDINAL="1155" NAME="??0TInfo@ObjectFactory@cocos2d@@QAE@ABU012@@Z" PURGE="4" COMMENT="" />
    <EXPORT ORDINAL="1156" NAME="??0TInfo@ObjectFactory@cocos2d@@QAE@ABV?$basic_string@DU?$char_traits@D@std@@V?$allocator@D@2@@std@@P6APAVRef@2@XZ@Z" PURGE="8" COMMENT="" />
    <EXPORT ORDINAL="1157" NAME="??0TInfo@ObjectFactory@cocos2d@@QAE@ABV?$basic_string@DU?$char_traits@D@std@@V?$allocator@D@2@@std@@V?$function@$$A6APAVRef@cocos2d@@XZ@4@@Z" PURGE="44" COMMENT="" />
    <EXPORT ORDINAL="1158" NAME="??0TInfo@ObjectFactory@cocos2d@@QAE@XZ" PURGE="0" COMMENT="" />
    <EXPORT ORDINAL="1159" NAME="??0TMXLayer@cocos2d@@QAE@XZ" PURGE="0" COMMENT="" />
    <EXPORT ORDINAL="1160" NAME="??0TMXLayer@experimental@cocos2d@@QAE@XZ" PURGE="0" COMMENT="" />
    <EXPORT ORDINAL="1161" NAME="??0TMXLayerInfo@cocos2d@@QAE@ABV01@@Z" PURGE="4" COMMENT="" />
    <EXPORT ORDINAL="1162" NAME="??0TMXLayerInfo@cocos2d@@QAE@XZ" PURGE="0" COMMENT="" />
    <EXPORT ORDINAL="1163" NAME="??0TMXMapInfo@cocos2d@@QAE@ABV01@@Z" PURGE="4" COMMENT="" />
    <EXPORT ORDINAL="1164" NAME="??0TMXMapInfo@cocos2d@@QAE@XZ" PURGE="0" COMMENT="" />
    <EXPORT ORDINAL="1165" NAME="??0TMXObjectGroup@cocos2d@@QAE@ABV01@@Z" PURGE="4" COMMENT="" />
    <EXPORT ORDINAL="1166" NAME="??0TMXObjectGroup@cocos2d@@QAE@XZ" PURGE="0" COMMENT="" />
    <EXPORT ORDINAL="1167" NAME="??0TMXTiledMap@cocos2d@@QAE@XZ" PURGE="0" COMMENT="" />
    <EXPORT ORDINAL="1168" NAME="??0TMXTiledMap@experimental@cocos2d@@IAE@XZ" PURGE="0" COMMENT="" />
    <EXPORT ORDINAL="1169" NAME="??0TMXTilesetInfo@cocos2d@@QAE@ABV01@@Z" PURGE="4" COMMENT="" />
    <EXPORT ORDINAL="1170" NAME="??0TMXTilesetInfo@cocos2d@@QAE@XZ" PURGE="0" COMMENT="" />
    <EXPORT ORDINAL="1171" NAME="??0TabControl@ui@cocos2d@@IAE@XZ" PURGE="0" COMMENT="" />
    <EXPORT ORDINAL="1172" NAME="??0TabHeader@ui@cocos2d@@IAE@XZ" PURGE="0" COMMENT="" />
    <EXPORT ORDINAL="1173" NAME="??0TableView@extension@cocos2d@@QAE@XZ" PURGE="0" COMMENT="" />
    <EXPORT ORDINAL="1174" NAME="??0TableViewCell@extension@cocos2d@@QAE@XZ" PURGE="0" COMMENT="" />
    <EXPORT ORDINAL="1175" NAME="??0TableViewDataSource@extension@cocos2d@@QAE@ABV012@@Z" PURGE="4" COMMENT="" />
    <EXPORT ORDINAL="1176" NAME="??0TableViewDataSource@extension@cocos2d@@QAE@XZ" PURGE="0" COMMENT="" />
    <EXPORT ORDINAL="1177" NAME="??0TableViewDelegate@extension@cocos2d@@QAE@$$QAV012@@Z" PURGE="4" COMMENT="" />
    <EXPORT ORDINAL="1178" NAME="??0TableViewDelegate@extension@cocos2d@@QAE@ABV012@@Z" PURGE="4" COMMENT="" />
    <EXPORT ORDINAL="1179" NAME="??0TableViewDelegate@extension@cocos2d@@QAE@XZ" PURGE="0" COMMENT="" />
    <EXPORT ORDINAL="1180" NAME="??0TargetedAction@cocos2d@@QAE@XZ" PURGE="0" COMMENT="" />
    <EXPORT ORDINAL="1181" NAME="??0Technique@cocos2d@@IAE@XZ" PURGE="0" COMMENT="" />
    <EXPORT ORDINAL="1182" NAME="??0Technique@cocos2d@@QAE@ABV01@@Z" PURGE="4" COMMENT="" />
    <EXPORT ORDINAL="1183" NAME="??0Terrain@cocos2d@@QAE@XZ" PURGE="0" COMMENT="" />
    <EXPORT ORDINAL="1184" NAME="??0TerrainData@Terrain@cocos2d@@QAE@$$QAU012@@Z" PURGE="4" COMMENT="" />
    <EXPORT ORDINAL="1185" NAME="??0TerrainData@Terrain@cocos2d@@QAE@ABU012@@Z" PURGE="4" COMMENT="" />
    <EXPORT ORDINAL="1186" NAME="??0TerrainData@Terrain@cocos2d@@QAE@ABV?$basic_string@DU?$char_traits@D@std@@V?$allocator@D@2@@std@@0ABUDetailMap@12@111ABVSize@2@MM@Z" PURGE="36" COMMENT="" />
    <EXPORT ORDINAL="1187" NAME="??0TerrainData@Terrain@cocos2d@@QAE@ABV?$basic_string@DU?$char_traits@D@std@@V?$allocator@D@2@@std@@0ABUDetailMap@12@11ABVSize@2@MM@Z" PURGE="32" COMMENT="" />
    <EXPORT ORDINAL="1188" NAME="??0TerrainData@Terrain@cocos2d@@QAE@ABV?$basic_string@DU?$char_traits@D@std@@V?$allocator@D@2@@std@@0ABVSize@2@MM@Z" PURGE="20" COMMENT="" />
    <EXPORT ORDINAL="1189" NAME="??0TerrainData@Terrain@cocos2d@@QAE@XZ" PURGE="0" COMMENT="" />
    <EXPORT ORDINAL="1190" NAME="??0TerrainVertexData@Terrain@cocos2d@@QAE@$$QAU012@@Z" PURGE="4" COMMENT="" />
    <EXPORT ORDINAL="1191" NAME="??0TerrainVertexData@Terrain@cocos2d@@QAE@ABU012@@Z" PURGE="4" COMMENT="" />
    <EXPORT ORDINAL="1192" NAME="??0TerrainVertexData@Terrain@cocos2d@@QAE@ABVVec3@2@ABUTex2F@2@@Z" PURGE="8" COMMENT="" />
    <EXPORT ORDINAL="1193" NAME="??0TerrainVertexData@Terrain@cocos2d@@QAE@XZ" PURGE="0" COMMENT="" />
    <EXPORT ORDINAL="1194" NAME="??0Tex2F@cocos2d@@QAE@MM@Z" PURGE="8" COMMENT="" />
    <EXPORT ORDINAL="1195" NAME="??0Tex2F@cocos2d@@QAE@XZ" PURGE="0" COMMENT="" />
    <EXPORT ORDINAL="1196" NAME="??0Text@ui@cocos2d@@QAE@XZ" PURGE="0" COMMENT="" />
    <EXPORT ORDINAL="1197" NAME="??0TextAtlas@ui@cocos2d@@QAE@XZ" PURGE="0" COMMENT="" />
    <EXPORT ORDINAL="1198" NAME="??0TextAtlasReader@cocostudio@@QAE@ABV01@@Z" PURGE="4" COMMENT="" />
    <EXPORT ORDINAL="1199" NAME="??0TextAtlasReader@cocostudio@@QAE@XZ" PURGE="0" COMMENT="" />
    <EXPORT ORDINAL="1200" NAME="??0TextBMFont@ui@cocos2d@@QAE@XZ" PURGE="0" COMMENT="" />
    <EXPORT ORDINAL="1201" NAME="??0TextBMFontReader@cocostudio@@QAE@ABV01@@Z" PURGE="4" COMMENT="" />
    <EXPORT ORDINAL="1202" NAME="??0TextBMFontReader@cocostudio@@QAE@XZ" PURGE="0" COMMENT="" />
    <EXPORT ORDINAL="1203" NAME="??0TextField@ui@cocos2d@@QAE@XZ" PURGE="0" COMMENT="" />
    <EXPORT ORDINAL="1204" NAME="??0TextFieldDelegate@cocos2d@@QAE@ABV01@@Z" PURGE="4" COMMENT="" />
    <EXPORT ORDINAL="1205" NAME="??0TextFieldDelegate@cocos2d@@QAE@XZ" PURGE="0" COMMENT="" />
    <EXPORT ORDINAL="1206" NAME="??0TextFieldReader@cocostudio@@QAE@ABV01@@Z" PURGE="4" COMMENT="" />
    <EXPORT ORDINAL="1207" NAME="??0TextFieldReader@cocostudio@@QAE@XZ" PURGE="0" COMMENT="" />
    <EXPORT ORDINAL="1208" NAME="??0TextFieldTTF@cocos2d@@QAE@XZ" PURGE="0" COMMENT="" />
    <EXPORT ORDINAL="1209" NAME="??0TextReader@cocostudio@@QAE@ABV01@@Z" PURGE="4" COMMENT="" />
    <EXPORT ORDINAL="1210" NAME="??0TextReader@cocostudio@@QAE@XZ" PURGE="0" COMMENT="" />
    <EXPORT ORDINAL="1211" NAME="??0Texture2D@cocos2d@@QAE@ABV01@@Z" PURGE="4" COMMENT="" />
    <EXPORT ORDINAL="1212" NAME="??0Texture2D@cocos2d@@QAE@XZ" PURGE="0" COMMENT="" />
    <EXPORT ORDINAL="1213" NAME="??0TextureAtlas@cocos2d@@QAE@ABV01@@Z" PURGE="4" COMMENT="" />
    <EXPORT ORDINAL="1214" NAME="??0TextureAtlas@cocos2d@@QAE@XZ" PURGE="0" COMMENT="" />
    <EXPORT ORDINAL="1215" NAME="??0TextureCache@cocos2d@@QAE@XZ" PURGE="0" COMMENT="" />
    <EXPORT ORDINAL="1216" NAME="??0TextureCube@cocos2d@@QAE@ABV01@@Z" PURGE="4" COMMENT="" />
    <EXPORT ORDINAL="1217" NAME="??0TextureCube@cocos2d@@QAE@XZ" PURGE="0" COMMENT="" />
    <EXPORT ORDINAL="1218" NAME="??0TextureData@cocostudio@@QAE@ABV01@@Z" PURGE="4" COMMENT="" />
    <EXPORT ORDINAL="1219" NAME="??0TextureData@cocostudio@@QAE@XZ" PURGE="0" COMMENT="" />
    <EXPORT ORDINAL="1220" NAME="??0TextureFrame@timeline@cocostudio@@QAE@$$QAV012@@Z" PURGE="4" COMMENT="" />
    <EXPORT ORDINAL="1221" NAME="??0TextureFrame@timeline@cocostudio@@QAE@ABV012@@Z" PURGE="4" COMMENT="" />
    <EXPORT ORDINAL="1222" NAME="??0TextureFrame@timeline@cocostudio@@QAE@XZ" PURGE="0" COMMENT="" />
    <EXPORT ORDINAL="1223" NAME="??0TextureProtocol@cocos2d@@QAE@ABV01@@Z" PURGE="4" COMMENT="" />
    <EXPORT ORDINAL="1224" NAME="??0TextureProtocol@cocos2d@@QAE@XZ" PURGE="0" COMMENT="" />
    <EXPORT ORDINAL="1225" NAME="??0TileMapAtlas@cocos2d@@QAE@XZ" PURGE="0" COMMENT="" />
    <EXPORT ORDINAL="1226" NAME="??0TiledGrid3D@cocos2d@@QAE@ABV01@@Z" PURGE="4" COMMENT="" />
    <EXPORT ORDINAL="1227" NAME="??0TiledGrid3D@cocos2d@@QAE@XZ" PURGE="0" COMMENT="" />
    <EXPORT ORDINAL="1228" NAME="??0TiledGrid3DAction@cocos2d@@QAE@XZ" PURGE="0" COMMENT="" />
    <EXPORT ORDINAL="1229" NAME="??0Timeline@timeline@cocostudio@@QAE@ABV012@@Z" PURGE="4" COMMENT="" />
    <EXPORT ORDINAL="1230" NAME="??0Timeline@timeline@cocostudio@@QAE@XZ" PURGE="0" COMMENT="" />
    <EXPORT ORDINAL="1231" NAME="??0Timer@cocos2d@@IAE@XZ" PURGE="0" COMMENT="" />
    <EXPORT ORDINAL="1232" NAME="??0Timer@cocos2d@@QAE@$$QAV01@@Z" PURGE="4" COMMENT="" />
    <EXPORT ORDINAL="1233" NAME="??0Timer@cocos2d@@QAE@ABV01@@Z" PURGE="4" COMMENT="" />
    <EXPORT ORDINAL="1234" NAME="??0TimerScriptHandler@cocos2d@@QAE@$$QAV01@@Z" PURGE="4" COMMENT="" />
    <EXPORT ORDINAL="1235" NAME="??0TimerScriptHandler@cocos2d@@QAE@ABV01@@Z" PURGE="4" COMMENT="" />
    <EXPORT ORDINAL="1236" NAME="??0TimerScriptHandler@cocos2d@@QAE@XZ" PURGE="0" COMMENT="" />
    <EXPORT ORDINAL="1237" NAME="??0TimerTargetCallback@cocos2d@@QAE@$$QAV01@@Z" PURGE="4" COMMENT="" />
    <EXPORT ORDINAL="1238" NAME="??0TimerTargetCallback@cocos2d@@QAE@ABV01@@Z" PURGE="4" COMMENT="" />
    <EXPORT ORDINAL="1239" NAME="??0TimerTargetCallback@cocos2d@@QAE@XZ" PURGE="0" COMMENT="" />
    <EXPORT ORDINAL="1240" NAME="??0TimerTargetSelector@cocos2d@@QAE@$$QAV01@@Z" PURGE="4" COMMENT="" />
    <EXPORT ORDINAL="1241" NAME="??0TimerTargetSelector@cocos2d@@QAE@ABV01@@Z" PURGE="4" COMMENT="" />
    <EXPORT ORDINAL="1242" NAME="??0TimerTargetSelector@cocos2d@@QAE@XZ" PURGE="0" COMMENT="" />
    <EXPORT ORDINAL="1243" NAME="??0TintBy@cocos2d@@QAE@XZ" PURGE="0" COMMENT="" />
    <EXPORT ORDINAL="1244" NAME="??0TintTo@cocos2d@@QAE@XZ" PURGE="0" COMMENT="" />
    <EXPORT ORDINAL="1245" NAME="??0ToggleVisibility@cocos2d@@QAE@XZ" PURGE="0" COMMENT="" />
    <EXPORT ORDINAL="1246" NAME="??0Touch@cocos2d@@QAE@$$QAV01@@Z" PURGE="4" COMMENT="" />
    <EXPORT ORDINAL="1247" NAME="??0Touch@cocos2d@@QAE@ABV01@@Z" PURGE="4" COMMENT="" />
    <EXPORT ORDINAL="1248" NAME="??0Touch@cocos2d@@QAE@XZ" PURGE="0" COMMENT="" />
    <EXPORT ORDINAL="1249" NAME="??0TransformHelp@cocostudio@@QAE@XZ" PURGE="0" COMMENT="" />
    <EXPORT ORDINAL="1250" NAME="??0TransitionCrossFade@cocos2d@@QAE@XZ" PURGE="0" COMMENT="" />
    <EXPORT ORDINAL="1251" NAME="??0TransitionEaseScene@cocos2d@@QAE@ABV01@@Z" PURGE="4" COMMENT="" />
    <EXPORT ORDINAL="1252" NAME="??0TransitionEaseScene@cocos2d@@QAE@XZ" PURGE="0" COMMENT="" />
    <EXPORT ORDINAL="1253" NAME="??0TransitionFade@cocos2d@@QAE@XZ" PURGE="0" COMMENT="" />
    <EXPORT ORDINAL="1254" NAME="??0TransitionFadeBL@cocos2d@@QAE@XZ" PURGE="0" COMMENT="" />
    <EXPORT ORDINAL="1255" NAME="??0TransitionFadeDown@cocos2d@@QAE@XZ" PURGE="0" COMMENT="" />
    <EXPORT ORDINAL="1256" NAME="??0TransitionFadeTR@cocos2d@@QAE@XZ" PURGE="0" COMMENT="" />
    <EXPORT ORDINAL="1257" NAME="??0TransitionFadeUp@cocos2d@@QAE@XZ" PURGE="0" COMMENT="" />
    <EXPORT ORDINAL="1258" NAME="??0TransitionFlipAngular@cocos2d@@QAE@XZ" PURGE="0" COMMENT="" />
    <EXPORT ORDINAL="1259" NAME="??0TransitionFlipX@cocos2d@@QAE@XZ" PURGE="0" COMMENT="" />
    <EXPORT ORDINAL="1260" NAME="??0TransitionFlipY@cocos2d@@QAE@XZ" PURGE="0" COMMENT="" />
    <EXPORT ORDINAL="1261" NAME="??0TransitionJumpZoom@cocos2d@@QAE@XZ" PURGE="0" COMMENT="" />
    <EXPORT ORDINAL="1262" NAME="??0TransitionMoveInB@cocos2d@@QAE@XZ" PURGE="0" COMMENT="" />
    <EXPORT ORDINAL="1263" NAME="??0TransitionMoveInL@cocos2d@@QAE@XZ" PURGE="0" COMMENT="" />
    <EXPORT ORDINAL="1264" NAME="??0TransitionMoveInR@cocos2d@@QAE@XZ" PURGE="0" COMMENT="" />
    <EXPORT ORDINAL="1265" NAME="??0TransitionMoveInT@cocos2d@@QAE@XZ" PURGE="0" COMMENT="" />
    <EXPORT ORDINAL="1266" NAME="??0TransitionPageTurn@cocos2d@@QAE@XZ" PURGE="0" COMMENT="" />
    <EXPORT ORDINAL="1267" NAME="??0TransitionProgress@cocos2d@@QAE@XZ" PURGE="0" COMMENT="" />
    <EXPORT ORDINAL="1268" NAME="??0TransitionProgressHorizontal@cocos2d@@QAE@XZ" PURGE="0" COMMENT="" />
    <EXPORT ORDINAL="1269" NAME="??0TransitionProgressInOut@cocos2d@@QAE@XZ" PURGE="0" COMMENT="" />
    <EXPORT ORDINAL="1270" NAME="??0TransitionProgressOutIn@cocos2d@@QAE@XZ" PURGE="0" COMMENT="" />
    <EXPORT ORDINAL="1271" NAME="??0TransitionProgressRadialCCW@cocos2d@@QAE@XZ" PURGE="0" COMMENT="" />
    <EXPORT ORDINAL="1272" NAME="??0TransitionProgressRadialCW@cocos2d@@QAE@XZ" PURGE="0" COMMENT="" />
    <EXPORT ORDINAL="1273" NAME="??0TransitionProgressVertical@cocos2d@@QAE@XZ" PURGE="0" COMMENT="" />
    <EXPORT ORDINAL="1274" NAME="??0TransitionRotoZoom@cocos2d@@QAE@XZ" PURGE="0" COMMENT="" />
    <EXPORT ORDINAL="1275" NAME="??0TransitionScene@cocos2d@@QAE@XZ" PURGE="0" COMMENT="" />
    <EXPORT ORDINAL="1276" NAME="??0TransitionSceneOriented@cocos2d@@QAE@XZ" PURGE="0" COMMENT="" />
    <EXPORT ORDINAL="1277" NAME="??0TransitionShrinkGrow@cocos2d@@QAE@XZ" PURGE="0" COMMENT="" />
    <EXPORT ORDINAL="1278" NAME="??0TransitionSlideInB@cocos2d@@QAE@XZ" PURGE="0" COMMENT="" />
    <EXPORT ORDINAL="1279" NAME="??0TransitionSlideInL@cocos2d@@QAE@XZ" PURGE="0" COMMENT="" />
    <EXPORT ORDINAL="1280" NAME="??0TransitionSlideInR@cocos2d@@QAE@XZ" PURGE="0" COMMENT="" />
    <EXPORT ORDINAL="1281" NAME="??0TransitionSlideInT@cocos2d@@QAE@XZ" PURGE="0" COMMENT="" />
    <EXPORT ORDINAL="1282" NAME="??0TransitionSplitCols@cocos2d@@QAE@XZ" PURGE="0" COMMENT="" />
    <EXPORT ORDINAL="1283" NAME="??0TransitionSplitRows@cocos2d@@QAE@XZ" PURGE="0" COMMENT="" />
    <EXPORT ORDINAL="1284" NAME="??0TransitionTurnOffTiles@cocos2d@@QAE@XZ" PURGE="0" COMMENT="" />
    <EXPORT ORDINAL="1285" NAME="??0TransitionZoomFlipAngular@cocos2d@@QAE@XZ" PURGE="0" COMMENT="" />
    <EXPORT ORDINAL="1286" NAME="??0TransitionZoomFlipX@cocos2d@@QAE@XZ" PURGE="0" COMMENT="" />
    <EXPORT ORDINAL="1287" NAME="??0TransitionZoomFlipY@cocos2d@@QAE@XZ" PURGE="0" COMMENT="" />
    <EXPORT ORDINAL="1288" NAME="??0TrianglesCommand@cocos2d@@QAE@ABV01@@Z" PURGE="4" COMMENT="" />
    <EXPORT ORDINAL="1289" NAME="??0TrianglesCommand@cocos2d@@QAE@XZ" PURGE="0" COMMENT="" />
    <EXPORT ORDINAL="1290" NAME="??0TriggerMng@cocostudio@@QAE@ABV01@@Z" PURGE="4" COMMENT="" />
    <EXPORT ORDINAL="1291" NAME="??0TriggerMng@cocostudio@@QAE@XZ" PURGE="0" COMMENT="" />
    <EXPORT ORDINAL="1292" NAME="??0TriggerObj@cocostudio@@QAE@ABV01@@Z" PURGE="4" COMMENT="" />
    <EXPORT ORDINAL="1293" NAME="??0TriggerObj@cocostudio@@QAE@XZ" PURGE="0" COMMENT="" />
    <EXPORT ORDINAL="1294" NAME="??0TurnOffTiles@cocos2d@@QAE@XZ" PURGE="0" COMMENT="" />
    <EXPORT ORDINAL="1295" NAME="??0Tween@cocostudio@@QAE@ABV01@@Z" PURGE="4" COMMENT="" />
    <EXPORT ORDINAL="1296" NAME="??0Tween@cocostudio@@QAE@XZ" PURGE="0" COMMENT="" />
    <EXPORT ORDINAL="1297" NAME="??0Twirl@cocos2d@@QAE@XZ" PURGE="0" COMMENT="" />
    <EXPORT ORDINAL="1298" NAME="??0UICCTextField@ui@cocos2d@@QAE@XZ" PURGE="0" COMMENT="" />
    <EXPORT ORDINAL="1299" NAME="??0UniformValue@cocos2d@@QAE@PAUUniform@1@PAVGLProgram@1@@Z" PURGE="8" COMMENT="" />
    <EXPORT ORDINAL="1300" NAME="??0UniformValue@cocos2d@@QAE@XZ" PURGE="0" COMMENT="" />
    <EXPORT ORDINAL="1301" NAME="??0UserCameraReader@cocostudio@@QAE@ABV01@@Z" PURGE="4" COMMENT="" />
    <EXPORT ORDINAL="1302" NAME="??0UserCameraReader@cocostudio@@QAE@XZ" PURGE="0" COMMENT="" />
    <EXPORT ORDINAL="1303" NAME="??0UserDefault@cocos2d@@IAE@XZ" PURGE="0" COMMENT="" />
    <EXPORT ORDINAL="1304" NAME="??0UserDefault@cocos2d@@QAE@ABV01@@Z" PURGE="4" COMMENT="" />
    <EXPORT ORDINAL="1305" NAME="??0V2F_C4B_T2F_Quad@cocos2d@@QAE@$$QAU01@@Z" PURGE="4" COMMENT="" />
    <EXPORT ORDINAL="1306" NAME="??0V2F_C4B_T2F_Quad@cocos2d@@QAE@ABU01@@Z" PURGE="4" COMMENT="" />
    <EXPORT ORDINAL="1307" NAME="??0V2F_C4B_T2F_Quad@cocos2d@@QAE@XZ" PURGE="0" COMMENT="" />
    <EXPORT ORDINAL="1308" NAME="??0V2F_C4B_T2F_Triangle@cocos2d@@QAE@$$QAU01@@Z" PURGE="4" COMMENT="" />
    <EXPORT ORDINAL="1309" NAME="??0V2F_C4B_T2F_Triangle@cocos2d@@QAE@ABU01@@Z" PURGE="4" COMMENT="" />
    <EXPORT ORDINAL="1310" NAME="??0V2F_C4B_T2F_Triangle@cocos2d@@QAE@XZ" PURGE="0" COMMENT="" />
    <EXPORT ORDINAL="1311" NAME="??0V2F_C4F_T2F@cocos2d@@QAE@$$QAU01@@Z" PURGE="4" COMMENT="" />
    <EXPORT ORDINAL="1312" NAME="??0V2F_C4F_T2F@cocos2d@@QAE@ABU01@@Z" PURGE="4" COMMENT="" />
    <EXPORT ORDINAL="1313" NAME="??0V2F_C4F_T2F@cocos2d@@QAE@XZ" PURGE="0" COMMENT="" />
    <EXPORT ORDINAL="1314" NAME="??0V2F_C4F_T2F_Quad@cocos2d@@QAE@$$QAU01@@Z" PURGE="4" COMMENT="" />
    <EXPORT ORDINAL="1315" NAME="??0V2F_C4F_T2F_Quad@cocos2d@@QAE@ABU01@@Z" PURGE="4" COMMENT="" />
    <EXPORT ORDINAL="1316" NAME="??0V2F_C4F_T2F_Quad@cocos2d@@QAE@XZ" PURGE="0" COMMENT="" />
    <EXPORT ORDINAL="1317" NAME="??0V3F_C4B_T2F@cocos2d@@QAE@$$QAU01@@Z" PURGE="4" COMMENT="" />
    <EXPORT ORDINAL="1318" NAME="??0V3F_C4B_T2F@cocos2d@@QAE@ABU01@@Z" PURGE="4" COMMENT="" />
    <EXPORT ORDINAL="1319" NAME="??0V3F_C4B_T2F@cocos2d@@QAE@XZ" PURGE="0" COMMENT="" />
    <EXPORT ORDINAL="1320" NAME="??0V3F_C4B_T2F_Quad@cocos2d@@QAE@$$QAU01@@Z" PURGE="4" COMMENT="" />
    <EXPORT ORDINAL="1321" NAME="??0V3F_C4B_T2F_Quad@cocos2d@@QAE@ABU01@@Z" PURGE="4" COMMENT="" />
    <EXPORT ORDINAL="1322" NAME="??0V3F_C4B_T2F_Quad@cocos2d@@QAE@XZ" PURGE="0" COMMENT="" />
    <EXPORT ORDINAL="1323" NAME="??0V3F_T2F@cocos2d@@QAE@$$QAU01@@Z" PURGE="4" COMMENT="" />
    <EXPORT ORDINAL="1324" NAME="??0V3F_T2F@cocos2d@@QAE@ABU01@@Z" PURGE="4" COMMENT="" />
    <EXPORT ORDINAL="1325" NAME="??0V3F_T2F@cocos2d@@QAE@XZ" PURGE="0" COMMENT="" />
    <EXPORT ORDINAL="1326" NAME="??0V3F_T2F_Quad@cocos2d@@QAE@$$QAU01@@Z" PURGE="4" COMMENT="" />
    <EXPORT ORDINAL="1327" NAME="??0V3F_T2F_Quad@cocos2d@@QAE@ABU01@@Z" PURGE="4" COMMENT="" />
    <EXPORT ORDINAL="1328" NAME="??0V3F_T2F_Quad@cocos2d@@QAE@XZ" PURGE="0" COMMENT="" />
    <EXPORT ORDINAL="1329" NAME="??0VBox@ui@cocos2d@@QAE@XZ" PURGE="0" COMMENT="" />
    <EXPORT ORDINAL="1330" NAME="??0VREye@cocos2d@@QAE@XZ" PURGE="0" COMMENT="" />
    <EXPORT ORDINAL="1331" NAME="??0VRGenericHeadTracker@cocos2d@@QAE@ABV01@@Z" PURGE="4" COMMENT="" />
    <EXPORT ORDINAL="1332" NAME="??0VRGenericHeadTracker@cocos2d@@QAE@XZ" PURGE="0" COMMENT="" />
    <EXPORT ORDINAL="1333" NAME="??0VRGenericRenderer@cocos2d@@QAE@ABV01@@Z" PURGE="4" COMMENT="" />
    <EXPORT ORDINAL="1334" NAME="??0VRGenericRenderer@cocos2d@@QAE@XZ" PURGE="0" COMMENT="" />
    <EXPORT ORDINAL="1335" NAME="??0VRIHeadTracker@cocos2d@@QAE@ABV01@@Z" PURGE="4" COMMENT="" />
    <EXPORT ORDINAL="1336" NAME="??0VRIHeadTracker@cocos2d@@QAE@XZ" PURGE="0" COMMENT="" />
    <EXPORT ORDINAL="1337" NAME="??0VRIRenderer@cocos2d@@QAE@ABV01@@Z" PURGE="4" COMMENT="" />
    <EXPORT ORDINAL="1338" NAME="??0VRIRenderer@cocos2d@@QAE@XZ" PURGE="0" COMMENT="" />
    <EXPORT ORDINAL="1339" NAME="??0Value@cocos2d@@QAE@$$QAV01@@Z" PURGE="4" COMMENT="" />
    <EXPORT ORDINAL="1340" NAME="??0Value@cocos2d@@QAE@$$QAV?$unordered_map@HVValue@cocos2d@@U?$hash@H@std@@U?$equal_to@H@4@V?$allocator@U?$pair@$$CBHVValue@cocos2d@@@std@@@4@@std@@@Z" PURGE="4" COMMENT="" />
    <EXPORT ORDINAL="1341" NAME="??0Value@cocos2d@@QAE@$$QAV?$unordered_map@V?$basic_string@DU?$char_traits@D@std@@V?$allocator@D@2@@std@@VValue@cocos2d@@U?$hash@V?$basic_string@DU?$char_traits@D@std@@V?$allocator@D@2@@std@@@2@U?$equal_to@V?$basic_string@DU?$char_traits@D@std@@V?$allocator@D@2@@std@@@2@V?$allocator@U?$pair@$$CBV?$basic_string@DU?$char_traits@D@std@@V?$allocator@D@2@@std@@VValue@cocos2d@@@std@@@2@@std@@@Z" PURGE="4" COMMENT="" />
    <EXPORT ORDINAL="1342" NAME="??0Value@cocos2d@@QAE@$$QAV?$vector@VValue@cocos2d@@V?$allocator@VValue@cocos2d@@@std@@@std@@@Z" PURGE="4" COMMENT="" />
    <EXPORT ORDINAL="1343" NAME="??0Value@cocos2d@@QAE@ABV01@@Z" PURGE="4" COMMENT="" />
    <EXPORT ORDINAL="1344" NAME="??0Value@cocos2d@@QAE@ABV?$basic_string@DU?$char_traits@D@std@@V?$allocator@D@2@@std@@@Z" PURGE="4" COMMENT="" />
    <EXPORT ORDINAL="1345" NAME="??0Value@cocos2d@@QAE@ABV?$unordered_map@HVValue@cocos2d@@U?$hash@H@std@@U?$equal_to@H@4@V?$allocator@U?$pair@$$CBHVValue@cocos2d@@@std@@@4@@std@@@Z" PURGE="4" COMMENT="" />
    <EXPORT ORDINAL="1346" NAME="??0Value@cocos2d@@QAE@ABV?$unordered_map@V?$basic_string@DU?$char_traits@D@std@@V?$allocator@D@2@@std@@VValue@cocos2d@@U?$hash@V?$basic_string@DU?$char_traits@D@std@@V?$allocator@D@2@@std@@@2@U?$equal_to@V?$basic_string@DU?$char_traits@D@std@@V?$allocator@D@2@@std@@@2@V?$allocator@U?$pair@$$CBV?$basic_string@DU?$char_traits@D@std@@V?$allocator@D@2@@std@@VValue@cocos2d@@@std@@@2@@std@@@Z" PURGE="4" COMMENT="" />
    <EXPORT ORDINAL="1347" NAME="??0Value@cocos2d@@QAE@ABV?$vector@VValue@cocos2d@@V?$allocator@VValue@cocos2d@@@std@@@std@@@Z" PURGE="4" COMMENT="" />
    <EXPORT ORDINAL="1348" NAME="??0Value@cocos2d@@QAE@E@Z" PURGE="4" COMMENT="" />
    <EXPORT ORDINAL="1349" NAME="??0Value@cocos2d@@QAE@H@Z" PURGE="4" COMMENT="" />
    <EXPORT ORDINAL="1350" NAME="??0Value@cocos2d@@QAE@I@Z" PURGE="4" COMMENT="" />
    <EXPORT ORDINAL="1351" NAME="??0Value@cocos2d@@QAE@M@Z" PURGE="4" COMMENT="" />
    <EXPORT ORDINAL="1352" NAME="??0Value@cocos2d@@QAE@N@Z" PURGE="8" COMMENT="" />
    <EXPORT ORDINAL="1353" NAME="??0Value@cocos2d@@QAE@PBD@Z" PURGE="4" COMMENT="" />
    <EXPORT ORDINAL="1354" NAME="??0Value@cocos2d@@QAE@XZ" PURGE="0" COMMENT="" />
    <EXPORT ORDINAL="1355" NAME="??0Value@cocos2d@@QAE@_N@Z" PURGE="4" COMMENT="" />
    <EXPORT ORDINAL="1356" NAME="??0Vec2@cocos2d@@QAE@ABV01@0@Z" PURGE="8" COMMENT="" />
    <EXPORT ORDINAL="1357" NAME="??0Vec2@cocos2d@@QAE@ABV01@@Z" PURGE="4" COMMENT="" />
    <EXPORT ORDINAL="1358" NAME="??0Vec2@cocos2d@@QAE@MM@Z" PURGE="8" COMMENT="" />
    <EXPORT ORDINAL="1359" NAME="??0Vec2@cocos2d@@QAE@PBM@Z" PURGE="4" COMMENT="" />
    <EXPORT ORDINAL="1360" NAME="??0Vec2@cocos2d@@QAE@XZ" PURGE="0" COMMENT="" />
    <EXPORT ORDINAL="1361" NAME="??0Vec3@cocos2d@@QAE@ABV01@0@Z" PURGE="8" COMMENT="" />
    <EXPORT ORDINAL="1362" NAME="??0Vec3@cocos2d@@QAE@ABV01@@Z" PURGE="4" COMMENT="" />
    <EXPORT ORDINAL="1363" NAME="??0Vec3@cocos2d@@QAE@MMM@Z" PURGE="12" COMMENT="" />
    <EXPORT ORDINAL="1364" NAME="??0Vec3@cocos2d@@QAE@PBM@Z" PURGE="4" COMMENT="" />
    <EXPORT ORDINAL="1365" NAME="??0Vec3@cocos2d@@QAE@XZ" PURGE="0" COMMENT="" />
    <EXPORT ORDINAL="1366" NAME="??0Vec4@cocos2d@@QAE@ABV01@0@Z" PURGE="8" COMMENT="" />
    <EXPORT ORDINAL="1367" NAME="??0Vec4@cocos2d@@QAE@ABV01@@Z" PURGE="4" COMMENT="" />
    <EXPORT ORDINAL="1368" NAME="??0Vec4@cocos2d@@QAE@MMMM@Z" PURGE="16" COMMENT="" />
    <EXPORT ORDINAL="1369" NAME="??0Vec4@cocos2d@@QAE@PBM@Z" PURGE="4" COMMENT="" />
    <EXPORT ORDINAL="1370" NAME="??0Vec4@cocos2d@@QAE@XZ" PURGE="0" COMMENT="" />
    <EXPORT ORDINAL="1371" NAME="??0VertexAttribBinding@cocos2d@@AAE@XZ" PURGE="0" COMMENT="" />
    <EXPORT ORDINAL="1372" NAME="??0VertexAttribBinding@cocos2d@@QAE@ABV01@@Z" PURGE="4" COMMENT="" />
    <EXPORT ORDINAL="1373" NAME="??0VertexAttribValue@cocos2d@@QAE@PAUVertexAttrib@1@@Z" PURGE="4" COMMENT="" />
    <EXPORT ORDINAL="1374" NAME="??0VertexAttribValue@cocos2d@@QAE@XZ" PURGE="0" COMMENT="" />
    <EXPORT ORDINAL="1375" NAME="??0VertexBuffer@cocos2d@@IAE@XZ" PURGE="0" COMMENT="" />
    <EXPORT ORDINAL="1376" NAME="??0VertexBuffer@cocos2d@@QAE@ABV01@@Z" PURGE="4" COMMENT="" />
    <EXPORT ORDINAL="1377" NAME="??0VertexData@cocos2d@@IAE@XZ" PURGE="0" COMMENT="" />
    <EXPORT ORDINAL="1378" NAME="??0VertexData@cocos2d@@QAE@ABV01@@Z" PURGE="4" COMMENT="" />
    <EXPORT ORDINAL="1379" NAME="??0VertexStreamAttribute@cocos2d@@QAE@HHHH@Z" PURGE="16" COMMENT="" />
    <EXPORT ORDINAL="1380" NAME="??0VertexStreamAttribute@cocos2d@@QAE@HHHH_N@Z" PURGE="20" COMMENT="" />
    <EXPORT ORDINAL="1381" NAME="??0VertexStreamAttribute@cocos2d@@QAE@XZ" PURGE="0" COMMENT="" />
    <EXPORT ORDINAL="1382" NAME="??0VideoPlayer@ui@experimental@cocos2d@@QAE@XZ" PURGE="0" COMMENT="" />
    <EXPORT ORDINAL="1383" NAME="??0Viewport@experimental@cocos2d@@QAE@MMMM@Z" PURGE="16" COMMENT="" />
    <EXPORT ORDINAL="1384" NAME="??0Viewport@experimental@cocos2d@@QAE@XZ" PURGE="0" COMMENT="" />
    <EXPORT ORDINAL="1385" NAME="??0VisibleFrame@timeline@cocostudio@@QAE@$$QAV012@@Z" PURGE="4" COMMENT="" />
    <EXPORT ORDINAL="1386" NAME="??0VisibleFrame@timeline@cocostudio@@QAE@ABV012@@Z" PURGE="4" COMMENT="" />
    <EXPORT ORDINAL="1387" NAME="??0VisibleFrame@timeline@cocostudio@@QAE@XZ" PURGE="0" COMMENT="" />
    <EXPORT ORDINAL="1388" NAME="??0Waves3D@cocos2d@@QAE@XZ" PURGE="0" COMMENT="" />
    <EXPORT ORDINAL="1389" NAME="??0Waves@cocos2d@@QAE@XZ" PURGE="0" COMMENT="" />
    <EXPORT ORDINAL="1390" NAME="??0WavesTiles3D@cocos2d@@QAE@XZ" PURGE="0" COMMENT="" />
    <EXPORT ORDINAL="1391" NAME="??0Widget@ui@cocos2d@@QAE@XZ" PURGE="0" COMMENT="" />
    <EXPORT ORDINAL="1392" NAME="??0WidgetCallBackHandlerProtocol@cocostudio@@QAE@ABV01@@Z" PURGE="4" COMMENT="" />
    <EXPORT ORDINAL="1393" NAME="??0WidgetCallBackHandlerProtocol@cocostudio@@QAE@XZ" PURGE="0" COMMENT="" />
    <EXPORT ORDINAL="1394" NAME="??0WidgetPropertiesReader0250@cocostudio@@QAE@ABV01@@Z" PURGE="4" COMMENT="" />
    <EXPORT ORDINAL="1395" NAME="??0WidgetPropertiesReader0250@cocostudio@@QAE@XZ" PURGE="0" COMMENT="" />
    <EXPORT ORDINAL="1396" NAME="??0WidgetPropertiesReader0300@cocostudio@@QAE@ABV01@@Z" PURGE="4" COMMENT="" />
    <EXPORT ORDINAL="1397" NAME="??0WidgetPropertiesReader0300@cocostudio@@QAE@XZ" PURGE="0" COMMENT="" />
    <EXPORT ORDINAL="1398" NAME="??0WidgetPropertiesReader@cocostudio@@QAE@$$QAV01@@Z" PURGE="4" COMMENT="" />
    <EXPORT ORDINAL="1399" NAME="??0WidgetPropertiesReader@cocostudio@@QAE@ABV01@@Z" PURGE="4" COMMENT="" />
    <EXPORT ORDINAL="1400" NAME="??0WidgetPropertiesReader@cocostudio@@QAE@XZ" PURGE="0" COMMENT="" />
    <EXPORT ORDINAL="1401" NAME="??0WidgetReader@cocostudio@@QAE@ABV01@@Z" PURGE="4" COMMENT="" />
    <EXPORT ORDINAL="1402" NAME="??0WidgetReader@cocostudio@@QAE@XZ" PURGE="0" COMMENT="" />
    <EXPORT ORDINAL="1403" NAME="??0WidgetReaderProtocol@cocostudio@@QAE@ABV01@@Z" PURGE="4" COMMENT="" />
    <EXPORT ORDINAL="1404" NAME="??0WidgetReaderProtocol@cocostudio@@QAE@XZ" PURGE="0" COMMENT="" />
    <EXPORT ORDINAL="1405" NAME="??0XMLAttribute@tinyxml2@@AAE@XZ" PURGE="0" COMMENT="" />
    <EXPORT ORDINAL="1406" NAME="??0XMLComment@tinyxml2@@IAE@PAVXMLDocument@1@@Z" PURGE="4" COMMENT="" />
    <EXPORT ORDINAL="1407" NAME="??0XMLConstHandle@tinyxml2@@QAE@ABV01@@Z" PURGE="4" COMMENT="" />
    <EXPORT ORDINAL="1408" NAME="??0XMLConstHandle@tinyxml2@@QAE@ABVXMLNode@1@@Z" PURGE="4" COMMENT="" />
    <EXPORT ORDINAL="1409" NAME="??0XMLConstHandle@tinyxml2@@QAE@PBVXMLNode@1@@Z" PURGE="4" COMMENT="" />
    <EXPORT ORDINAL="1410" NAME="??0XMLDeclaration@tinyxml2@@IAE@PAVXMLDocument@1@@Z" PURGE="4" COMMENT="" />
    <EXPORT ORDINAL="1411" NAME="??0XMLDocument@tinyxml2@@QAE@_NW4Whitespace@1@@Z" PURGE="8" COMMENT="" />
    <EXPORT ORDINAL="1412" NAME="??0XMLElement@tinyxml2@@AAE@PAVXMLDocument@1@@Z" PURGE="4" COMMENT="" />
    <EXPORT ORDINAL="1413" NAME="??0XMLHandle@tinyxml2@@QAE@AAVXMLNode@1@@Z" PURGE="4" COMMENT="" />
    <EXPORT ORDINAL="1414" NAME="??0XMLHandle@tinyxml2@@QAE@ABV01@@Z" PURGE="4" COMMENT="" />
    <EXPORT ORDINAL="1415" NAME="??0XMLHandle@tinyxml2@@QAE@PAVXMLNode@1@@Z" PURGE="4" COMMENT="" />
    <EXPORT ORDINAL="1416" NAME="??0XMLNode@tinyxml2@@IAE@PAVXMLDocument@1@@Z" PURGE="4" COMMENT="" />
    <EXPORT ORDINAL="1417" NAME="??0XMLPrinter@tinyxml2@@QAE@ABV01@@Z" PURGE="4" COMMENT="" />
    <EXPORT ORDINAL="1418" NAME="??0XMLPrinter@tinyxml2@@QAE@PAU_iobuf@@_N@Z" PURGE="8" COMMENT="" />
    <EXPORT ORDINAL="1419" NAME="??0XMLText@tinyxml2@@IAE@PAVXMLDocument@1@@Z" PURGE="4" COMMENT="" />
    <EXPORT ORDINAL="1420" NAME="??0XMLUnknown@tinyxml2@@IAE@PAVXMLDocument@1@@Z" PURGE="4" COMMENT="" />
    <EXPORT ORDINAL="1421" NAME="??0XMLVisitor@tinyxml2@@QAE@ABV01@@Z" PURGE="4" COMMENT="" />
    <EXPORT ORDINAL="1422" NAME="??0XMLVisitor@tinyxml2@@QAE@XZ" PURGE="0" COMMENT="" />
    <EXPORT ORDINAL="1423" NAME="??0ZOrderFrame@timeline@cocostudio@@QAE@$$QAV012@@Z" PURGE="4" COMMENT="" />
    <EXPORT ORDINAL="1424" NAME="??0ZOrderFrame@timeline@cocostudio@@QAE@ABV012@@Z" PURGE="4" COMMENT="" />
    <EXPORT ORDINAL="1425" NAME="??0ZOrderFrame@timeline@cocostudio@@QAE@XZ" PURGE="0" COMMENT="" />
    <EXPORT ORDINAL="1426" NAME="??0ZipFile@cocos2d@@AAE@XZ" PURGE="0" COMMENT="" />
    <EXPORT ORDINAL="1427" NAME="??0ZipFile@cocos2d@@QAE@ABV01@@Z" PURGE="4" COMMENT="" />
    <EXPORT ORDINAL="1428" NAME="??0ZipFile@cocos2d@@QAE@ABV?$basic_string@DU?$char_traits@D@std@@V?$allocator@D@2@@std@@0@Z" PURGE="8" COMMENT="" />
    <EXPORT ORDINAL="1429" NAME="??0__Array@cocos2d@@QAE@ABV01@@Z" PURGE="4" COMMENT="" />
    <EXPORT ORDINAL="1430" NAME="??0__Array@cocos2d@@QAE@XZ" PURGE="0" COMMENT="" />
    <EXPORT ORDINAL="1431" NAME="??0__Bool@cocos2d@@QAE@$$QAV01@@Z" PURGE="4" COMMENT="" />
    <EXPORT ORDINAL="1432" NAME="??0__Bool@cocos2d@@QAE@ABV01@@Z" PURGE="4" COMMENT="" />
    <EXPORT ORDINAL="1433" NAME="??0__Bool@cocos2d@@QAE@_N@Z" PURGE="4" COMMENT="" />
    <EXPORT ORDINAL="1434" NAME="??0__CCCallFuncND@cocos2d@@QAE@XZ" PURGE="0" COMMENT="" />
    <EXPORT ORDINAL="1435" NAME="??0__CCCallFuncO@cocos2d@@QAE@XZ" PURGE="0" COMMENT="" />
    <EXPORT ORDINAL="1436" NAME="??0__Dictionary@cocos2d@@QAE@ABV01@@Z" PURGE="4" COMMENT="" />
    <EXPORT ORDINAL="1437" NAME="??0__Dictionary@cocos2d@@QAE@XZ" PURGE="0" COMMENT="" />
    <EXPORT ORDINAL="1438" NAME="??0__Double@cocos2d@@QAE@$$QAV01@@Z" PURGE="4" COMMENT="" />
    <EXPORT ORDINAL="1439" NAME="??0__Double@cocos2d@@QAE@ABV01@@Z" PURGE="4" COMMENT="" />
    <EXPORT ORDINAL="1440" NAME="??0__Double@cocos2d@@QAE@N@Z" PURGE="8" COMMENT="" />
    <EXPORT ORDINAL="1441" NAME="??0__Float@cocos2d@@QAE@$$QAV01@@Z" PURGE="4" COMMENT="" />
    <EXPORT ORDINAL="1442" NAME="??0__Float@cocos2d@@QAE@ABV01@@Z" PURGE="4" COMMENT="" />
    <EXPORT ORDINAL="1443" NAME="??0__Float@cocos2d@@QAE@M@Z" PURGE="4" COMMENT="" />
    <EXPORT ORDINAL="1444" NAME="??0__Integer@cocos2d@@QAE@ABV01@@Z" PURGE="4" COMMENT="" />
    <EXPORT ORDINAL="1445" NAME="??0__Integer@cocos2d@@QAE@H@Z" PURGE="4" COMMENT="" />
    <EXPORT ORDINAL="1446" NAME="??0__LayerRGBA@cocos2d@@QAE@XZ" PURGE="0" COMMENT="" />
    <EXPORT ORDINAL="1447" NAME="??0__NodeRGBA@cocos2d@@QAE@XZ" PURGE="0" COMMENT="" />
    <EXPORT ORDINAL="1448" NAME="??0__NotificationCenter@cocos2d@@QAE@ABV01@@Z" PURGE="4" COMMENT="" />
    <EXPORT ORDINAL="1449" NAME="??0__NotificationCenter@cocos2d@@QAE@XZ" PURGE="0" COMMENT="" />
    <EXPORT ORDINAL="1450" NAME="??0__RGBAProtocol@cocos2d@@QAE@ABV01@@Z" PURGE="4" COMMENT="" />
    <EXPORT ORDINAL="1451" NAME="??0__RGBAProtocol@cocos2d@@QAE@XZ" PURGE="0" COMMENT="" />
    <EXPORT ORDINAL="1452" NAME="??0__Set@cocos2d@@QAE@ABV01@@Z" PURGE="4" COMMENT="" />
    <EXPORT ORDINAL="1453" NAME="??0__Set@cocos2d@@QAE@XZ" PURGE="0" COMMENT="" />
    <EXPORT ORDINAL="1454" NAME="??0__String@cocos2d@@QAE@ABV01@@Z" PURGE="4" COMMENT="" />
    <EXPORT ORDINAL="1455" NAME="??0__String@cocos2d@@QAE@ABV?$basic_string@DU?$char_traits@D@std@@V?$allocator@D@2@@std@@@Z" PURGE="4" COMMENT="" />
    <EXPORT ORDINAL="1456" NAME="??0__String@cocos2d@@QAE@PBD@Z" PURGE="4" COMMENT="" />
    <EXPORT ORDINAL="1457" NAME="??0__String@cocos2d@@QAE@XZ" PURGE="0" COMMENT="" />
    <EXPORT ORDINAL="1458" NAME="??1?$DataPool@UParticle3D@cocos2d@@@cocos2d@@QAE@XZ" PURGE="0" COMMENT="" />
    <EXPORT ORDINAL="1459" NAME="??1?$DynArray@D$0BE@@tinyxml2@@QAE@XZ" PURGE="0" COMMENT="" />
    <EXPORT ORDINAL="1460" NAME="??1?$DynArray@PAUBlock@?$MemPoolT@$0CE@@tinyxml2@@$09@tinyxml2@@QAE@XZ" PURGE="0" COMMENT="" />
    <EXPORT ORDINAL="1461" NAME="??1?$DynArray@PAUBlock@?$MemPoolT@$0CM@@tinyxml2@@$09@tinyxml2@@QAE@XZ" PURGE="0" COMMENT="" />
    <EXPORT ORDINAL="1462" NAME="??1?$DynArray@PAUBlock@?$MemPoolT@$0DA@@tinyxml2@@$09@tinyxml2@@QAE@XZ" PURGE="0" COMMENT="" />
    <EXPORT ORDINAL="1463" NAME="??1?$DynArray@PAUBlock@?$MemPoolT@$0DE@@tinyxml2@@$09@tinyxml2@@QAE@XZ" PURGE="0" COMMENT="" />
    <EXPORT ORDINAL="1464" NAME="??1?$DynArray@PBD$09@tinyxml2@@QAE@XZ" PURGE="0" COMMENT="" />
    <EXPORT ORDINAL="1465" NAME="??1?$MemPoolT@$0CE@@tinyxml2@@UAE@XZ" PURGE="0" COMMENT="" />
    <EXPORT ORDINAL="1466" NAME="??1?$MemPoolT@$0CM@@tinyxml2@@UAE@XZ" PURGE="0" COMMENT="" />
    <EXPORT ORDINAL="1467" NAME="??1?$MemPoolT@$0DA@@tinyxml2@@UAE@XZ" PURGE="0" COMMENT="" />
    <EXPORT ORDINAL="1468" NAME="??1?$MemPoolT@$0DE@@tinyxml2@@UAE@XZ" PURGE="0" COMMENT="" />
    <EXPORT ORDINAL="1469" NAME="??1AABB@cocos2d@@QAE@XZ" PURGE="0" COMMENT="" />
    <EXPORT ORDINAL="1470" NAME="??1AbstractCheckButton@ui@cocos2d@@MAE@XZ" PURGE="0" COMMENT="" />
    <EXPORT ORDINAL="1471" NAME="??1AccelAmplitude@cocos2d@@UAE@XZ" PURGE="0" COMMENT="" />
    <EXPORT ORDINAL="1472" NAME="??1AccelDeccelAmplitude@cocos2d@@UAE@XZ" PURGE="0" COMMENT="" />
    <EXPORT ORDINAL="1473" NAME="??1Acceleration@cocos2d@@UAE@XZ" PURGE="0" COMMENT="" />
    <EXPORT ORDINAL="1474" NAME="??1Action@cocos2d@@UAE@XZ" PURGE="0" COMMENT="" />
    <EXPORT ORDINAL="1475" NAME="??1ActionCamera@cocos2d@@UAE@XZ" PURGE="0" COMMENT="" />
    <EXPORT ORDINAL="1476" NAME="??1ActionEase@cocos2d@@UAE@XZ" PURGE="0" COMMENT="" />
    <EXPORT ORDINAL="1477" NAME="??1ActionFadeFrame@cocostudio@@UAE@XZ" PURGE="0" COMMENT="" />
    <EXPORT ORDINAL="1478" NAME="??1ActionFloat@cocos2d@@UAE@XZ" PURGE="0" COMMENT="" />
    <EXPORT ORDINAL="1479" NAME="??1ActionFrame@cocostudio@@UAE@XZ" PURGE="0" COMMENT="" />
    <EXPORT ORDINAL="1480" NAME="??1ActionFrameEasing@cocostudio@@UAE@XZ" PURGE="0" COMMENT="" />
    <EXPORT ORDINAL="1481" NAME="??1ActionInstant@cocos2d@@UAE@XZ" PURGE="0" COMMENT="" />
    <EXPORT ORDINAL="1482" NAME="??1ActionInterval@cocos2d@@UAE@XZ" PURGE="0" COMMENT="" />
    <EXPORT ORDINAL="1483" NAME="??1ActionManager@cocos2d@@UAE@XZ" PURGE="0" COMMENT="" />
    <EXPORT ORDINAL="1484" NAME="??1ActionManagerEx@cocostudio@@UAE@XZ" PURGE="0" COMMENT="" />
    <EXPORT ORDINAL="1485" NAME="??1ActionMoveFrame@cocostudio@@UAE@XZ" PURGE="0" COMMENT="" />
    <EXPORT ORDINAL="1486" NAME="??1ActionNode@cocostudio@@UAE@XZ" PURGE="0" COMMENT="" />
    <EXPORT ORDINAL="1487" NAME="??1ActionObject@cocostudio@@UAE@XZ" PURGE="0" COMMENT="" />
    <EXPORT ORDINAL="1488" NAME="??1ActionRotationFrame@cocostudio@@UAE@XZ" PURGE="0" COMMENT="" />
    <EXPORT ORDINAL="1489" NAME="??1ActionScaleFrame@cocostudio@@UAE@XZ" PURGE="0" COMMENT="" />
    <EXPORT ORDINAL="1490" NAME="??1ActionTimeline@timeline@cocostudio@@UAE@XZ" PURGE="0" COMMENT="" />
    <EXPORT ORDINAL="1491" NAME="??1ActionTimelineCache@timeline@cocostudio@@QAE@XZ" PURGE="0" COMMENT="" />
    <EXPORT ORDINAL="1492" NAME="??1ActionTimelineData@timeline@cocostudio@@UAE@XZ" PURGE="0" COMMENT="" />
    <EXPORT ORDINAL="1493" NAME="??1ActionTimelineNode@timeline@cocostudio@@UAE@XZ" PURGE="0" COMMENT="" />
    <EXPORT ORDINAL="1494" NAME="??1ActionTintFrame@cocostudio@@UAE@XZ" PURGE="0" COMMENT="" />
    <EXPORT ORDINAL="1495" NAME="??1ActionTween@cocos2d@@UAE@XZ" PURGE="0" COMMENT="" />
    <EXPORT ORDINAL="1496" NAME="??1ActionTweenDelegate@cocos2d@@UAE@XZ" PURGE="0" COMMENT="" />
    <EXPORT ORDINAL="1497" NAME="??1AlphaFrame@timeline@cocostudio@@UAE@XZ" PURGE="0" COMMENT="" />
    <EXPORT ORDINAL="1498" NAME="??1AmbientLight@cocos2d@@UAE@XZ" PURGE="0" COMMENT="" />
    <EXPORT ORDINAL="1499" NAME="??1AnchorPointFrame@timeline@cocostudio@@UAE@XZ" PURGE="0" COMMENT="" />
    <EXPORT ORDINAL="1500" NAME="??1Animate3D@cocos2d@@UAE@XZ" PURGE="0" COMMENT="" />
    <EXPORT ORDINAL="1501" NAME="??1Animate@cocos2d@@UAE@XZ" PURGE="0" COMMENT="" />
    <EXPORT ORDINAL="1502" NAME="??1Animation3D@cocos2d@@UAE@XZ" PURGE="0" COMMENT="" />
    <EXPORT ORDINAL="1503" NAME="??1Animation@cocos2d@@UAE@XZ" PURGE="0" COMMENT="" />
    <EXPORT ORDINAL="1504" NAME="??1AnimationCache@cocos2d@@UAE@XZ" PURGE="0" COMMENT="" />
    <EXPORT ORDINAL="1505" NAME="??1AnimationData@cocostudio@@UAE@XZ" PURGE="0" COMMENT="" />
    <EXPORT ORDINAL="1506" NAME="??1AnimationFrame@cocos2d@@UAE@XZ" PURGE="0" COMMENT="" />
    <EXPORT ORDINAL="1507" NAME="??1Application@cocos2d@@UAE@XZ" PURGE="0" COMMENT="" />
    <EXPORT ORDINAL="1508" NAME="??1ApplicationProtocol@cocos2d@@UAE@XZ" PURGE="0" COMMENT="" />
    <EXPORT ORDINAL="1509" NAME="??1Armature@cocostudio@@UAE@XZ" PURGE="0" COMMENT="" />
    <EXPORT ORDINAL="1510" NAME="??1ArmatureAnimation@cocostudio@@UAE@XZ" PURGE="0" COMMENT="" />
    <EXPORT ORDINAL="1511" NAME="??1ArmatureData@cocostudio@@UAE@XZ" PURGE="0" COMMENT="" />
    <EXPORT ORDINAL="1512" NAME="??1ArmatureDataManager@cocostudio@@EAE@XZ" PURGE="0" COMMENT="" />
    <EXPORT ORDINAL="1513" NAME="??1ArmatureDisplayData@cocostudio@@UAE@XZ" PURGE="0" COMMENT="" />
    <EXPORT ORDINAL="1514" NAME="??1ArmatureMovementDispatcher@cocostudio@@UAE@XZ" PURGE="0" COMMENT="" />
    <EXPORT ORDINAL="1515" NAME="??1AssetsManager@extension@cocos2d@@UAE@XZ" PURGE="0" COMMENT="" />
    <EXPORT ORDINAL="1516" NAME="??1AssetsManagerEx@extension@cocos2d@@UAE@XZ" PURGE="0" COMMENT="" />
    <EXPORT ORDINAL="1517" NAME="??1AsyncTaskPool@cocos2d@@QAE@XZ" PURGE="0" COMMENT="" />
    <EXPORT ORDINAL="1518" NAME="??1AtlasNode@cocos2d@@UAE@XZ" PURGE="0" COMMENT="" />
    <EXPORT ORDINAL="1519" NAME="??1AttachNode@cocos2d@@UAE@XZ" PURGE="0" COMMENT="" />
    <EXPORT ORDINAL="1520" NAME="??1AudioCache@experimental@cocos2d@@QAE@XZ" PURGE="0" COMMENT="" />
    <EXPORT ORDINAL="1521" NAME="??1AudioEngineImpl@experimental@cocos2d@@UAE@XZ" PURGE="0" COMMENT="" />
    <EXPORT ORDINAL="1522" NAME="??1AudioPlayer@experimental@cocos2d@@QAE@XZ" PURGE="0" COMMENT="" />
    <EXPORT ORDINAL="1523" NAME="??1AudioProfile@experimental@cocos2d@@QAE@XZ" PURGE="0" COMMENT="" />
    <EXPORT ORDINAL="1524" NAME="??1AutoBindingResolver@GLProgramState@cocos2d@@UAE@XZ" PURGE="0" COMMENT="" />
    <EXPORT ORDINAL="1525" NAME="??1AutoPolygon@cocos2d@@QAE@XZ" PURGE="0" COMMENT="" />
    <EXPORT ORDINAL="1526" NAME="??1AutoreleasePool@cocos2d@@QAE@XZ" PURGE="0" COMMENT="" />
    <EXPORT ORDINAL="1527" NAME="??1BMFontConfiguration@cocos2d@@UAE@XZ" PURGE="0" COMMENT="" />
    <EXPORT ORDINAL="1528" NAME="??1BaseData@cocostudio@@UAE@XZ" PURGE="0" COMMENT="" />
    <EXPORT ORDINAL="1529" NAME="??1BaseLight@cocos2d@@UAE@XZ" PURGE="0" COMMENT="" />
    <EXPORT ORDINAL="1530" NAME="??1BaseTriggerAction@cocostudio@@UAE@XZ" PURGE="0" COMMENT="" />
    <EXPORT ORDINAL="1531" NAME="??1BaseTriggerCondition@cocostudio@@UAE@XZ" PURGE="0" COMMENT="" />
    <EXPORT ORDINAL="1532" NAME="??1BatchCommand@cocos2d@@UAE@XZ" PURGE="0" COMMENT="" />
    <EXPORT ORDINAL="1533" NAME="??1BatchNode@cocostudio@@UAE@XZ" PURGE="0" COMMENT="" />
    <EXPORT ORDINAL="1534" NAME="??1BezierBy@cocos2d@@UAE@XZ" PURGE="0" COMMENT="" />
    <EXPORT ORDINAL="1535" NAME="??1BezierTo@cocos2d@@UAE@XZ" PURGE="0" COMMENT="" />
    <EXPORT ORDINAL="1536" NAME="??1BillBoard@cocos2d@@UAE@XZ" PURGE="0" COMMENT="" />
    <EXPORT ORDINAL="1537" NAME="??1BinLocalizationManager@cocostudio@@MAE@XZ" PURGE="0" COMMENT="" />
    <EXPORT ORDINAL="1538" NAME="??1BlendFuncFrame@timeline@cocostudio@@UAE@XZ" PURGE="0" COMMENT="" />
    <EXPORT ORDINAL="1539" NAME="??1BlendProtocol@cocos2d@@UAE@XZ" PURGE="0" COMMENT="" />
    <EXPORT ORDINAL="1540" NAME="??1Blink@cocos2d@@UAE@XZ" PURGE="0" COMMENT="" />
    <EXPORT ORDINAL="1541" NAME="??1Bone3D@cocos2d@@MAE@XZ" PURGE="0" COMMENT="" />
    <EXPORT ORDINAL="1542" NAME="??1Bone@cocostudio@@UAE@XZ" PURGE="0" COMMENT="" />
    <EXPORT ORDINAL="1543" NAME="??1BoneData@cocostudio@@UAE@XZ" PURGE="0" COMMENT="" />
    <EXPORT ORDINAL="1544" NAME="??1BoneNode@timeline@cocostudio@@UAE@XZ" PURGE="0" COMMENT="" />
    <EXPORT ORDINAL="1545" NAME="??1Bundle3D@cocos2d@@UAE@XZ" PURGE="0" COMMENT="" />
    <EXPORT ORDINAL="1546" NAME="??1Button@ui@cocos2d@@UAE@XZ" PURGE="0" COMMENT="" />
    <EXPORT ORDINAL="1547" NAME="??1ButtonReader@cocostudio@@UAE@XZ" PURGE="0" COMMENT="" />
    <EXPORT ORDINAL="1548" NAME="??1CCBAnimationManager@cocosbuilder@@UAE@XZ" PURGE="0" COMMENT="" />
    <EXPORT ORDINAL="1549" NAME="??1CCBAnimationManagerDelegate@cocosbuilder@@UAE@XZ" PURGE="0" COMMENT="" />
    <EXPORT ORDINAL="1550" NAME="??1CCBEaseInstant@cocosbuilder@@UAE@XZ" PURGE="0" COMMENT="" />
    <EXPORT ORDINAL="1551" NAME="??1CCBFileLoader@cocosbuilder@@UAE@XZ" PURGE="0" COMMENT="" />
    <EXPORT ORDINAL="1552" NAME="??1CCBKeyframe@cocosbuilder@@UAE@XZ" PURGE="0" COMMENT="" />
    <EXPORT ORDINAL="1553" NAME="??1CCBMemberVariableAssigner@cocosbuilder@@UAE@XZ" PURGE="0" COMMENT="" />
    <EXPORT ORDINAL="1554" NAME="??1CCBReader@cocosbuilder@@UAE@XZ" PURGE="0" COMMENT="" />
    <EXPORT ORDINAL="1555" NAME="??1CCBRotateTo@cocosbuilder@@UAE@XZ" PURGE="0" COMMENT="" />
    <EXPORT ORDINAL="1556" NAME="??1CCBRotateXTo@cocosbuilder@@UAE@XZ" PURGE="0" COMMENT="" />
    <EXPORT ORDINAL="1557" NAME="??1CCBRotateYTo@cocosbuilder@@UAE@XZ" PURGE="0" COMMENT="" />
    <EXPORT ORDINAL="1558" NAME="??1CCBScriptOwnerProtocol@cocosbuilder@@UAE@XZ" PURGE="0" COMMENT="" />
    <EXPORT ORDINAL="1559" NAME="??1CCBSelectorResolver@cocosbuilder@@UAE@XZ" PURGE="0" COMMENT="" />
    <EXPORT ORDINAL="1560" NAME="??1CCBSequence@cocosbuilder@@UAE@XZ" PURGE="0" COMMENT="" />
    <EXPORT ORDINAL="1561" NAME="??1CCBSequenceProperty@cocosbuilder@@UAE@XZ" PURGE="0" COMMENT="" />
    <EXPORT ORDINAL="1562" NAME="??1CCBSetSpriteFrame@cocosbuilder@@UAE@XZ" PURGE="0" COMMENT="" />
    <EXPORT ORDINAL="1563" NAME="??1CCBSoundEffect@cocosbuilder@@UAE@XZ" PURGE="0" COMMENT="" />
    <EXPORT ORDINAL="1564" NAME="??1CCPUBoxEmitter@cocos2d@@UAE@XZ" PURGE="0" COMMENT="" />
    <EXPORT ORDINAL="1565" NAME="??1CSLoader@cocos2d@@QAE@XZ" PURGE="0" COMMENT="" />
    <EXPORT ORDINAL="1566" NAME="??1CallFunc@cocos2d@@UAE@XZ" PURGE="0" COMMENT="" />
    <EXPORT ORDINAL="1567" NAME="??1CallFuncN@cocos2d@@UAE@XZ" PURGE="0" COMMENT="" />
    <EXPORT ORDINAL="1568" NAME="??1Camera@cocos2d@@UAE@XZ" PURGE="0" COMMENT="" />
    <EXPORT ORDINAL="1569" NAME="??1CameraBackgroundBrush@cocos2d@@UAE@XZ" PURGE="0" COMMENT="" />
    <EXPORT ORDINAL="1570" NAME="??1CameraBackgroundColorBrush@cocos2d@@UAE@XZ" PURGE="0" COMMENT="" />
    <EXPORT ORDINAL="1571" NAME="??1CameraBackgroundDepthBrush@cocos2d@@UAE@XZ" PURGE="0" COMMENT="" />
    <EXPORT ORDINAL="1572" NAME="??1CameraBackgroundSkyBoxBrush@cocos2d@@UAE@XZ" PURGE="0" COMMENT="" />
    <EXPORT ORDINAL="1573" NAME="??1CardinalSplineBy@cocos2d@@UAE@XZ" PURGE="0" COMMENT="" />
    <EXPORT ORDINAL="1574" NAME="??1CardinalSplineTo@cocos2d@@UAE@XZ" PURGE="0" COMMENT="" />
    <EXPORT ORDINAL="1575" NAME="??1CatmullRomBy@cocos2d@@UAE@XZ" PURGE="0" COMMENT="" />
    <EXPORT ORDINAL="1576" NAME="??1CatmullRomTo@cocos2d@@UAE@XZ" PURGE="0" COMMENT="" />
    <EXPORT ORDINAL="1577" NAME="??1CheckBox@ui@cocos2d@@UAE@XZ" PURGE="0" COMMENT="" />
    <EXPORT ORDINAL="1578" NAME="??1CheckBoxReader@cocostudio@@UAE@XZ" PURGE="0" COMMENT="" />
    <EXPORT ORDINAL="1579" NAME="??1ClippingNode@cocos2d@@UAE@XZ" PURGE="0" COMMENT="" />
    <EXPORT ORDINAL="1580" NAME="??1ClippingRectangleNode@cocos2d@@UAE@XZ" PURGE="0" COMMENT="" />
    <EXPORT ORDINAL="1581" NAME="??1Clonable@cocos2d@@UAE@XZ" PURGE="0" COMMENT="" />
    <EXPORT ORDINAL="1582" NAME="??1CocoLoader@cocostudio@@QAE@XZ" PURGE="0" COMMENT="" />
    <EXPORT ORDINAL="1583" NAME="??1ColliderBody@cocostudio@@UAE@XZ" PURGE="0" COMMENT="" />
    <EXPORT ORDINAL="1584" NAME="??1ColliderDetector@cocostudio@@UAE@XZ" PURGE="0" COMMENT="" />
    <EXPORT ORDINAL="1585" NAME="??1ColliderFilter@cocostudio@@UAE@XZ" PURGE="0" COMMENT="" />
    <EXPORT ORDINAL="1586" NAME="??1Color3bObject@extension@cocos2d@@UAE@XZ" PURGE="0" COMMENT="" />
    <EXPORT ORDINAL="1587" NAME="??1ColorFrame@timeline@cocostudio@@UAE@XZ" PURGE="0" COMMENT="" />
    <EXPORT ORDINAL="1588" NAME="??1ComAttribute@cocostudio@@UAE@XZ" PURGE="0" COMMENT="" />
    <EXPORT ORDINAL="1589" NAME="??1ComAudio@cocostudio@@UAE@XZ" PURGE="0" COMMENT="" />
    <EXPORT ORDINAL="1590" NAME="??1ComAudioReader@cocostudio@@UAE@XZ" PURGE="0" COMMENT="" />
    <EXPORT ORDINAL="1591" NAME="??1ComController@cocostudio@@UAE@XZ" PURGE="0" COMMENT="" />
    <EXPORT ORDINAL="1592" NAME="??1ComExtensionData@cocostudio@@UAE@XZ" PURGE="0" COMMENT="" />
    <EXPORT ORDINAL="1593" NAME="??1ComRender@cocostudio@@UAE@XZ" PURGE="0" COMMENT="" />
    <EXPORT ORDINAL="1594" NAME="??1Component@cocos2d@@UAE@XZ" PURGE="0" COMMENT="" />
    <EXPORT ORDINAL="1595" NAME="??1ComponentContainer@cocos2d@@QAE@XZ" PURGE="0" COMMENT="" />
    <EXPORT ORDINAL="1596" NAME="??1Configuration@cocos2d@@UAE@XZ" PURGE="0" COMMENT="" />
    <EXPORT ORDINAL="1597" NAME="??1Console@cocos2d@@UAE@XZ" PURGE="0" COMMENT="" />
    <EXPORT ORDINAL="1598" NAME="??1ContourData@cocostudio@@UAE@XZ" PURGE="0" COMMENT="" />
    <EXPORT ORDINAL="1599" NAME="??1Control@extension@cocos2d@@UAE@XZ" PURGE="0" COMMENT="" />
    <EXPORT ORDINAL="1600" NAME="??1ControlButton@extension@cocos2d@@UAE@XZ" PURGE="0" COMMENT="" />
    <EXPORT ORDINAL="1601" NAME="??1ControlButtonLoader@cocosbuilder@@UAE@XZ" PURGE="0" COMMENT="" />
    <EXPORT ORDINAL="1602" NAME="??1ControlColourPicker@extension@cocos2d@@UAE@XZ" PURGE="0" COMMENT="" />
    <EXPORT ORDINAL="1603" NAME="??1ControlHuePicker@extension@cocos2d@@UAE@XZ" PURGE="0" COMMENT="" />
    <EXPORT ORDINAL="1604" NAME="??1ControlLoader@cocosbuilder@@UAE@XZ" PURGE="0" COMMENT="" />
    <EXPORT ORDINAL="1605" NAME="??1ControlPotentiometer@extension@cocos2d@@UAE@XZ" PURGE="0" COMMENT="" />
    <EXPORT ORDINAL="1606" NAME="??1ControlSaturationBrightnessPicker@extension@cocos2d@@UAE@XZ" PURGE="0" COMMENT="" />
    <EXPORT ORDINAL="1607" NAME="??1ControlSlider@extension@cocos2d@@UAE@XZ" PURGE="0" COMMENT="" />
    <EXPORT ORDINAL="1608" NAME="??1ControlStepper@extension@cocos2d@@UAE@XZ" PURGE="0" COMMENT="" />
    <EXPORT ORDINAL="1609" NAME="??1ControlSwitch@extension@cocos2d@@UAE@XZ" PURGE="0" COMMENT="" />
    <EXPORT ORDINAL="1610" NAME="??1Controller@cocos2d@@EAE@XZ" PURGE="0" COMMENT="" />
    <EXPORT ORDINAL="1611" NAME="??1CustomCommand@cocos2d@@UAE@XZ" PURGE="0" COMMENT="" />
    <EXPORT ORDINAL="1612" NAME="??1Data@cocos2d@@QAE@XZ" PURGE="0" COMMENT="" />
    <EXPORT ORDINAL="1613" NAME="??1DataReaderHelper@cocostudio@@UAE@XZ" PURGE="0" COMMENT="" />
    <EXPORT ORDINAL="1614" NAME="??1DataVisitor@cocos2d@@UAE@XZ" PURGE="0" COMMENT="" />
    <EXPORT ORDINAL="1615" NAME="??1DeccelAmplitude@cocos2d@@UAE@XZ" PURGE="0" COMMENT="" />
    <EXPORT ORDINAL="1616" NAME="??1DecorativeDisplay@cocostudio@@UAE@XZ" PURGE="0" COMMENT="" />
    <EXPORT ORDINAL="1617" NAME="??1DelayTime@cocos2d@@UAE@XZ" PURGE="0" COMMENT="" />
    <EXPORT ORDINAL="1618" NAME="??1DetailMap@Terrain@cocos2d@@QAE@XZ" PURGE="0" COMMENT="" />
    <EXPORT ORDINAL="1619" NAME="??1DictElement@cocos2d@@QAE@XZ" PURGE="0" COMMENT="" />
    <EXPORT ORDINAL="1620" NAME="??1DictionaryHelper@cocostudio@@QAE@XZ" PURGE="0" COMMENT="" />
    <EXPORT ORDINAL="1621" NAME="??1DirectionLight@cocos2d@@UAE@XZ" PURGE="0" COMMENT="" />
    <EXPORT ORDINAL="1622" NAME="??1Director@cocos2d@@UAE@XZ" PURGE="0" COMMENT="" />
    <EXPORT ORDINAL="1623" NAME="??1DirectorDelegate@cocos2d@@UAE@XZ" PURGE="0" COMMENT="" />
    <EXPORT ORDINAL="1624" NAME="??1DisplayData@cocostudio@@UAE@XZ" PURGE="0" COMMENT="" />
    <EXPORT ORDINAL="1625" NAME="??1DisplayManager@cocostudio@@UAE@XZ" PURGE="0" COMMENT="" />
    <EXPORT ORDINAL="1626" NAME="??1DownloadTask@network@cocos2d@@UAE@XZ" PURGE="0" COMMENT="" />
    <EXPORT ORDINAL="1627" NAME="??1Downloader@network@cocos2d@@QAE@XZ" PURGE="0" COMMENT="" />
    <EXPORT ORDINAL="1628" NAME="??1DownloaderHints@network@cocos2d@@QAE@XZ" PURGE="0" COMMENT="" />
    <EXPORT ORDINAL="1629" NAME="??1DrawNode@cocos2d@@UAE@XZ" PURGE="0" COMMENT="" />
    <EXPORT ORDINAL="1630" NAME="??1EaseBackIn@cocos2d@@UAE@XZ" PURGE="0" COMMENT="" />
    <EXPORT ORDINAL="1631" NAME="??1EaseBackInOut@cocos2d@@UAE@XZ" PURGE="0" COMMENT="" />
    <EXPORT ORDINAL="1632" NAME="??1EaseBackOut@cocos2d@@UAE@XZ" PURGE="0" COMMENT="" />
    <EXPORT ORDINAL="1633" NAME="??1EaseBezierAction@cocos2d@@UAE@XZ" PURGE="0" COMMENT="" />
    <EXPORT ORDINAL="1634" NAME="??1EaseBounce@cocos2d@@UAE@XZ" PURGE="0" COMMENT="" />
    <EXPORT ORDINAL="1635" NAME="??1EaseBounceIn@cocos2d@@UAE@XZ" PURGE="0" COMMENT="" />
    <EXPORT ORDINAL="1636" NAME="??1EaseBounceInOut@cocos2d@@UAE@XZ" PURGE="0" COMMENT="" />
    <EXPORT ORDINAL="1637" NAME="??1EaseBounceOut@cocos2d@@UAE@XZ" PURGE="0" COMMENT="" />
    <EXPORT ORDINAL="1638" NAME="??1EaseCircleActionIn@cocos2d@@UAE@XZ" PURGE="0" COMMENT="" />
    <EXPORT ORDINAL="1639" NAME="??1EaseCircleActionInOut@cocos2d@@UAE@XZ" PURGE="0" COMMENT="" />
    <EXPORT ORDINAL="1640" NAME="??1EaseCircleActionOut@cocos2d@@UAE@XZ" PURGE="0" COMMENT="" />
    <EXPORT ORDINAL="1641" NAME="??1EaseCubicActionIn@cocos2d@@UAE@XZ" PURGE="0" COMMENT="" />
    <EXPORT ORDINAL="1642" NAME="??1EaseCubicActionInOut@cocos2d@@UAE@XZ" PURGE="0" COMMENT="" />
    <EXPORT ORDINAL="1643" NAME="??1EaseCubicActionOut@cocos2d@@UAE@XZ" PURGE="0" COMMENT="" />
    <EXPORT ORDINAL="1644" NAME="??1EaseElastic@cocos2d@@UAE@XZ" PURGE="0" COMMENT="" />
    <EXPORT ORDINAL="1645" NAME="??1EaseElasticIn@cocos2d@@UAE@XZ" PURGE="0" COMMENT="" />
    <EXPORT ORDINAL="1646" NAME="??1EaseElasticInOut@cocos2d@@UAE@XZ" PURGE="0" COMMENT="" />
    <EXPORT ORDINAL="1647" NAME="??1EaseElasticOut@cocos2d@@UAE@XZ" PURGE="0" COMMENT="" />
    <EXPORT ORDINAL="1648" NAME="??1EaseExponentialIn@cocos2d@@UAE@XZ" PURGE="0" COMMENT="" />
    <EXPORT ORDINAL="1649" NAME="??1EaseExponentialInOut@cocos2d@@UAE@XZ" PURGE="0" COMMENT="" />
    <EXPORT ORDINAL="1650" NAME="??1EaseExponentialOut@cocos2d@@UAE@XZ" PURGE="0" COMMENT="" />
    <EXPORT ORDINAL="1651" NAME="??1EaseIn@cocos2d@@UAE@XZ" PURGE="0" COMMENT="" />
    <EXPORT ORDINAL="1652" NAME="??1EaseInOut@cocos2d@@UAE@XZ" PURGE="0" COMMENT="" />
    <EXPORT ORDINAL="1653" NAME="??1EaseOut@cocos2d@@UAE@XZ" PURGE="0" COMMENT="" />
    <EXPORT ORDINAL="1654" NAME="??1EaseQuadraticActionIn@cocos2d@@UAE@XZ" PURGE="0" COMMENT="" />
    <EXPORT ORDINAL="1655" NAME="??1EaseQuadraticActionInOut@cocos2d@@UAE@XZ" PURGE="0" COMMENT="" />
    <EXPORT ORDINAL="1656" NAME="??1EaseQuadraticActionOut@cocos2d@@UAE@XZ" PURGE="0" COMMENT="" />
    <EXPORT ORDINAL="1657" NAME="??1EaseQuarticActionIn@cocos2d@@UAE@XZ" PURGE="0" COMMENT="" />
    <EXPORT ORDINAL="1658" NAME="??1EaseQuarticActionInOut@cocos2d@@UAE@XZ" PURGE="0" COMMENT="" />
    <EXPORT ORDINAL="1659" NAME="??1EaseQuarticActionOut@cocos2d@@UAE@XZ" PURGE="0" COMMENT="" />
    <EXPORT ORDINAL="1660" NAME="??1EaseQuinticActionIn@cocos2d@@UAE@XZ" PURGE="0" COMMENT="" />
    <EXPORT ORDINAL="1661" NAME="??1EaseQuinticActionInOut@cocos2d@@UAE@XZ" PURGE="0" COMMENT="" />
    <EXPORT ORDINAL="1662" NAME="??1EaseQuinticActionOut@cocos2d@@UAE@XZ" PURGE="0" COMMENT="" />
    <EXPORT ORDINAL="1663" NAME="??1EaseRateAction@cocos2d@@UAE@XZ" PURGE="0" COMMENT="" />
    <EXPORT ORDINAL="1664" NAME="??1EaseSineIn@cocos2d@@UAE@XZ" PURGE="0" COMMENT="" />
    <EXPORT ORDINAL="1665" NAME="??1EaseSineInOut@cocos2d@@UAE@XZ" PURGE="0" COMMENT="" />
    <EXPORT ORDINAL="1666" NAME="??1EaseSineOut@cocos2d@@UAE@XZ" PURGE="0" COMMENT="" />
    <EXPORT ORDINAL="1667" NAME="??1EditBox@ui@cocos2d@@UAE@XZ" PURGE="0" COMMENT="" />
    <EXPORT ORDINAL="1668" NAME="??1EditBoxDelegate@ui@cocos2d@@UAE@XZ" PURGE="0" COMMENT="" />
    <EXPORT ORDINAL="1669" NAME="??1EditBoxImpl@ui@cocos2d@@UAE@XZ" PURGE="0" COMMENT="" />
    <EXPORT ORDINAL="1670" NAME="??1EditBoxImplWin@ui@cocos2d@@UAE@XZ" PURGE="0" COMMENT="" />
    <EXPORT ORDINAL="1671" NAME="??1Event@cocos2d@@UAE@XZ" PURGE="0" COMMENT="" />
    <EXPORT ORDINAL="1672" NAME="??1EventAcceleration@cocos2d@@UAE@XZ" PURGE="0" COMMENT="" />
    <EXPORT ORDINAL="1673" NAME="??1EventAssetsManagerEx@extension@cocos2d@@UAE@XZ" PURGE="0" COMMENT="" />
    <EXPORT ORDINAL="1674" NAME="??1EventCustom@cocos2d@@UAE@XZ" PURGE="0" COMMENT="" />
    <EXPORT ORDINAL="1675" NAME="??1EventDispatcher@cocos2d@@UAE@XZ" PURGE="0" COMMENT="" />
    <EXPORT ORDINAL="1676" NAME="??1EventFocus@cocos2d@@UAE@XZ" PURGE="0" COMMENT="" />
    <EXPORT ORDINAL="1677" NAME="??1EventFrame@timeline@cocostudio@@UAE@XZ" PURGE="0" COMMENT="" />
    <EXPORT ORDINAL="1678" NAME="??1EventKeyboard@cocos2d@@UAE@XZ" PURGE="0" COMMENT="" />
    <EXPORT ORDINAL="1679" NAME="??1EventListener@cocos2d@@UAE@XZ" PURGE="0" COMMENT="" />
    <EXPORT ORDINAL="1680" NAME="??1EventListenerAcceleration@cocos2d@@UAE@XZ" PURGE="0" COMMENT="" />
    <EXPORT ORDINAL="1681" NAME="??1EventListenerAssetsManagerEx@extension@cocos2d@@UAE@XZ" PURGE="0" COMMENT="" />
    <EXPORT ORDINAL="1682" NAME="??1EventListenerController@cocos2d@@UAE@XZ" PURGE="0" COMMENT="" />
    <EXPORT ORDINAL="1683" NAME="??1EventListenerCustom@cocos2d@@UAE@XZ" PURGE="0" COMMENT="" />
    <EXPORT ORDINAL="1684" NAME="??1EventListenerFocus@cocos2d@@UAE@XZ" PURGE="0" COMMENT="" />
    <EXPORT ORDINAL="1685" NAME="??1EventListenerKeyboard@cocos2d@@UAE@XZ" PURGE="0" COMMENT="" />
    <EXPORT ORDINAL="1686" NAME="??1EventListenerMouse@cocos2d@@UAE@XZ" PURGE="0" COMMENT="" />
    <EXPORT ORDINAL="1687" NAME="??1EventListenerPhysicsContact@cocos2d@@MAE@XZ" PURGE="0" COMMENT="" />
    <EXPORT ORDINAL="1688" NAME="??1EventListenerPhysicsContactWithBodies@cocos2d@@MAE@XZ" PURGE="0" COMMENT="" />
    <EXPORT ORDINAL="1689" NAME="??1EventListenerPhysicsContactWithGroup@cocos2d@@MAE@XZ" PURGE="0" COMMENT="" />
    <EXPORT ORDINAL="1690" NAME="??1EventListenerPhysicsContactWithShapes@cocos2d@@MAE@XZ" PURGE="0" COMMENT="" />
    <EXPORT ORDINAL="1691" NAME="??1EventListenerTouchAllAtOnce@cocos2d@@UAE@XZ" PURGE="0" COMMENT="" />
    <EXPORT ORDINAL="1692" NAME="??1EventListenerTouchOneByOne@cocos2d@@UAE@XZ" PURGE="0" COMMENT="" />
    <EXPORT ORDINAL="1693" NAME="??1EventMouse@cocos2d@@UAE@XZ" PURGE="0" COMMENT="" />
    <EXPORT ORDINAL="1694" NAME="??1EventTouch@cocos2d@@UAE@XZ" PURGE="0" COMMENT="" />
    <EXPORT ORDINAL="1695" NAME="??1FadeIn@cocos2d@@UAE@XZ" PURGE="0" COMMENT="" />
    <EXPORT ORDINAL="1696" NAME="??1FadeOut@cocos2d@@UAE@XZ" PURGE="0" COMMENT="" />
    <EXPORT ORDINAL="1697" NAME="??1FadeOutBLTiles@cocos2d@@UAE@XZ" PURGE="0" COMMENT="" />
    <EXPORT ORDINAL="1698" NAME="??1FadeOutDownTiles@cocos2d@@UAE@XZ" PURGE="0" COMMENT="" />
    <EXPORT ORDINAL="1699" NAME="??1FadeOutTRTiles@cocos2d@@UAE@XZ" PURGE="0" COMMENT="" />
    <EXPORT ORDINAL="1700" NAME="??1FadeOutUpTiles@cocos2d@@UAE@XZ" PURGE="0" COMMENT="" />
    <EXPORT ORDINAL="1701" NAME="??1FadeTo@cocos2d@@UAE@XZ" PURGE="0" COMMENT="" />
    <EXPORT ORDINAL="1702" NAME="??1FileUtils@cocos2d@@UAE@XZ" PURGE="0" COMMENT="" />
    <EXPORT ORDINAL="1703" NAME="??1FileUtilsWin32@cocos2d@@UAE@XZ" PURGE="0" COMMENT="" />
    <EXPORT ORDINAL="1704" NAME="??1FiniteTimeAction@cocos2d@@UAE@XZ" PURGE="0" COMMENT="" />
    <EXPORT ORDINAL="1705" NAME="??1FlatBuffersSerialize@cocostudio@@QAE@XZ" PURGE="0" COMMENT="" />
    <EXPORT ORDINAL="1706" NAME="??1FlipX3D@cocos2d@@UAE@XZ" PURGE="0" COMMENT="" />
    <EXPORT ORDINAL="1707" NAME="??1FlipX@cocos2d@@UAE@XZ" PURGE="0" COMMENT="" />
    <EXPORT ORDINAL="1708" NAME="??1FlipY3D@cocos2d@@UAE@XZ" PURGE="0" COMMENT="" />
    <EXPORT ORDINAL="1709" NAME="??1FlipY@cocos2d@@UAE@XZ" PURGE="0" COMMENT="" />
    <EXPORT ORDINAL="1710" NAME="??1Follow@cocos2d@@UAE@XZ" PURGE="0" COMMENT="" />
    <EXPORT ORDINAL="1711" NAME="??1Font@cocos2d@@UAE@XZ" PURGE="0" COMMENT="" />
    <EXPORT ORDINAL="1712" NAME="??1FontAtlas@cocos2d@@UAE@XZ" PURGE="0" COMMENT="" />
    <EXPORT ORDINAL="1713" NAME="??1FontDefinition@cocos2d@@QAE@XZ" PURGE="0" COMMENT="" />
    <EXPORT ORDINAL="1714" NAME="??1FontFNT@cocos2d@@MAE@XZ" PURGE="0" COMMENT="" />
    <EXPORT ORDINAL="1715" NAME="??1FontFreeType@cocos2d@@EAE@XZ" PURGE="0" COMMENT="" />
    <EXPORT ORDINAL="1716" NAME="??1Frame@timeline@cocostudio@@MAE@XZ" PURGE="0" COMMENT="" />
    <EXPORT ORDINAL="1717" NAME="??1FrameBuffer@experimental@cocos2d@@UAE@XZ" PURGE="0" COMMENT="" />
    <EXPORT ORDINAL="1718" NAME="??1FrameData@cocostudio@@UAE@XZ" PURGE="0" COMMENT="" />
    <EXPORT ORDINAL="1719" NAME="??1Frustum@cocos2d@@QAE@XZ" PURGE="0" COMMENT="" />
    <EXPORT ORDINAL="1720" NAME="??1GLProgram@cocos2d@@UAE@XZ" PURGE="0" COMMENT="" />
    <EXPORT ORDINAL="1721" NAME="??1GLProgramCache@cocos2d@@UAE@XZ" PURGE="0" COMMENT="" />
    <EXPORT ORDINAL="1722" NAME="??1GLProgramState@cocos2d@@MAE@XZ" PURGE="0" COMMENT="" />
    <EXPORT ORDINAL="1723" NAME="??1GLProgramStateCache@cocos2d@@IAE@XZ" PURGE="0" COMMENT="" />
    <EXPORT ORDINAL="1724" NAME="??1GLView@cocos2d@@UAE@XZ" PURGE="0" COMMENT="" />
    <EXPORT ORDINAL="1725" NAME="??1GLViewImpl@cocos2d@@MAE@XZ" PURGE="0" COMMENT="" />
    <EXPORT ORDINAL="1726" NAME="??1GUIReader@cocostudio@@MAE@XZ" PURGE="0" COMMENT="" />
    <EXPORT ORDINAL="1727" NAME="??1GameMapReader@cocostudio@@UAE@XZ" PURGE="0" COMMENT="" />
    <EXPORT ORDINAL="1728" NAME="??1GameNode3DReader@cocostudio@@UAE@XZ" PURGE="0" COMMENT="" />
    <EXPORT ORDINAL="1729" NAME="??1Grid3D@cocos2d@@UAE@XZ" PURGE="0" COMMENT="" />
    <EXPORT ORDINAL="1730" NAME="??1Grid3DAction@cocos2d@@UAE@XZ" PURGE="0" COMMENT="" />
    <EXPORT ORDINAL="1731" NAME="??1GridAction@cocos2d@@UAE@XZ" PURGE="0" COMMENT="" />
    <EXPORT ORDINAL="1732" NAME="??1GridBase@cocos2d@@UAE@XZ" PURGE="0" COMMENT="" />
    <EXPORT ORDINAL="1733" NAME="??1GroupCommand@cocos2d@@UAE@XZ" PURGE="0" COMMENT="" />
    <EXPORT ORDINAL="1734" NAME="??1HBox@ui@cocos2d@@UAE@XZ" PURGE="0" COMMENT="" />
    <EXPORT ORDINAL="1735" NAME="??1Hide@cocos2d@@UAE@XZ" PURGE="0" COMMENT="" />
    <EXPORT ORDINAL="1736" NAME="??1HttpClient@network@cocos2d@@EAE@XZ" PURGE="0" COMMENT="" />
    <EXPORT ORDINAL="1737" NAME="??1HttpRequest@network@cocos2d@@UAE@XZ" PURGE="0" COMMENT="" />
    <EXPORT ORDINAL="1738" NAME="??1HttpResponse@network@cocos2d@@UAE@XZ" PURGE="0" COMMENT="" />
    <EXPORT ORDINAL="1739" NAME="??1IDownloadTask@network@cocos2d@@UAE@XZ" PURGE="0" COMMENT="" />
    <EXPORT ORDINAL="1740" NAME="??1ILocalizationManager@cocostudio@@UAE@XZ" PURGE="0" COMMENT="" />
    <EXPORT ORDINAL="1741" NAME="??1IMEDelegate@cocos2d@@UAE@XZ" PURGE="0" COMMENT="" />
    <EXPORT ORDINAL="1742" NAME="??1IMEDispatcher@cocos2d@@QAE@XZ" PURGE="0" COMMENT="" />
    <EXPORT ORDINAL="1743" NAME="??1Image@cocos2d@@UAE@XZ" PURGE="0" COMMENT="" />
    <EXPORT ORDINAL="1744" NAME="??1ImageView@ui@cocos2d@@UAE@XZ" PURGE="0" COMMENT="" />
    <EXPORT ORDINAL="1745" NAME="??1ImageViewReader@cocostudio@@UAE@XZ" PURGE="0" COMMENT="" />
    <EXPORT ORDINAL="1746" NAME="??1IndexBuffer@cocos2d@@MAE@XZ" PURGE="0" COMMENT="" />
    <EXPORT ORDINAL="1747" NAME="??1InnerActionFrame@timeline@cocostudio@@UAE@XZ" PURGE="0" COMMENT="" />
    <EXPORT ORDINAL="1748" NAME="??1InputDelegate@cocostudio@@UAE@XZ" PURGE="0" COMMENT="" />
    <EXPORT ORDINAL="1749" NAME="??1Invocation@extension@cocos2d@@UAE@XZ" PURGE="0" COMMENT="" />
    <EXPORT ORDINAL="1750" NAME="??1JsonLocalizationManager@cocostudio@@MAE@XZ" PURGE="0" COMMENT="" />
    <EXPORT ORDINAL="1751" NAME="??1JumpBy@cocos2d@@UAE@XZ" PURGE="0" COMMENT="" />
    <EXPORT ORDINAL="1752" NAME="??1JumpTiles3D@cocos2d@@UAE@XZ" PURGE="0" COMMENT="" />
    <EXPORT ORDINAL="1753" NAME="??1JumpTo@cocos2d@@UAE@XZ" PURGE="0" COMMENT="" />
    <EXPORT ORDINAL="1754" NAME="??1Label@cocos2d@@UAE@XZ" PURGE="0" COMMENT="" />
    <EXPORT ORDINAL="1755" NAME="??1LabelAtlas@cocos2d@@UAE@XZ" PURGE="0" COMMENT="" />
    <EXPORT ORDINAL="1756" NAME="??1LabelBMFont@cocos2d@@UAE@XZ" PURGE="0" COMMENT="" />
    <EXPORT ORDINAL="1757" NAME="??1LabelBMFontLoader@cocosbuilder@@UAE@XZ" PURGE="0" COMMENT="" />
    <EXPORT ORDINAL="1758" NAME="??1LabelProtocol@cocos2d@@UAE@XZ" PURGE="0" COMMENT="" />
    <EXPORT ORDINAL="1759" NAME="??1LabelTTF@cocos2d@@UAE@XZ" PURGE="0" COMMENT="" />
    <EXPORT ORDINAL="1760" NAME="??1LabelTTFLoader@cocosbuilder@@UAE@XZ" PURGE="0" COMMENT="" />
    <EXPORT ORDINAL="1761" NAME="??1Layer@cocos2d@@UAE@XZ" PURGE="0" COMMENT="" />
    <EXPORT ORDINAL="1762" NAME="??1LayerColor@cocos2d@@UAE@XZ" PURGE="0" COMMENT="" />
    <EXPORT ORDINAL="1763" NAME="??1LayerColorLoader@cocosbuilder@@UAE@XZ" PURGE="0" COMMENT="" />
    <EXPORT ORDINAL="1764" NAME="??1LayerGradient@cocos2d@@UAE@XZ" PURGE="0" COMMENT="" />
    <EXPORT ORDINAL="1765" NAME="??1LayerGradientLoader@cocosbuilder@@UAE@XZ" PURGE="0" COMMENT="" />
    <EXPORT ORDINAL="1766" NAME="??1LayerLoader@cocosbuilder@@UAE@XZ" PURGE="0" COMMENT="" />
    <EXPORT ORDINAL="1767" NAME="??1LayerMultiplex@cocos2d@@UAE@XZ" PURGE="0" COMMENT="" />
    <EXPORT ORDINAL="1768" NAME="??1Layout@ui@cocos2d@@UAE@XZ" PURGE="0" COMMENT="" />
    <EXPORT ORDINAL="1769" NAME="??1LayoutComponent@ui@cocos2d@@UAE@XZ" PURGE="0" COMMENT="" />
    <EXPORT ORDINAL="1770" NAME="??1LayoutManager@ui@cocos2d@@UAE@XZ" PURGE="0" COMMENT="" />
    <EXPORT ORDINAL="1771" NAME="??1LayoutParameter@ui@cocos2d@@UAE@XZ" PURGE="0" COMMENT="" />
    <EXPORT ORDINAL="1772" NAME="??1LayoutParameterProtocol@ui@cocos2d@@UAE@XZ" PURGE="0" COMMENT="" />
    <EXPORT ORDINAL="1773" NAME="??1LayoutProtocol@ui@cocos2d@@UAE@XZ" PURGE="0" COMMENT="" />
    <EXPORT ORDINAL="1774" NAME="??1LayoutReader@cocostudio@@UAE@XZ" PURGE="0" COMMENT="" />
    <EXPORT ORDINAL="1775" NAME="??1Lens3D@cocos2d@@UAE@XZ" PURGE="0" COMMENT="" />
    <EXPORT ORDINAL="1776" NAME="??1Light3DReader@cocostudio@@UAE@XZ" PURGE="0" COMMENT="" />
    <EXPORT ORDINAL="1777" NAME="??1LinearHorizontalLayoutManager@ui@cocos2d@@EAE@XZ" PURGE="0" COMMENT="" />
    <EXPORT ORDINAL="1778" NAME="??1LinearLayoutParameter@ui@cocos2d@@UAE@XZ" PURGE="0" COMMENT="" />
    <EXPORT ORDINAL="1779" NAME="??1LinearVerticalLayoutManager@ui@cocos2d@@EAE@XZ" PURGE="0" COMMENT="" />
    <EXPORT ORDINAL="1780" NAME="??1Liquid@cocos2d@@UAE@XZ" PURGE="0" COMMENT="" />
    <EXPORT ORDINAL="1781" NAME="??1ListView@ui@cocos2d@@UAE@XZ" PURGE="0" COMMENT="" />
    <EXPORT ORDINAL="1782" NAME="??1ListViewReader@cocostudio@@UAE@XZ" PURGE="0" COMMENT="" />
    <EXPORT ORDINAL="1783" NAME="??1LoadingBar@ui@cocos2d@@UAE@XZ" PURGE="0" COMMENT="" />
    <EXPORT ORDINAL="1784" NAME="??1LoadingBarReader@cocostudio@@UAE@XZ" PURGE="0" COMMENT="" />
    <EXPORT ORDINAL="1785" NAME="??1Manifest@extension@cocos2d@@UAE@XZ" PURGE="0" COMMENT="" />
    <EXPORT ORDINAL="1786" NAME="??1Mat4@cocos2d@@QAE@XZ" PURGE="0" COMMENT="" />
    <EXPORT ORDINAL="1787" NAME="??1Material@cocos2d@@MAE@XZ" PURGE="0" COMMENT="" />
    <EXPORT ORDINAL="1788" NAME="??1MemPool@tinyxml2@@UAE@XZ" PURGE="0" COMMENT="" />
    <EXPORT ORDINAL="1789" NAME="??1Menu@cocos2d@@UAE@XZ" PURGE="0" COMMENT="" />
    <EXPORT ORDINAL="1790" NAME="??1MenuItem@cocos2d@@UAE@XZ" PURGE="0" COMMENT="" />
    <EXPORT ORDINAL="1791" NAME="??1MenuItemAtlasFont@cocos2d@@UAE@XZ" PURGE="0" COMMENT="" />
    <EXPORT ORDINAL="1792" NAME="??1MenuItemFont@cocos2d@@UAE@XZ" PURGE="0" COMMENT="" />
    <EXPORT ORDINAL="1793" NAME="??1MenuItemImage@cocos2d@@UAE@XZ" PURGE="0" COMMENT="" />
    <EXPORT ORDINAL="1794" NAME="??1MenuItemImageLoader@cocosbuilder@@UAE@XZ" PURGE="0" COMMENT="" />
    <EXPORT ORDINAL="1795" NAME="??1MenuItemLabel@cocos2d@@UAE@XZ" PURGE="0" COMMENT="" />
    <EXPORT ORDINAL="1796" NAME="??1MenuItemLoader@cocosbuilder@@UAE@XZ" PURGE="0" COMMENT="" />
    <EXPORT ORDINAL="1797" NAME="??1MenuItemSprite@cocos2d@@UAE@XZ" PURGE="0" COMMENT="" />
    <EXPORT ORDINAL="1798" NAME="??1MenuItemToggle@cocos2d@@UAE@XZ" PURGE="0" COMMENT="" />
    <EXPORT ORDINAL="1799" NAME="??1MenuLoader@cocosbuilder@@UAE@XZ" PURGE="0" COMMENT="" />
    <EXPORT ORDINAL="1800" NAME="??1Mesh@cocos2d@@UAE@XZ" PURGE="0" COMMENT="" />
    <EXPORT ORDINAL="1801" NAME="??1MeshCommand@cocos2d@@UAE@XZ" PURGE="0" COMMENT="" />
    <EXPORT ORDINAL="1802" NAME="??1MeshIndexData@cocos2d@@UAE@XZ" PURGE="0" COMMENT="" />
    <EXPORT ORDINAL="1803" NAME="??1MeshSkin@cocos2d@@UAE@XZ" PURGE="0" COMMENT="" />
    <EXPORT ORDINAL="1804" NAME="??1MeshVertexData@cocos2d@@UAE@XZ" PURGE="0" COMMENT="" />
    <EXPORT ORDINAL="1805" NAME="??1MotionStreak3D@cocos2d@@UAE@XZ" PURGE="0" COMMENT="" />
    <EXPORT ORDINAL="1806" NAME="??1MotionStreak@cocos2d@@UAE@XZ" PURGE="0" COMMENT="" />
    <EXPORT ORDINAL="1807" NAME="??1MoveBy@cocos2d@@UAE@XZ" PURGE="0" COMMENT="" />
    <EXPORT ORDINAL="1808" NAME="??1MoveTo@cocos2d@@UAE@XZ" PURGE="0" COMMENT="" />
    <EXPORT ORDINAL="1809" NAME="??1MovementBoneData@cocostudio@@UAE@XZ" PURGE="0" COMMENT="" />
    <EXPORT ORDINAL="1810" NAME="??1MovementData@cocostudio@@UAE@XZ" PURGE="0" COMMENT="" />
    <EXPORT ORDINAL="1811" NAME="??1NavMesh@cocos2d@@UAE@XZ" PURGE="0" COMMENT="" />
    <EXPORT ORDINAL="1812" NAME="??1NavMeshAgent@cocos2d@@UAE@XZ" PURGE="0" COMMENT="" />
    <EXPORT ORDINAL="1813" NAME="??1NavMeshObstacle@cocos2d@@UAE@XZ" PURGE="0" COMMENT="" />
    <EXPORT ORDINAL="1814" NAME="??1NinePatchImageParser@cocos2d@@UAE@XZ" PURGE="0" COMMENT="" />
    <EXPORT ORDINAL="1815" NAME="??1Node3DReader@cocostudio@@UAE@XZ" PURGE="0" COMMENT="" />
    <EXPORT ORDINAL="1816" NAME="??1Node@cocos2d@@UAE@XZ" PURGE="0" COMMENT="" />
    <EXPORT ORDINAL="1817" NAME="??1NodeGrid@cocos2d@@UAE@XZ" PURGE="0" COMMENT="" />
    <EXPORT ORDINAL="1818" NAME="??1NodeLoader@cocosbuilder@@UAE@XZ" PURGE="0" COMMENT="" />
    <EXPORT ORDINAL="1819" NAME="??1NodeLoaderLibrary@cocosbuilder@@UAE@XZ" PURGE="0" COMMENT="" />
    <EXPORT ORDINAL="1820" NAME="??1NodeLoaderListener@cocosbuilder@@UAE@XZ" PURGE="0" COMMENT="" />
    <EXPORT ORDINAL="1821" NAME="??1NodeReader@cocostudio@@UAE@XZ" PURGE="0" COMMENT="" />
    <EXPORT ORDINAL="1822" NAME="??1NodeReaderProtocol@cocostudio@@UAE@XZ" PURGE="0" COMMENT="" />
    <EXPORT ORDINAL="1823" NAME="??1NotificationObserver@cocos2d@@UAE@XZ" PURGE="0" COMMENT="" />
    <EXPORT ORDINAL="1824" NAME="??1OBB@cocos2d@@QAE@XZ" PURGE="0" COMMENT="" />
    <EXPORT ORDINAL="1825" NAME="??1ObjectFactory@cocos2d@@MAE@XZ" PURGE="0" COMMENT="" />
    <EXPORT ORDINAL="1826" NAME="??1OffMeshLinkData@cocos2d@@QAE@XZ" PURGE="0" COMMENT="" />
    <EXPORT ORDINAL="1827" NAME="??1OrbitCamera@cocos2d@@UAE@XZ" PURGE="0" COMMENT="" />
    <EXPORT ORDINAL="1828" NAME="??1PUAbstractNode@cocos2d@@UAE@XZ" PURGE="0" COMMENT="" />
    <EXPORT ORDINAL="1829" NAME="??1PUAffector@cocos2d@@UAE@XZ" PURGE="0" COMMENT="" />
    <EXPORT ORDINAL="1830" NAME="??1PUAlignAffector@cocos2d@@UAE@XZ" PURGE="0" COMMENT="" />
    <EXPORT ORDINAL="1831" NAME="??1PUAtomAbstractNode@cocos2d@@UAE@XZ" PURGE="0" COMMENT="" />
    <EXPORT ORDINAL="1832" NAME="??1PUBaseCollider@cocos2d@@UAE@XZ" PURGE="0" COMMENT="" />
    <EXPORT ORDINAL="1833" NAME="??1PUBaseForceAffector@cocos2d@@UAE@XZ" PURGE="0" COMMENT="" />
    <EXPORT ORDINAL="1834" NAME="??1PUBeamRender@cocos2d@@UAE@XZ" PURGE="0" COMMENT="" />
    <EXPORT ORDINAL="1835" NAME="??1PUBehaviour@cocos2d@@UAE@XZ" PURGE="0" COMMENT="" />
    <EXPORT ORDINAL="1836" NAME="??1PUBoxCollider@cocos2d@@UAE@XZ" PURGE="0" COMMENT="" />
    <EXPORT ORDINAL="1837" NAME="??1PUCircleEmitter@cocos2d@@UAE@XZ" PURGE="0" COMMENT="" />
    <EXPORT ORDINAL="1838" NAME="??1PUCollisionAvoidanceAffector@cocos2d@@UAE@XZ" PURGE="0" COMMENT="" />
    <EXPORT ORDINAL="1839" NAME="??1PUColorAffector@cocos2d@@UAE@XZ" PURGE="0" COMMENT="" />
    <EXPORT ORDINAL="1840" NAME="??1PUDoAffectorEventHandler@cocos2d@@UAE@XZ" PURGE="0" COMMENT="" />
    <EXPORT ORDINAL="1841" NAME="??1PUDoEnableComponentEventHandler@cocos2d@@UAE@XZ" PURGE="0" COMMENT="" />
    <EXPORT ORDINAL="1842" NAME="??1PUDoExpireEventHandler@cocos2d@@UAE@XZ" PURGE="0" COMMENT="" />
    <EXPORT ORDINAL="1843" NAME="??1PUDoFreezeEventHandler@cocos2d@@UAE@XZ" PURGE="0" COMMENT="" />
    <EXPORT ORDINAL="1844" NAME="??1PUDoPlacementParticleEventHandler@cocos2d@@UAE@XZ" PURGE="0" COMMENT="" />
    <EXPORT ORDINAL="1845" NAME="??1PUDoScaleEventHandler@cocos2d@@UAE@XZ" PURGE="0" COMMENT="" />
    <EXPORT ORDINAL="1846" NAME="??1PUDoStopSystemEventHandler@cocos2d@@UAE@XZ" PURGE="0" COMMENT="" />
    <EXPORT ORDINAL="1847" NAME="??1PUDynamicAttribute@cocos2d@@UAE@XZ" PURGE="0" COMMENT="" />
    <EXPORT ORDINAL="1848" NAME="??1PUDynamicAttributeCurved@cocos2d@@UAE@XZ" PURGE="0" COMMENT="" />
    <EXPORT ORDINAL="1849" NAME="??1PUDynamicAttributeFixed@cocos2d@@UAE@XZ" PURGE="0" COMMENT="" />
    <EXPORT ORDINAL="1850" NAME="??1PUDynamicAttributeOscillate@cocos2d@@UAE@XZ" PURGE="0" COMMENT="" />
    <EXPORT ORDINAL="1851" NAME="??1PUDynamicAttributeRandom@cocos2d@@UAE@XZ" PURGE="0" COMMENT="" />
    <EXPORT ORDINAL="1852" NAME="??1PUEmitter@cocos2d@@UAE@XZ" PURGE="0" COMMENT="" />
    <EXPORT ORDINAL="1853" NAME="??1PUEventHandler@cocos2d@@UAE@XZ" PURGE="0" COMMENT="" />
    <EXPORT ORDINAL="1854" NAME="??1PUFlockCenteringAffector@cocos2d@@UAE@XZ" PURGE="0" COMMENT="" />
    <EXPORT ORDINAL="1855" NAME="??1PUForceFieldAffector@cocos2d@@UAE@XZ" PURGE="0" COMMENT="" />
    <EXPORT ORDINAL="1856" NAME="??1PUGeometryRotator@cocos2d@@UAE@XZ" PURGE="0" COMMENT="" />
    <EXPORT ORDINAL="1857" NAME="??1PUGravityAffector@cocos2d@@UAE@XZ" PURGE="0" COMMENT="" />
    <EXPORT ORDINAL="1858" NAME="??1PUJetAffector@cocos2d@@UAE@XZ" PURGE="0" COMMENT="" />
    <EXPORT ORDINAL="1859" NAME="??1PULineAffector@cocos2d@@UAE@XZ" PURGE="0" COMMENT="" />
    <EXPORT ORDINAL="1860" NAME="??1PULineEmitter@cocos2d@@UAE@XZ" PURGE="0" COMMENT="" />
    <EXPORT ORDINAL="1861" NAME="??1PULinearForceAffector@cocos2d@@UAE@XZ" PURGE="0" COMMENT="" />
    <EXPORT ORDINAL="1862" NAME="??1PUListener@cocos2d@@UAE@XZ" PURGE="0" COMMENT="" />
    <EXPORT ORDINAL="1863" NAME="??1PUMaterial@cocos2d@@UAE@XZ" PURGE="0" COMMENT="" />
    <EXPORT ORDINAL="1864" NAME="??1PUMaterialCache@cocos2d@@QAE@XZ" PURGE="0" COMMENT="" />
    <EXPORT ORDINAL="1865" NAME="??1PUMeshSurfaceEmitter@cocos2d@@UAE@XZ" PURGE="0" COMMENT="" />
    <EXPORT ORDINAL="1866" NAME="??1PUObjectAbstractNode@cocos2d@@UAE@XZ" PURGE="0" COMMENT="" />
    <EXPORT ORDINAL="1867" NAME="??1PUObserver@cocos2d@@UAE@XZ" PURGE="0" COMMENT="" />
    <EXPORT ORDINAL="1868" NAME="??1PUOnClearObserver@cocos2d@@UAE@XZ" PURGE="0" COMMENT="" />
    <EXPORT ORDINAL="1869" NAME="??1PUOnCollisionObserver@cocos2d@@UAE@XZ" PURGE="0" COMMENT="" />
    <EXPORT ORDINAL="1870" NAME="??1PUOnCountObserver@cocos2d@@UAE@XZ" PURGE="0" COMMENT="" />
    <EXPORT ORDINAL="1871" NAME="??1PUOnEmissionObserver@cocos2d@@UAE@XZ" PURGE="0" COMMENT="" />
    <EXPORT ORDINAL="1872" NAME="??1PUOnEventFlagObserver@cocos2d@@UAE@XZ" PURGE="0" COMMENT="" />
    <EXPORT ORDINAL="1873" NAME="??1PUOnExpireObserver@cocos2d@@UAE@XZ" PURGE="0" COMMENT="" />
    <EXPORT ORDINAL="1874" NAME="??1PUOnPositionObserver@cocos2d@@UAE@XZ" PURGE="0" COMMENT="" />
    <EXPORT ORDINAL="1875" NAME="??1PUOnQuotaObserver@cocos2d@@UAE@XZ" PURGE="0" COMMENT="" />
    <EXPORT ORDINAL="1876" NAME="??1PUOnRandomObserver@cocos2d@@UAE@XZ" PURGE="0" COMMENT="" />
    <EXPORT ORDINAL="1877" NAME="??1PUOnTimeObserver@cocos2d@@UAE@XZ" PURGE="0" COMMENT="" />
    <EXPORT ORDINAL="1878" NAME="??1PUOnVelocityObserver@cocos2d@@UAE@XZ" PURGE="0" COMMENT="" />
    <EXPORT ORDINAL="1879" NAME="??1PUParticle3D@cocos2d@@UAE@XZ" PURGE="0" COMMENT="" />
    <EXPORT ORDINAL="1880" NAME="??1PUParticle3DBoxRender@cocos2d@@UAE@XZ" PURGE="0" COMMENT="" />
    <EXPORT ORDINAL="1881" NAME="??1PUParticle3DEntityRender@cocos2d@@UAE@XZ" PURGE="0" COMMENT="" />
    <EXPORT ORDINAL="1882" NAME="??1PUParticle3DInterParticleCollider@cocos2d@@UAE@XZ" PURGE="0" COMMENT="" />
    <EXPORT ORDINAL="1883" NAME="??1PUParticle3DModelRender@cocos2d@@UAE@XZ" PURGE="0" COMMENT="" />
    <EXPORT ORDINAL="1884" NAME="??1PUParticle3DQuadRender@cocos2d@@UAE@XZ" PURGE="0" COMMENT="" />
    <EXPORT ORDINAL="1885" NAME="??1PUParticleFollower@cocos2d@@UAE@XZ" PURGE="0" COMMENT="" />
    <EXPORT ORDINAL="1886" NAME="??1PUParticleSystem3D@cocos2d@@UAE@XZ" PURGE="0" COMMENT="" />
    <EXPORT ORDINAL="1887" NAME="??1PUPathFollower@cocos2d@@UAE@XZ" PURGE="0" COMMENT="" />
    <EXPORT ORDINAL="1888" NAME="??1PUPlaneCollider@cocos2d@@UAE@XZ" PURGE="0" COMMENT="" />
    <EXPORT ORDINAL="1889" NAME="??1PUPointEmitter@cocos2d@@UAE@XZ" PURGE="0" COMMENT="" />
    <EXPORT ORDINAL="1890" NAME="??1PUPositionEmitter@cocos2d@@UAE@XZ" PURGE="0" COMMENT="" />
    <EXPORT ORDINAL="1891" NAME="??1PUPropertyAbstractNode@cocos2d@@UAE@XZ" PURGE="0" COMMENT="" />
    <EXPORT ORDINAL="1892" NAME="??1PURandomiser@cocos2d@@UAE@XZ" PURGE="0" COMMENT="" />
    <EXPORT ORDINAL="1893" NAME="??1PURender@cocos2d@@UAE@XZ" PURGE="0" COMMENT="" />
    <EXPORT ORDINAL="1894" NAME="??1PURibbonTrailRender@cocos2d@@UAE@XZ" PURGE="0" COMMENT="" />
    <EXPORT ORDINAL="1895" NAME="??1PUScaleAffector@cocos2d@@UAE@XZ" PURGE="0" COMMENT="" />
    <EXPORT ORDINAL="1896" NAME="??1PUScaleVelocityAffector@cocos2d@@UAE@XZ" PURGE="0" COMMENT="" />
    <EXPORT ORDINAL="1897" NAME="??1PUScriptCompiler@cocos2d@@EAE@XZ" PURGE="0" COMMENT="" />
    <EXPORT ORDINAL="1898" NAME="??1PUSineForceAffector@cocos2d@@UAE@XZ" PURGE="0" COMMENT="" />
    <EXPORT ORDINAL="1899" NAME="??1PUSlaveBehaviour@cocos2d@@UAE@XZ" PURGE="0" COMMENT="" />
    <EXPORT ORDINAL="1900" NAME="??1PUSlaveEmitter@cocos2d@@UAE@XZ" PURGE="0" COMMENT="" />
    <EXPORT ORDINAL="1901" NAME="??1PUSphereCollider@cocos2d@@UAE@XZ" PURGE="0" COMMENT="" />
    <EXPORT ORDINAL="1902" NAME="??1PUSphereRender@cocos2d@@UAE@XZ" PURGE="0" COMMENT="" />
    <EXPORT ORDINAL="1903" NAME="??1PUSphereSurfaceEmitter@cocos2d@@UAE@XZ" PURGE="0" COMMENT="" />
    <EXPORT ORDINAL="1904" NAME="??1PUTextureAnimator@cocos2d@@UAE@XZ" PURGE="0" COMMENT="" />
    <EXPORT ORDINAL="1905" NAME="??1PUTextureRotator@cocos2d@@UAE@XZ" PURGE="0" COMMENT="" />
    <EXPORT ORDINAL="1906" NAME="??1PUVelocityMatchingAffector@cocos2d@@UAE@XZ" PURGE="0" COMMENT="" />
    <EXPORT ORDINAL="1907" NAME="??1PUVortexAffector@cocos2d@@UAE@XZ" PURGE="0" COMMENT="" />
    <EXPORT ORDINAL="1908" NAME="??1PageTurn3D@cocos2d@@UAE@XZ" PURGE="0" COMMENT="" />
    <EXPORT ORDINAL="1909" NAME="??1PageView@ui@cocos2d@@UAE@XZ" PURGE="0" COMMENT="" />
    <EXPORT ORDINAL="1910" NAME="??1PageViewReader@cocostudio@@UAE@XZ" PURGE="0" COMMENT="" />
    <EXPORT ORDINAL="1911" NAME="??1ParallaxNode@cocos2d@@UAE@XZ" PURGE="0" COMMENT="" />
    <EXPORT ORDINAL="1912" NAME="??1Particle3D@cocos2d@@UAE@XZ" PURGE="0" COMMENT="" />
    <EXPORT ORDINAL="1913" NAME="??1Particle3DAffector@cocos2d@@UAE@XZ" PURGE="0" COMMENT="" />
    <EXPORT ORDINAL="1914" NAME="??1Particle3DEmitter@cocos2d@@UAE@XZ" PURGE="0" COMMENT="" />
    <EXPORT ORDINAL="1915" NAME="??1Particle3DModelRender@cocos2d@@UAE@XZ" PURGE="0" COMMENT="" />
    <EXPORT ORDINAL="1916" NAME="??1Particle3DQuadRender@cocos2d@@UAE@XZ" PURGE="0" COMMENT="" />
    <EXPORT ORDINAL="1917" NAME="??1Particle3DReader@cocostudio@@UAE@XZ" PURGE="0" COMMENT="" />
    <EXPORT ORDINAL="1918" NAME="??1Particle3DRender@cocos2d@@UAE@XZ" PURGE="0" COMMENT="" />
    <EXPORT ORDINAL="1919" NAME="??1ParticleBatchNode@cocos2d@@UAE@XZ" PURGE="0" COMMENT="" />
    <EXPORT ORDINAL="1920" NAME="??1ParticleDisplayData@cocostudio@@UAE@XZ" PURGE="0" COMMENT="" />
    <EXPORT ORDINAL="1921" NAME="??1ParticleExplosion@cocos2d@@UAE@XZ" PURGE="0" COMMENT="" />
    <EXPORT ORDINAL="1922" NAME="??1ParticleFire@cocos2d@@UAE@XZ" PURGE="0" COMMENT="" />
    <EXPORT ORDINAL="1923" NAME="??1ParticleFireworks@cocos2d@@UAE@XZ" PURGE="0" COMMENT="" />
    <EXPORT ORDINAL="1924" NAME="??1ParticleFlower@cocos2d@@UAE@XZ" PURGE="0" COMMENT="" />
    <EXPORT ORDINAL="1925" NAME="??1ParticleGalaxy@cocos2d@@UAE@XZ" PURGE="0" COMMENT="" />
    <EXPORT ORDINAL="1926" NAME="??1ParticleMeteor@cocos2d@@UAE@XZ" PURGE="0" COMMENT="" />
    <EXPORT ORDINAL="1927" NAME="??1ParticleRain@cocos2d@@UAE@XZ" PURGE="0" COMMENT="" />
    <EXPORT ORDINAL="1928" NAME="??1ParticleReader@cocostudio@@UAE@XZ" PURGE="0" COMMENT="" />
    <EXPORT ORDINAL="1929" NAME="??1ParticleSmoke@cocos2d@@UAE@XZ" PURGE="0" COMMENT="" />
    <EXPORT ORDINAL="1930" NAME="??1ParticleSnow@cocos2d@@UAE@XZ" PURGE="0" COMMENT="" />
    <EXPORT ORDINAL="1931" NAME="??1ParticleSpiral@cocos2d@@UAE@XZ" PURGE="0" COMMENT="" />
    <EXPORT ORDINAL="1932" NAME="??1ParticleSun@cocos2d@@UAE@XZ" PURGE="0" COMMENT="" />
    <EXPORT ORDINAL="1933" NAME="??1ParticleSystem3D@cocos2d@@UAE@XZ" PURGE="0" COMMENT="" />
    <EXPORT ORDINAL="1934" NAME="??1ParticleSystem@cocos2d@@UAE@XZ" PURGE="0" COMMENT="" />
    <EXPORT ORDINAL="1935" NAME="??1ParticleSystemQuad@cocos2d@@UAE@XZ" PURGE="0" COMMENT="" />
    <EXPORT ORDINAL="1936" NAME="??1ParticleSystemQuadLoader@cocosbuilder@@UAE@XZ" PURGE="0" COMMENT="" />
    <EXPORT ORDINAL="1937" NAME="??1Pass@cocos2d@@MAE@XZ" PURGE="0" COMMENT="" />
    <EXPORT ORDINAL="1938" NAME="??1Physics3D6DofConstraint@cocos2d@@UAE@XZ" PURGE="0" COMMENT="" />
    <EXPORT ORDINAL="1939" NAME="??1Physics3DCollider@cocos2d@@UAE@XZ" PURGE="0" COMMENT="" />
    <EXPORT ORDINAL="1940" NAME="??1Physics3DColliderDes@cocos2d@@QAE@XZ" PURGE="0" COMMENT="" />
    <EXPORT ORDINAL="1941" NAME="??1Physics3DCollisionInfo@cocos2d@@QAE@XZ" PURGE="0" COMMENT="" />
    <EXPORT ORDINAL="1942" NAME="??1Physics3DComponent@cocos2d@@UAE@XZ" PURGE="0" COMMENT="" />
    <EXPORT ORDINAL="1943" NAME="??1Physics3DConeTwistConstraint@cocos2d@@UAE@XZ" PURGE="0" COMMENT="" />
    <EXPORT ORDINAL="1944" NAME="??1Physics3DConstraint@cocos2d@@MAE@XZ" PURGE="0" COMMENT="" />
    <EXPORT ORDINAL="1945" NAME="??1Physics3DHingeConstraint@cocos2d@@UAE@XZ" PURGE="0" COMMENT="" />
    <EXPORT ORDINAL="1946" NAME="??1Physics3DObject@cocos2d@@UAE@XZ" PURGE="0" COMMENT="" />
    <EXPORT ORDINAL="1947" NAME="??1Physics3DPointToPointConstraint@cocos2d@@UAE@XZ" PURGE="0" COMMENT="" />
    <EXPORT ORDINAL="1948" NAME="??1Physics3DRigidBody@cocos2d@@UAE@XZ" PURGE="0" COMMENT="" />
    <EXPORT ORDINAL="1949" NAME="??1Physics3DRigidBodyDes@cocos2d@@QAE@XZ" PURGE="0" COMMENT="" />
    <EXPORT ORDINAL="1950" NAME="??1Physics3DShape@cocos2d@@UAE@XZ" PURGE="0" COMMENT="" />
    <EXPORT ORDINAL="1951" NAME="??1Physics3DSliderConstraint@cocos2d@@UAE@XZ" PURGE="0" COMMENT="" />
    <EXPORT ORDINAL="1952" NAME="??1Physics3DWorld@cocos2d@@UAE@XZ" PURGE="0" COMMENT="" />
    <EXPORT ORDINAL="1953" NAME="??1Physics3DWorldDes@cocos2d@@QAE@XZ" PURGE="0" COMMENT="" />
    <EXPORT ORDINAL="1954" NAME="??1PhysicsBody@cocos2d@@MAE@XZ" PURGE="0" COMMENT="" />
    <EXPORT ORDINAL="1955" NAME="??1PhysicsContact@cocos2d@@EAE@XZ" PURGE="0" COMMENT="" />
    <EXPORT ORDINAL="1956" NAME="??1PhysicsContactData@cocos2d@@QAE@XZ" PURGE="0" COMMENT="" />
    <EXPORT ORDINAL="1957" NAME="??1PhysicsContactPostSolve@cocos2d@@AAE@XZ" PURGE="0" COMMENT="" />
    <EXPORT ORDINAL="1958" NAME="??1PhysicsContactPreSolve@cocos2d@@AAE@XZ" PURGE="0" COMMENT="" />
    <EXPORT ORDINAL="1959" NAME="??1PhysicsDebugNode@extension@cocos2d@@UAE@XZ" PURGE="0" COMMENT="" />
    <EXPORT ORDINAL="1960" NAME="??1PhysicsJoint@cocos2d@@MAE@XZ" PURGE="0" COMMENT="" />
    <EXPORT ORDINAL="1961" NAME="??1PhysicsJointDistance@cocos2d@@MAE@XZ" PURGE="0" COMMENT="" />
    <EXPORT ORDINAL="1962" NAME="??1PhysicsJointFixed@cocos2d@@MAE@XZ" PURGE="0" COMMENT="" />
    <EXPORT ORDINAL="1963" NAME="??1PhysicsJointGear@cocos2d@@MAE@XZ" PURGE="0" COMMENT="" />
    <EXPORT ORDINAL="1964" NAME="??1PhysicsJointGroove@cocos2d@@MAE@XZ" PURGE="0" COMMENT="" />
    <EXPORT ORDINAL="1965" NAME="??1PhysicsJointLimit@cocos2d@@MAE@XZ" PURGE="0" COMMENT="" />
    <EXPORT ORDINAL="1966" NAME="??1PhysicsJointMotor@cocos2d@@MAE@XZ" PURGE="0" COMMENT="" />
    <EXPORT ORDINAL="1967" NAME="??1PhysicsJointPin@cocos2d@@MAE@XZ" PURGE="0" COMMENT="" />
    <EXPORT ORDINAL="1968" NAME="??1PhysicsJointRatchet@cocos2d@@MAE@XZ" PURGE="0" COMMENT="" />
    <EXPORT ORDINAL="1969" NAME="??1PhysicsJointRotaryLimit@cocos2d@@MAE@XZ" PURGE="0" COMMENT="" />
    <EXPORT ORDINAL="1970" NAME="??1PhysicsJointRotarySpring@cocos2d@@MAE@XZ" PURGE="0" COMMENT="" />
    <EXPORT ORDINAL="1971" NAME="??1PhysicsJointSpring@cocos2d@@MAE@XZ" PURGE="0" COMMENT="" />
    <EXPORT ORDINAL="1972" NAME="??1PhysicsShape@cocos2d@@MAE@XZ" PURGE="0" COMMENT="" />
    <EXPORT ORDINAL="1973" NAME="??1PhysicsShapeBox@cocos2d@@MAE@XZ" PURGE="0" COMMENT="" />
    <EXPORT ORDINAL="1974" NAME="??1PhysicsShapeCircle@cocos2d@@MAE@XZ" PURGE="0" COMMENT="" />
    <EXPORT ORDINAL="1975" NAME="??1PhysicsShapeEdgeBox@cocos2d@@MAE@XZ" PURGE="0" COMMENT="" />
    <EXPORT ORDINAL="1976" NAME="??1PhysicsShapeEdgeChain@cocos2d@@MAE@XZ" PURGE="0" COMMENT="" />
    <EXPORT ORDINAL="1977" NAME="??1PhysicsShapeEdgePolygon@cocos2d@@MAE@XZ" PURGE="0" COMMENT="" />
    <EXPORT ORDINAL="1978" NAME="??1PhysicsShapeEdgeSegment@cocos2d@@MAE@XZ" PURGE="0" COMMENT="" />
    <EXPORT ORDINAL="1979" NAME="??1PhysicsShapePolygon@cocos2d@@MAE@XZ" PURGE="0" COMMENT="" />
    <EXPORT ORDINAL="1980" NAME="??1PhysicsSprite3D@cocos2d@@UAE@XZ" PURGE="0" COMMENT="" />
    <EXPORT ORDINAL="1981" NAME="??1PhysicsSprite@extension@cocos2d@@UAE@XZ" PURGE="0" COMMENT="" />
    <EXPORT ORDINAL="1982" NAME="??1PhysicsWorld@cocos2d@@MAE@XZ" PURGE="0" COMMENT="" />
    <EXPORT ORDINAL="1983" NAME="??1Place@cocos2d@@UAE@XZ" PURGE="0" COMMENT="" />
    <EXPORT ORDINAL="1984" NAME="??1Plane@cocos2d@@QAE@XZ" PURGE="0" COMMENT="" />
    <EXPORT ORDINAL="1985" NAME="??1PlayableFrame@timeline@cocostudio@@UAE@XZ" PURGE="0" COMMENT="" />
    <EXPORT ORDINAL="1986" NAME="??1PlayableProtocol@cocos2d@@UAE@XZ" PURGE="0" COMMENT="" />
    <EXPORT ORDINAL="1987" NAME="??1PointArray@cocos2d@@UAE@XZ" PURGE="0" COMMENT="" />
    <EXPORT ORDINAL="1988" NAME="??1PointLight@cocos2d@@UAE@XZ" PURGE="0" COMMENT="" />
    <EXPORT ORDINAL="1989" NAME="??1PointSprite@cocos2d@@QAE@XZ" PURGE="0" COMMENT="" />
    <EXPORT ORDINAL="1990" NAME="??1PolygonInfo@cocos2d@@QAE@XZ" PURGE="0" COMMENT="" />
    <EXPORT ORDINAL="1991" NAME="??1PoolManager@cocos2d@@AAE@XZ" PURGE="0" COMMENT="" />
    <EXPORT ORDINAL="1992" NAME="??1PositionFrame@timeline@cocostudio@@UAE@XZ" PURGE="0" COMMENT="" />
    <EXPORT ORDINAL="1993" NAME="??1PrettyPrinter@cocos2d@@UAE@XZ" PURGE="0" COMMENT="" />
    <EXPORT ORDINAL="1994" NAME="??1Primitive@cocos2d@@MAE@XZ" PURGE="0" COMMENT="" />
    <EXPORT ORDINAL="1995" NAME="??1PrimitiveCommand@cocos2d@@UAE@XZ" PURGE="0" COMMENT="" />
    <EXPORT ORDINAL="1996" NAME="??1ProcessBase@cocostudio@@UAE@XZ" PURGE="0" COMMENT="" />
    <EXPORT ORDINAL="1997" NAME="??1Profiler@cocos2d@@UAE@XZ" PURGE="0" COMMENT="" />
    <EXPORT ORDINAL="1998" NAME="??1ProgressFromTo@cocos2d@@UAE@XZ" PURGE="0" COMMENT="" />
    <EXPORT ORDINAL="1999" NAME="??1ProgressTimer@cocos2d@@UAE@XZ" PURGE="0" COMMENT="" />
    <EXPORT ORDINAL="2000" NAME="??1ProgressTo@cocos2d@@UAE@XZ" PURGE="0" COMMENT="" />
    <EXPORT ORDINAL="2001" NAME="??1ProjectNodeReader@cocostudio@@UAE@XZ" PURGE="0" COMMENT="" />
    <EXPORT ORDINAL="2002" NAME="??1Properties@cocos2d@@QAE@XZ" PURGE="0" COMMENT="" />
    <EXPORT ORDINAL="2003" NAME="??1ProtectedNode@cocos2d@@UAE@XZ" PURGE="0" COMMENT="" />
    <EXPORT ORDINAL="2004" NAME="??1Quad2@cocos2d@@QAE@XZ" PURGE="0" COMMENT="" />
    <EXPORT ORDINAL="2005" NAME="??1Quad3@cocos2d@@QAE@XZ" PURGE="0" COMMENT="" />
    <EXPORT ORDINAL="2006" NAME="??1QuadCommand@cocos2d@@UAE@XZ" PURGE="0" COMMENT="" />
    <EXPORT ORDINAL="2007" NAME="??1QuadTree@Terrain@cocos2d@@QAE@XZ" PURGE="0" COMMENT="" />
    <EXPORT ORDINAL="2008" NAME="??1Quaternion@cocos2d@@QAE@XZ" PURGE="0" COMMENT="" />
    <EXPORT ORDINAL="2009" NAME="??1RadioButton@ui@cocos2d@@UAE@XZ" PURGE="0" COMMENT="" />
    <EXPORT ORDINAL="2010" NAME="??1RadioButtonGroup@ui@cocos2d@@UAE@XZ" PURGE="0" COMMENT="" />
    <EXPORT ORDINAL="2011" NAME="??1Ray@cocos2d@@QAE@XZ" PURGE="0" COMMENT="" />
    <EXPORT ORDINAL="2012" NAME="??1Rect@cocos2d@@QAE@XZ" PURGE="0" COMMENT="" />
    <EXPORT ORDINAL="2013" NAME="??1Ref@cocos2d@@UAE@XZ" PURGE="0" COMMENT="" />
    <EXPORT ORDINAL="2014" NAME="??1RelativeBox@ui@cocos2d@@UAE@XZ" PURGE="0" COMMENT="" />
    <EXPORT ORDINAL="2015" NAME="??1RelativeLayoutManager@ui@cocos2d@@EAE@XZ" PURGE="0" COMMENT="" />
    <EXPORT ORDINAL="2016" NAME="??1RelativeLayoutParameter@ui@cocos2d@@UAE@XZ" PURGE="0" COMMENT="" />
    <EXPORT ORDINAL="2017" NAME="??1RemoveSelf@cocos2d@@UAE@XZ" PURGE="0" COMMENT="" />
    <EXPORT ORDINAL="2018" NAME="??1RenderCommand@cocos2d@@MAE@XZ" PURGE="0" COMMENT="" />
    <EXPORT ORDINAL="2019" NAME="??1RenderState@cocos2d@@MAE@XZ" PURGE="0" COMMENT="" />
    <EXPORT ORDINAL="2020" NAME="??1RenderTarget@experimental@cocos2d@@UAE@XZ" PURGE="0" COMMENT="" />
    <EXPORT ORDINAL="2021" NAME="??1RenderTargetBase@experimental@cocos2d@@MAE@XZ" PURGE="0" COMMENT="" />
    <EXPORT ORDINAL="2022" NAME="??1RenderTargetDepthStencil@experimental@cocos2d@@UAE@XZ" PURGE="0" COMMENT="" />
    <EXPORT ORDINAL="2023" NAME="??1RenderTargetRenderBuffer@experimental@cocos2d@@UAE@XZ" PURGE="0" COMMENT="" />
    <EXPORT ORDINAL="2024" NAME="??1RenderTexture@cocos2d@@UAE@XZ" PURGE="0" COMMENT="" />
    <EXPORT ORDINAL="2025" NAME="??1Renderer@cocos2d@@QAE@XZ" PURGE="0" COMMENT="" />
    <EXPORT ORDINAL="2026" NAME="??1Repeat@cocos2d@@UAE@XZ" PURGE="0" COMMENT="" />
    <EXPORT ORDINAL="2027" NAME="??1RepeatForever@cocos2d@@UAE@XZ" PURGE="0" COMMENT="" />
    <EXPORT ORDINAL="2028" NAME="??1ResizeBy@cocos2d@@UAE@XZ" PURGE="0" COMMENT="" />
    <EXPORT ORDINAL="2029" NAME="??1ResizeTo@cocos2d@@UAE@XZ" PURGE="0" COMMENT="" />
    <EXPORT ORDINAL="2030" NAME="??1ResourceData@cocos2d@@QAE@XZ" PURGE="0" COMMENT="" />
    <EXPORT ORDINAL="2031" NAME="??1ReuseGrid@cocos2d@@UAE@XZ" PURGE="0" COMMENT="" />
    <EXPORT ORDINAL="2032" NAME="??1ReverseTime@cocos2d@@UAE@XZ" PURGE="0" COMMENT="" />
    <EXPORT ORDINAL="2033" NAME="??1RichElement@ui@cocos2d@@UAE@XZ" PURGE="0" COMMENT="" />
    <EXPORT ORDINAL="2034" NAME="??1RichElementCustomNode@ui@cocos2d@@UAE@XZ" PURGE="0" COMMENT="" />
    <EXPORT ORDINAL="2035" NAME="??1RichElementImage@ui@cocos2d@@UAE@XZ" PURGE="0" COMMENT="" />
    <EXPORT ORDINAL="2036" NAME="??1RichElementNewLine@ui@cocos2d@@UAE@XZ" PURGE="0" COMMENT="" />
    <EXPORT ORDINAL="2037" NAME="??1RichElementText@ui@cocos2d@@UAE@XZ" PURGE="0" COMMENT="" />
    <EXPORT ORDINAL="2038" NAME="??1RichText@ui@cocos2d@@UAE@XZ" PURGE="0" COMMENT="" />
    <EXPORT ORDINAL="2039" NAME="??1Ripple3D@cocos2d@@UAE@XZ" PURGE="0" COMMENT="" />
    <EXPORT ORDINAL="2040" NAME="??1RotateBy@cocos2d@@UAE@XZ" PURGE="0" COMMENT="" />
    <EXPORT ORDINAL="2041" NAME="??1RotateTo@cocos2d@@UAE@XZ" PURGE="0" COMMENT="" />
    <EXPORT ORDINAL="2042" NAME="??1RotationFrame@timeline@cocostudio@@UAE@XZ" PURGE="0" COMMENT="" />
    <EXPORT ORDINAL="2043" NAME="??1RotationSkewFrame@timeline@cocostudio@@UAE@XZ" PURGE="0" COMMENT="" />
    <EXPORT ORDINAL="2044" NAME="??1SAXDelegator@cocos2d@@UAE@XZ" PURGE="0" COMMENT="" />
    <EXPORT ORDINAL="2045" NAME="??1SAXParser@cocos2d@@QAE@XZ" PURGE="0" COMMENT="" />
    <EXPORT ORDINAL="2046" NAME="??1Scale9Sprite@ui@cocos2d@@UAE@XZ" PURGE="0" COMMENT="" />
    <EXPORT ORDINAL="2047" NAME="??1Scale9SpriteLoader@cocosbuilder@@UAE@XZ" PURGE="0" COMMENT="" />
    <EXPORT ORDINAL="2048" NAME="??1ScaleBy@cocos2d@@UAE@XZ" PURGE="0" COMMENT="" />
    <EXPORT ORDINAL="2049" NAME="??1ScaleFrame@timeline@cocostudio@@UAE@XZ" PURGE="0" COMMENT="" />
    <EXPORT ORDINAL="2050" NAME="??1ScaleTo@cocos2d@@UAE@XZ" PURGE="0" COMMENT="" />
    <EXPORT ORDINAL="2051" NAME="??1Scene@cocos2d@@UAE@XZ" PURGE="0" COMMENT="" />
    <EXPORT ORDINAL="2052" NAME="??1SceneReader@cocostudio@@UAE@XZ" PURGE="0" COMMENT="" />
    <EXPORT ORDINAL="2053" NAME="??1Scheduler@cocos2d@@UAE@XZ" PURGE="0" COMMENT="" />
    <EXPORT ORDINAL="2054" NAME="??1ScriptEngineManager@cocos2d@@QAE@XZ" PURGE="0" COMMENT="" />
    <EXPORT ORDINAL="2055" NAME="??1ScriptEngineProtocol@cocos2d@@UAE@XZ" PURGE="0" COMMENT="" />
    <EXPORT ORDINAL="2056" NAME="??1ScrollView@extension@cocos2d@@UAE@XZ" PURGE="0" COMMENT="" />
    <EXPORT ORDINAL="2057" NAME="??1ScrollView@ui@cocos2d@@UAE@XZ" PURGE="0" COMMENT="" />
    <EXPORT ORDINAL="2058" NAME="??1ScrollViewBar@ui@cocos2d@@UAE@XZ" PURGE="0" COMMENT="" />
    <EXPORT ORDINAL="2059" NAME="??1ScrollViewDelegate@extension@cocos2d@@UAE@XZ" PURGE="0" COMMENT="" />
    <EXPORT ORDINAL="2060" NAME="??1ScrollViewLoader@cocosbuilder@@UAE@XZ" PURGE="0" COMMENT="" />
    <EXPORT ORDINAL="2061" NAME="??1ScrollViewReader@cocostudio@@UAE@XZ" PURGE="0" COMMENT="" />
    <EXPORT ORDINAL="2062" NAME="??1Sequence@cocos2d@@UAE@XZ" PURGE="0" COMMENT="" />
    <EXPORT ORDINAL="2063" NAME="??1Shaky3D@cocos2d@@UAE@XZ" PURGE="0" COMMENT="" />
    <EXPORT ORDINAL="2064" NAME="??1ShakyTiles3D@cocos2d@@UAE@XZ" PURGE="0" COMMENT="" />
    <EXPORT ORDINAL="2065" NAME="??1ShatteredTiles3D@cocos2d@@UAE@XZ" PURGE="0" COMMENT="" />
    <EXPORT ORDINAL="2066" NAME="??1Show@cocos2d@@UAE@XZ" PURGE="0" COMMENT="" />
    <EXPORT ORDINAL="2067" NAME="??1ShuffleTiles@cocos2d@@UAE@XZ" PURGE="0" COMMENT="" />
    <EXPORT ORDINAL="2068" NAME="??1SimpleAudioEngine@CocosDenshion@@MAE@XZ" PURGE="0" COMMENT="" />
    <EXPORT ORDINAL="2069" NAME="??1SingleNodeReader@cocostudio@@UAE@XZ" PURGE="0" COMMENT="" />
    <EXPORT ORDINAL="2070" NAME="??1Skeleton3D@cocos2d@@UAE@XZ" PURGE="0" COMMENT="" />
    <EXPORT ORDINAL="2071" NAME="??1SkeletonNode@timeline@cocostudio@@UAE@XZ" PURGE="0" COMMENT="" />
    <EXPORT ORDINAL="2072" NAME="??1SkewBy@cocos2d@@UAE@XZ" PURGE="0" COMMENT="" />
    <EXPORT ORDINAL="2073" NAME="??1SkewFrame@timeline@cocostudio@@UAE@XZ" PURGE="0" COMMENT="" />
    <EXPORT ORDINAL="2074" NAME="??1SkewTo@cocos2d@@UAE@XZ" PURGE="0" COMMENT="" />
    <EXPORT ORDINAL="2075" NAME="??1Skin@cocostudio@@UAE@XZ" PURGE="0" COMMENT="" />
    <EXPORT ORDINAL="2076" NAME="??1Skybox@cocos2d@@UAE@XZ" PURGE="0" COMMENT="" />
    <EXPORT ORDINAL="2077" NAME="??1Slider@ui@cocos2d@@UAE@XZ" PURGE="0" COMMENT="" />
    <EXPORT ORDINAL="2078" NAME="??1SliderReader@cocostudio@@UAE@XZ" PURGE="0" COMMENT="" />
    <EXPORT ORDINAL="2079" NAME="??1Spawn@cocos2d@@UAE@XZ" PURGE="0" COMMENT="" />
    <EXPORT ORDINAL="2080" NAME="??1Speed@cocos2d@@UAE@XZ" PURGE="0" COMMENT="" />
    <EXPORT ORDINAL="2081" NAME="??1SplitCols@cocos2d@@UAE@XZ" PURGE="0" COMMENT="" />
    <EXPORT ORDINAL="2082" NAME="??1SplitRows@cocos2d@@UAE@XZ" PURGE="0" COMMENT="" />
    <EXPORT ORDINAL="2083" NAME="??1SpotLight@cocos2d@@UAE@XZ" PURGE="0" COMMENT="" />
    <EXPORT ORDINAL="2084" NAME="??1Sprite3D@cocos2d@@UAE@XZ" PURGE="0" COMMENT="" />
    <EXPORT ORDINAL="2085" NAME="??1Sprite3DCache@cocos2d@@QAE@XZ" PURGE="0" COMMENT="" />
    <EXPORT ORDINAL="2086" NAME="??1Sprite3DMaterial@cocos2d@@UAE@XZ" PURGE="0" COMMENT="" />
    <EXPORT ORDINAL="2087" NAME="??1Sprite3DReader@cocostudio@@UAE@XZ" PURGE="0" COMMENT="" />
    <EXPORT ORDINAL="2088" NAME="??1Sprite@cocos2d@@UAE@XZ" PURGE="0" COMMENT="" />
    <EXPORT ORDINAL="2089" NAME="??1SpriteBatchNode@cocos2d@@UAE@XZ" PURGE="0" COMMENT="" />
    <EXPORT ORDINAL="2090" NAME="??1SpriteDisplayData@cocostudio@@UAE@XZ" PURGE="0" COMMENT="" />
    <EXPORT ORDINAL="2091" NAME="??1SpriteFrame@cocos2d@@UAE@XZ" PURGE="0" COMMENT="" />
    <EXPORT ORDINAL="2092" NAME="??1SpriteFrameCache@cocos2d@@UAE@XZ" PURGE="0" COMMENT="" />
    <EXPORT ORDINAL="2093" NAME="??1SpriteFrameCacheHelper@cocostudio@@AAE@XZ" PURGE="0" COMMENT="" />
    <EXPORT ORDINAL="2094" NAME="??1SpriteLoader@cocosbuilder@@UAE@XZ" PURGE="0" COMMENT="" />
    <EXPORT ORDINAL="2095" NAME="??1SpriteReader@cocostudio@@UAE@XZ" PURGE="0" COMMENT="" />
    <EXPORT ORDINAL="2096" NAME="??1StateBlock@RenderState@cocos2d@@UAE@XZ" PURGE="0" COMMENT="" />
    <EXPORT ORDINAL="2097" NAME="??1StopGrid@cocos2d@@UAE@XZ" PURGE="0" COMMENT="" />
    <EXPORT ORDINAL="2098" NAME="??1StrPair@tinyxml2@@QAE@XZ" PURGE="0" COMMENT="" />
    <EXPORT ORDINAL="2099" NAME="??1StringUTF8@StringUtils@cocos2d@@QAE@XZ" PURGE="0" COMMENT="" />
    <EXPORT ORDINAL="2100" NAME="??1TInfo@ObjectFactory@cocos2d@@QAE@XZ" PURGE="0" COMMENT="" />
    <EXPORT ORDINAL="2101" NAME="??1TMXLayer@cocos2d@@UAE@XZ" PURGE="0" COMMENT="" />
    <EXPORT ORDINAL="2102" NAME="??1TMXLayer@experimental@cocos2d@@UAE@XZ" PURGE="0" COMMENT="" />
    <EXPORT ORDINAL="2103" NAME="??1TMXLayerInfo@cocos2d@@UAE@XZ" PURGE="0" COMMENT="" />
    <EXPORT ORDINAL="2104" NAME="??1TMXMapInfo@cocos2d@@UAE@XZ" PURGE="0" COMMENT="" />
    <EXPORT ORDINAL="2105" NAME="??1TMXObjectGroup@cocos2d@@UAE@XZ" PURGE="0" COMMENT="" />
    <EXPORT ORDINAL="2106" NAME="??1TMXTiledMap@cocos2d@@UAE@XZ" PURGE="0" COMMENT="" />
    <EXPORT ORDINAL="2107" NAME="??1TMXTiledMap@experimental@cocos2d@@MAE@XZ" PURGE="0" COMMENT="" />
    <EXPORT ORDINAL="2108" NAME="??1TMXTilesetInfo@cocos2d@@UAE@XZ" PURGE="0" COMMENT="" />
    <EXPORT ORDINAL="2109" NAME="??1TabControl@ui@cocos2d@@MAE@XZ" PURGE="0" COMMENT="" />
    <EXPORT ORDINAL="2110" NAME="??1TabHeader@ui@cocos2d@@MAE@XZ" PURGE="0" COMMENT="" />
    <EXPORT ORDINAL="2111" NAME="??1TableView@extension@cocos2d@@UAE@XZ" PURGE="0" COMMENT="" />
    <EXPORT ORDINAL="2112" NAME="??1TableViewCell@extension@cocos2d@@UAE@XZ" PURGE="0" COMMENT="" />
    <EXPORT ORDINAL="2113" NAME="??1TableViewDataSource@extension@cocos2d@@UAE@XZ" PURGE="0" COMMENT="" />
    <EXPORT ORDINAL="2114" NAME="??1TableViewDelegate@extension@cocos2d@@UAE@XZ" PURGE="0" COMMENT="" />
    <EXPORT ORDINAL="2115" NAME="??1TargetedAction@cocos2d@@UAE@XZ" PURGE="0" COMMENT="" />
    <EXPORT ORDINAL="2116" NAME="??1Technique@cocos2d@@MAE@XZ" PURGE="0" COMMENT="" />
    <EXPORT ORDINAL="2117" NAME="??1Terrain@cocos2d@@UAE@XZ" PURGE="0" COMMENT="" />
    <EXPORT ORDINAL="2118" NAME="??1TerrainData@Terrain@cocos2d@@QAE@XZ" PURGE="0" COMMENT="" />
    <EXPORT ORDINAL="2119" NAME="??1TerrainVertexData@Terrain@cocos2d@@QAE@XZ" PURGE="0" COMMENT="" />
    <EXPORT ORDINAL="2120" NAME="??1Text@ui@cocos2d@@UAE@XZ" PURGE="0" COMMENT="" />
    <EXPORT ORDINAL="2121" NAME="??1TextAtlas@ui@cocos2d@@UAE@XZ" PURGE="0" COMMENT="" />
    <EXPORT ORDINAL="2122" NAME="??1TextAtlasReader@cocostudio@@UAE@XZ" PURGE="0" COMMENT="" />
    <EXPORT ORDINAL="2123" NAME="??1TextBMFont@ui@cocos2d@@UAE@XZ" PURGE="0" COMMENT="" />
    <EXPORT ORDINAL="2124" NAME="??1TextBMFontReader@cocostudio@@UAE@XZ" PURGE="0" COMMENT="" />
    <EXPORT ORDINAL="2125" NAME="??1TextField@ui@cocos2d@@UAE@XZ" PURGE="0" COMMENT="" />
    <EXPORT ORDINAL="2126" NAME="??1TextFieldDelegate@cocos2d@@UAE@XZ" PURGE="0" COMMENT="" />
    <EXPORT ORDINAL="2127" NAME="??1TextFieldReader@cocostudio@@UAE@XZ" PURGE="0" COMMENT="" />
    <EXPORT ORDINAL="2128" NAME="??1TextFieldTTF@cocos2d@@UAE@XZ" PURGE="0" COMMENT="" />
    <EXPORT ORDINAL="2129" NAME="??1TextReader@cocostudio@@UAE@XZ" PURGE="0" COMMENT="" />
    <EXPORT ORDINAL="2130" NAME="??1Texture2D@cocos2d@@UAE@XZ" PURGE="0" COMMENT="" />
    <EXPORT ORDINAL="2131" NAME="??1TextureAtlas@cocos2d@@UAE@XZ" PURGE="0" COMMENT="" />
    <EXPORT ORDINAL="2132" NAME="??1TextureCache@cocos2d@@UAE@XZ" PURGE="0" COMMENT="" />
    <EXPORT ORDINAL="2133" NAME="??1TextureCube@cocos2d@@UAE@XZ" PURGE="0" COMMENT="" />
    <EXPORT ORDINAL="2134" NAME="??1TextureData@cocostudio@@UAE@XZ" PURGE="0" COMMENT="" />
    <EXPORT ORDINAL="2135" NAME="??1TextureFrame@timeline@cocostudio@@UAE@XZ" PURGE="0" COMMENT="" />
    <EXPORT ORDINAL="2136" NAME="??1TextureProtocol@cocos2d@@UAE@XZ" PURGE="0" COMMENT="" />
    <EXPORT ORDINAL="2137" NAME="??1TileMapAtlas@cocos2d@@UAE@XZ" PURGE="0" COMMENT="" />
    <EXPORT ORDINAL="2138" NAME="??1TiledGrid3D@cocos2d@@UAE@XZ" PURGE="0" COMMENT="" />
    <EXPORT ORDINAL="2139" NAME="??1TiledGrid3DAction@cocos2d@@UAE@XZ" PURGE="0" COMMENT="" />
    <EXPORT ORDINAL="2140" NAME="??1Timeline@timeline@cocostudio@@UAE@XZ" PURGE="0" COMMENT="" />
    <EXPORT ORDINAL="2141" NAME="??1Timer@cocos2d@@UAE@XZ" PURGE="0" COMMENT="" />
    <EXPORT ORDINAL="2142" NAME="??1TimerScriptHandler@cocos2d@@UAE@XZ" PURGE="0" COMMENT="" />
    <EXPORT ORDINAL="2143" NAME="??1TimerTargetCallback@cocos2d@@UAE@XZ" PURGE="0" COMMENT="" />
    <EXPORT ORDINAL="2144" NAME="??1TimerTargetSelector@cocos2d@@UAE@XZ" PURGE="0" COMMENT="" />
    <EXPORT ORDINAL="2145" NAME="??1TintBy@cocos2d@@UAE@XZ" PURGE="0" COMMENT="" />
    <EXPORT ORDINAL="2146" NAME="??1TintTo@cocos2d@@UAE@XZ" PURGE="0" COMMENT="" />
    <EXPORT ORDINAL="2147" NAME="??1ToggleVisibility@cocos2d@@UAE@XZ" PURGE="0" COMMENT="" />
    <EXPORT ORDINAL="2148" NAME="??1Touch@cocos2d@@UAE@XZ" PURGE="0" COMMENT="" />
    <EXPORT ORDINAL="2149" NAME="??1TransitionCrossFade@cocos2d@@UAE@XZ" PURGE="0" COMMENT="" />
    <EXPORT ORDINAL="2150" NAME="??1TransitionEaseScene@cocos2d@@UAE@XZ" PURGE="0" COMMENT="" />
    <EXPORT ORDINAL="2151" NAME="??1TransitionFade@cocos2d@@UAE@XZ" PURGE="0" COMMENT="" />
    <EXPORT ORDINAL="2152" NAME="??1TransitionFadeBL@cocos2d@@UAE@XZ" PURGE="0" COMMENT="" />
    <EXPORT ORDINAL="2153" NAME="??1TransitionFadeDown@cocos2d@@UAE@XZ" PURGE="0" COMMENT="" />
    <EXPORT ORDINAL="2154" NAME="??1TransitionFadeTR@cocos2d@@UAE@XZ" PURGE="0" COMMENT="" />
    <EXPORT ORDINAL="2155" NAME="??1TransitionFadeUp@cocos2d@@UAE@XZ" PURGE="0" COMMENT="" />
    <EXPORT ORDINAL="2156" NAME="??1TransitionFlipAngular@cocos2d@@UAE@XZ" PURGE="0" COMMENT="" />
    <EXPORT ORDINAL="2157" NAME="??1TransitionFlipX@cocos2d@@UAE@XZ" PURGE="0" COMMENT="" />
    <EXPORT ORDINAL="2158" NAME="??1TransitionFlipY@cocos2d@@UAE@XZ" PURGE="0" COMMENT="" />
    <EXPORT ORDINAL="2159" NAME="??1TransitionJumpZoom@cocos2d@@UAE@XZ" PURGE="0" COMMENT="" />
    <EXPORT ORDINAL="2160" NAME="??1TransitionMoveInB@cocos2d@@UAE@XZ" PURGE="0" COMMENT="" />
    <EXPORT ORDINAL="2161" NAME="??1TransitionMoveInL@cocos2d@@UAE@XZ" PURGE="0" COMMENT="" />
    <EXPORT ORDINAL="2162" NAME="??1TransitionMoveInR@cocos2d@@UAE@XZ" PURGE="0" COMMENT="" />
    <EXPORT ORDINAL="2163" NAME="??1TransitionMoveInT@cocos2d@@UAE@XZ" PURGE="0" COMMENT="" />
    <EXPORT ORDINAL="2164" NAME="??1TransitionPageTurn@cocos2d@@UAE@XZ" PURGE="0" COMMENT="" />
    <EXPORT ORDINAL="2165" NAME="??1TransitionProgress@cocos2d@@UAE@XZ" PURGE="0" COMMENT="" />
    <EXPORT ORDINAL="2166" NAME="??1TransitionProgressHorizontal@cocos2d@@UAE@XZ" PURGE="0" COMMENT="" />
    <EXPORT ORDINAL="2167" NAME="??1TransitionProgressInOut@cocos2d@@UAE@XZ" PURGE="0" COMMENT="" />
    <EXPORT ORDINAL="2168" NAME="??1TransitionProgressOutIn@cocos2d@@UAE@XZ" PURGE="0" COMMENT="" />
    <EXPORT ORDINAL="2169" NAME="??1TransitionProgressRadialCCW@cocos2d@@UAE@XZ" PURGE="0" COMMENT="" />
    <EXPORT ORDINAL="2170" NAME="??1TransitionProgressRadialCW@cocos2d@@UAE@XZ" PURGE="0" COMMENT="" />
    <EXPORT ORDINAL="2171" NAME="??1TransitionProgressVertical@cocos2d@@UAE@XZ" PURGE="0" COMMENT="" />
    <EXPORT ORDINAL="2172" NAME="??1TransitionRotoZoom@cocos2d@@UAE@XZ" PURGE="0" COMMENT="" />
    <EXPORT ORDINAL="2173" NAME="??1TransitionScene@cocos2d@@UAE@XZ" PURGE="0" COMMENT="" />
    <EXPORT ORDINAL="2174" NAME="??1TransitionSceneOriented@cocos2d@@UAE@XZ" PURGE="0" COMMENT="" />
    <EXPORT ORDINAL="2175" NAME="??1TransitionShrinkGrow@cocos2d@@UAE@XZ" PURGE="0" COMMENT="" />
    <EXPORT ORDINAL="2176" NAME="??1TransitionSlideInB@cocos2d@@UAE@XZ" PURGE="0" COMMENT="" />
    <EXPORT ORDINAL="2177" NAME="??1TransitionSlideInL@cocos2d@@UAE@XZ" PURGE="0" COMMENT="" />
    <EXPORT ORDINAL="2178" NAME="??1TransitionSlideInR@cocos2d@@UAE@XZ" PURGE="0" COMMENT="" />
    <EXPORT ORDINAL="2179" NAME="??1TransitionSlideInT@cocos2d@@UAE@XZ" PURGE="0" COMMENT="" />
    <EXPORT ORDINAL="2180" NAME="??1TransitionSplitCols@cocos2d@@UAE@XZ" PURGE="0" COMMENT="" />
    <EXPORT ORDINAL="2181" NAME="??1TransitionSplitRows@cocos2d@@UAE@XZ" PURGE="0" COMMENT="" />
    <EXPORT ORDINAL="2182" NAME="??1TransitionTurnOffTiles@cocos2d@@UAE@XZ" PURGE="0" COMMENT="" />
    <EXPORT ORDINAL="2183" NAME="??1TransitionZoomFlipAngular@cocos2d@@UAE@XZ" PURGE="0" COMMENT="" />
    <EXPORT ORDINAL="2184" NAME="??1TransitionZoomFlipX@cocos2d@@UAE@XZ" PURGE="0" COMMENT="" />
    <EXPORT ORDINAL="2185" NAME="??1TransitionZoomFlipY@cocos2d@@UAE@XZ" PURGE="0" COMMENT="" />
    <EXPORT ORDINAL="2186" NAME="??1TrianglesCommand@cocos2d@@UAE@XZ" PURGE="0" COMMENT="" />
    <EXPORT ORDINAL="2187" NAME="??1TriggerMng@cocostudio@@UAE@XZ" PURGE="0" COMMENT="" />
    <EXPORT ORDINAL="2188" NAME="??1TriggerObj@cocostudio@@UAE@XZ" PURGE="0" COMMENT="" />
    <EXPORT ORDINAL="2189" NAME="??1TurnOffTiles@cocos2d@@UAE@XZ" PURGE="0" COMMENT="" />
    <EXPORT ORDINAL="2190" NAME="??1Tween@cocostudio@@UAE@XZ" PURGE="0" COMMENT="" />
    <EXPORT ORDINAL="2191" NAME="??1Twirl@cocos2d@@UAE@XZ" PURGE="0" COMMENT="" />
    <EXPORT ORDINAL="2192" NAME="??1UICCTextField@ui@cocos2d@@UAE@XZ" PURGE="0" COMMENT="" />
    <EXPORT ORDINAL="2193" NAME="??1UniformValue@cocos2d@@QAE@XZ" PURGE="0" COMMENT="" />
    <EXPORT ORDINAL="2194" NAME="??1UserCameraReader@cocostudio@@UAE@XZ" PURGE="0" COMMENT="" />
    <EXPORT ORDINAL="2195" NAME="??1UserDefault@cocos2d@@MAE@XZ" PURGE="0" COMMENT="" />
    <EXPORT ORDINAL="2196" NAME="??1V2F_C4B_T2F_Quad@cocos2d@@QAE@XZ" PURGE="0" COMMENT="" />
    <EXPORT ORDINAL="2197" NAME="??1V2F_C4B_T2F_Triangle@cocos2d@@QAE@XZ" PURGE="0" COMMENT="" />
    <EXPORT ORDINAL="2198" NAME="??1V2F_C4F_T2F@cocos2d@@QAE@XZ" PURGE="0" COMMENT="" />
    <EXPORT ORDINAL="2199" NAME="??1V2F_C4F_T2F_Quad@cocos2d@@QAE@XZ" PURGE="0" COMMENT="" />
    <EXPORT ORDINAL="2200" NAME="??1V3F_C4B_T2F@cocos2d@@QAE@XZ" PURGE="0" COMMENT="" />
    <EXPORT ORDINAL="2201" NAME="??1V3F_C4B_T2F_Quad@cocos2d@@QAE@XZ" PURGE="0" COMMENT="" />
    <EXPORT ORDINAL="2202" NAME="??1V3F_T2F@cocos2d@@QAE@XZ" PURGE="0" COMMENT="" />
    <EXPORT ORDINAL="2203" NAME="??1V3F_T2F_Quad@cocos2d@@QAE@XZ" PURGE="0" COMMENT="" />
    <EXPORT ORDINAL="2204" NAME="??1VBox@ui@cocos2d@@UAE@XZ" PURGE="0" COMMENT="" />
    <EXPORT ORDINAL="2205" NAME="??1VRGenericHeadTracker@cocos2d@@UAE@XZ" PURGE="0" COMMENT="" />
    <EXPORT ORDINAL="2206" NAME="??1VRGenericRenderer@cocos2d@@UAE@XZ" PURGE="0" COMMENT="" />
    <EXPORT ORDINAL="2207" NAME="??1VRIHeadTracker@cocos2d@@UAE@XZ" PURGE="0" COMMENT="" />
    <EXPORT ORDINAL="2208" NAME="??1VRIRenderer@cocos2d@@UAE@XZ" PURGE="0" COMMENT="" />
    <EXPORT ORDINAL="2209" NAME="??1Value@cocos2d@@QAE@XZ" PURGE="0" COMMENT="" />
    <EXPORT ORDINAL="2210" NAME="??1Vec2@cocos2d@@QAE@XZ" PURGE="0" COMMENT="" />
    <EXPORT ORDINAL="2211" NAME="??1Vec3@cocos2d@@QAE@XZ" PURGE="0" COMMENT="" />
    <EXPORT ORDINAL="2212" NAME="??1Vec4@cocos2d@@QAE@XZ" PURGE="0" COMMENT="" />
    <EXPORT ORDINAL="2213" NAME="??1VertexAttribBinding@cocos2d@@EAE@XZ" PURGE="0" COMMENT="" />
    <EXPORT ORDINAL="2214" NAME="??1VertexAttribValue@cocos2d@@QAE@XZ" PURGE="0" COMMENT="" />
    <EXPORT ORDINAL="2215" NAME="??1VertexBuffer@cocos2d@@MAE@XZ" PURGE="0" COMMENT="" />
    <EXPORT ORDINAL="2216" NAME="??1VertexData@cocos2d@@MAE@XZ" PURGE="0" COMMENT="" />
    <EXPORT ORDINAL="2217" NAME="??1VideoPlayer@ui@experimental@cocos2d@@UAE@XZ" PURGE="0" COMMENT="" />
    <EXPORT ORDINAL="2218" NAME="??1VisibleFrame@timeline@cocostudio@@UAE@XZ" PURGE="0" COMMENT="" />
    <EXPORT ORDINAL="2219" NAME="??1Waves3D@cocos2d@@UAE@XZ" PURGE="0" COMMENT="" />
    <EXPORT ORDINAL="2220" NAME="??1Waves@cocos2d@@UAE@XZ" PURGE="0" COMMENT="" />
    <EXPORT ORDINAL="2221" NAME="??1WavesTiles3D@cocos2d@@UAE@XZ" PURGE="0" COMMENT="" />
    <EXPORT ORDINAL="2222" NAME="??1Widget@ui@cocos2d@@UAE@XZ" PURGE="0" COMMENT="" />
    <EXPORT ORDINAL="2223" NAME="??1WidgetCallBackHandlerProtocol@cocostudio@@UAE@XZ" PURGE="0" COMMENT="" />
    <EXPORT ORDINAL="2224" NAME="??1WidgetPropertiesReader0250@cocostudio@@UAE@XZ" PURGE="0" COMMENT="" />
    <EXPORT ORDINAL="2225" NAME="??1WidgetPropertiesReader0300@cocostudio@@UAE@XZ" PURGE="0" COMMENT="" />
    <EXPORT ORDINAL="2226" NAME="??1WidgetPropertiesReader@cocostudio@@UAE@XZ" PURGE="0" COMMENT="" />
    <EXPORT ORDINAL="2227" NAME="??1WidgetReader@cocostudio@@UAE@XZ" PURGE="0" COMMENT="" />
    <EXPORT ORDINAL="2228" NAME="??1WidgetReaderProtocol@cocostudio@@UAE@XZ" PURGE="0" COMMENT="" />
    <EXPORT ORDINAL="2229" NAME="??1XMLAttribute@tinyxml2@@EAE@XZ" PURGE="0" COMMENT="" />
    <EXPORT ORDINAL="2230" NAME="??1XMLComment@tinyxml2@@MAE@XZ" PURGE="0" COMMENT="" />
    <EXPORT ORDINAL="2231" NAME="??1XMLDeclaration@tinyxml2@@MAE@XZ" PURGE="0" COMMENT="" />
    <EXPORT ORDINAL="2232" NAME="??1XMLDocument@tinyxml2@@UAE@XZ" PURGE="0" COMMENT="" />
    <EXPORT ORDINAL="2233" NAME="??1XMLElement@tinyxml2@@EAE@XZ" PURGE="0" COMMENT="" />
    <EXPORT ORDINAL="2234" NAME="??1XMLNode@tinyxml2@@MAE@XZ" PURGE="0" COMMENT="" />
    <EXPORT ORDINAL="2235" NAME="??1XMLPrinter@tinyxml2@@UAE@XZ" PURGE="0" COMMENT="" />
    <EXPORT ORDINAL="2236" NAME="??1XMLText@tinyxml2@@MAE@XZ" PURGE="0" COMMENT="" />
    <EXPORT ORDINAL="2237" NAME="??1XMLUnknown@tinyxml2@@MAE@XZ" PURGE="0" COMMENT="" />
    <EXPORT ORDINAL="2238" NAME="??1XMLVisitor@tinyxml2@@UAE@XZ" PURGE="0" COMMENT="" />
    <EXPORT ORDINAL="2239" NAME="??1ZOrderFrame@timeline@cocostudio@@UAE@XZ" PURGE="0" COMMENT="" />
    <EXPORT ORDINAL="2240" NAME="??1ZipFile@cocos2d@@UAE@XZ" PURGE="0" COMMENT="" />
    <EXPORT ORDINAL="2241" NAME="??1__Array@cocos2d@@UAE@XZ" PURGE="0" COMMENT="" />
    <EXPORT ORDINAL="2242" NAME="??1__Bool@cocos2d@@UAE@XZ" PURGE="0" COMMENT="" />
    <EXPORT ORDINAL="2243" NAME="??1__CCCallFuncND@cocos2d@@UAE@XZ" PURGE="0" COMMENT="" />
    <EXPORT ORDINAL="2244" NAME="??1__CCCallFuncO@cocos2d@@UAE@XZ" PURGE="0" COMMENT="" />
    <EXPORT ORDINAL="2245" NAME="??1__Dictionary@cocos2d@@UAE@XZ" PURGE="0" COMMENT="" />
    <EXPORT ORDINAL="2246" NAME="??1__Double@cocos2d@@UAE@XZ" PURGE="0" COMMENT="" />
    <EXPORT ORDINAL="2247" NAME="??1__Float@cocos2d@@UAE@XZ" PURGE="0" COMMENT="" />
    <EXPORT ORDINAL="2248" NAME="??1__Integer@cocos2d@@UAE@XZ" PURGE="0" COMMENT="" />
    <EXPORT ORDINAL="2249" NAME="??1__LayerRGBA@cocos2d@@UAE@XZ" PURGE="0" COMMENT="" />
    <EXPORT ORDINAL="2250" NAME="??1__NodeRGBA@cocos2d@@UAE@XZ" PURGE="0" COMMENT="" />
    <EXPORT ORDINAL="2251" NAME="??1__NotificationCenter@cocos2d@@UAE@XZ" PURGE="0" COMMENT="" />
    <EXPORT ORDINAL="2252" NAME="??1__RGBAProtocol@cocos2d@@UAE@XZ" PURGE="0" COMMENT="" />
    <EXPORT ORDINAL="2253" NAME="??1__Set@cocos2d@@UAE@XZ" PURGE="0" COMMENT="" />
    <EXPORT ORDINAL="2254" NAME="??1__String@cocos2d@@UAE@XZ" PURGE="0" COMMENT="" />
    <EXPORT ORDINAL="2255" NAME="??4?$DataPool@UParticle3D@cocos2d@@@cocos2d@@QAEAAV01@ABV01@@Z" PURGE="4" COMMENT="" />
    <EXPORT ORDINAL="2256" NAME="??4?$DynArray@D$0BE@@tinyxml2@@QAEAAV01@ABV01@@Z" PURGE="4" COMMENT="" />
    <EXPORT ORDINAL="2257" NAME="??4?$DynArray@PAUBlock@?$MemPoolT@$0CE@@tinyxml2@@$09@tinyxml2@@QAEAAV01@ABV01@@Z" PURGE="4" COMMENT="" />
    <EXPORT ORDINAL="2258" NAME="??4?$DynArray@PAUBlock@?$MemPoolT@$0CM@@tinyxml2@@$09@tinyxml2@@QAEAAV01@ABV01@@Z" PURGE="4" COMMENT="" />
    <EXPORT ORDINAL="2259" NAME="??4?$DynArray@PAUBlock@?$MemPoolT@$0DA@@tinyxml2@@$09@tinyxml2@@QAEAAV01@ABV01@@Z" PURGE="4" COMMENT="" />
    <EXPORT ORDINAL="2260" NAME="??4?$DynArray@PAUBlock@?$MemPoolT@$0DE@@tinyxml2@@$09@tinyxml2@@QAEAAV01@ABV01@@Z" PURGE="4" COMMENT="" />
    <EXPORT ORDINAL="2261" NAME="??4?$DynArray@PBD$09@tinyxml2@@QAEAAV01@ABV01@@Z" PURGE="4" COMMENT="" />
    <EXPORT ORDINAL="2262" NAME="??4?$MemPoolT@$0CE@@tinyxml2@@QAEAAV01@ABV01@@Z" PURGE="4" COMMENT="" />
    <EXPORT ORDINAL="2263" NAME="??4?$MemPoolT@$0CM@@tinyxml2@@QAEAAV01@ABV01@@Z" PURGE="4" COMMENT="" />
    <EXPORT ORDINAL="2264" NAME="??4?$MemPoolT@$0DA@@tinyxml2@@QAEAAV01@ABV01@@Z" PURGE="4" COMMENT="" />
    <EXPORT ORDINAL="2265" NAME="??4?$MemPoolT@$0DE@@tinyxml2@@QAEAAV01@ABV01@@Z" PURGE="4" COMMENT="" />
    <EXPORT ORDINAL="2266" NAME="??4AABB@cocos2d@@QAEAAV01@ABV01@@Z" PURGE="4" COMMENT="" />
    <EXPORT ORDINAL="2267" NAME="??4Acceleration@cocos2d@@QAEAAV01@$$QAV01@@Z" PURGE="4" COMMENT="" />
    <EXPORT ORDINAL="2268" NAME="??4Acceleration@cocos2d@@QAEAAV01@ABV01@@Z" PURGE="4" COMMENT="" />
    <EXPORT ORDINAL="2269" NAME="??4ActionFadeFrame@cocostudio@@QAEAAV01@ABV01@@Z" PURGE="4" COMMENT="" />
    <EXPORT ORDINAL="2270" NAME="??4ActionFrame@cocostudio@@QAEAAV01@ABV01@@Z" PURGE="4" COMMENT="" />
    <EXPORT ORDINAL="2271" NAME="??4ActionFrameEasing@cocostudio@@QAEAAV01@ABV01@@Z" PURGE="4" COMMENT="" />
    <EXPORT ORDINAL="2272" NAME="??4ActionManager@cocos2d@@QAEAAV01@ABV01@@Z" PURGE="4" COMMENT="" />
    <EXPORT ORDINAL="2273" NAME="??4ActionManagerEx@cocostudio@@QAEAAV01@ABV01@@Z" PURGE="4" COMMENT="" />
    <EXPORT ORDINAL="2274" NAME="??4ActionMoveFrame@cocostudio@@QAEAAV01@ABV01@@Z" PURGE="4" COMMENT="" />
    <EXPORT ORDINAL="2275" NAME="??4ActionNode@cocostudio@@QAEAAV01@ABV01@@Z" PURGE="4" COMMENT="" />
    <EXPORT ORDINAL="2276" NAME="??4ActionObject@cocostudio@@QAEAAV01@ABV01@@Z" PURGE="4" COMMENT="" />
    <EXPORT ORDINAL="2277" NAME="??4ActionRotationFrame@cocostudio@@QAEAAV01@ABV01@@Z" PURGE="4" COMMENT="" />
    <EXPORT ORDINAL="2278" NAME="??4ActionScaleFrame@cocostudio@@QAEAAV01@ABV01@@Z" PURGE="4" COMMENT="" />
    <EXPORT ORDINAL="2279" NAME="??4ActionTimelineCache@timeline@cocostudio@@QAEAAV012@$$QAV012@@Z" PURGE="4" COMMENT="" />
    <EXPORT ORDINAL="2280" NAME="??4ActionTimelineCache@timeline@cocostudio@@QAEAAV012@ABV012@@Z" PURGE="4" COMMENT="" />
    <EXPORT ORDINAL="2281" NAME="??4ActionTimelineData@timeline@cocostudio@@QAEAAV012@$$QAV012@@Z" PURGE="4" COMMENT="" />
    <EXPORT ORDINAL="2282" NAME="??4ActionTimelineData@timeline@cocostudio@@QAEAAV012@ABV012@@Z" PURGE="4" COMMENT="" />
    <EXPORT ORDINAL="2283" NAME="??4ActionTintFrame@cocostudio@@QAEAAV01@ABV01@@Z" PURGE="4" COMMENT="" />
    <EXPORT ORDINAL="2284" NAME="??4ActionTweenDelegate@cocos2d@@QAEAAV01@ABV01@@Z" PURGE="4" COMMENT="" />
    <EXPORT ORDINAL="2285" NAME="??4AffineTransform@cocos2d@@QAEAAU01@$$QAU01@@Z" PURGE="4" COMMENT="" />
    <EXPORT ORDINAL="2286" NAME="??4AffineTransform@cocos2d@@QAEAAU01@ABU01@@Z" PURGE="4" COMMENT="" />
    <EXPORT ORDINAL="2287" NAME="??4AlphaFrame@timeline@cocostudio@@QAEAAV012@$$QAV012@@Z" PURGE="4" COMMENT="" />
    <EXPORT ORDINAL="2288" NAME="??4AlphaFrame@timeline@cocostudio@@QAEAAV012@ABV012@@Z" PURGE="4" COMMENT="" />
    <EXPORT ORDINAL="2289" NAME="??4AnchorPointFrame@timeline@cocostudio@@QAEAAV012@$$QAV012@@Z" PURGE="4" COMMENT="" />
    <EXPORT ORDINAL="2290" NAME="??4AnchorPointFrame@timeline@cocostudio@@QAEAAV012@ABV012@@Z" PURGE="4" COMMENT="" />
    <EXPORT ORDINAL="2291" NAME="??4Animation3D@cocos2d@@QAEAAV01@ABV01@@Z" PURGE="4" COMMENT="" />
    <EXPORT ORDINAL="2292" NAME="??4AnimationCache@cocos2d@@QAEAAV01@ABV01@@Z" PURGE="4" COMMENT="" />
    <EXPORT ORDINAL="2293" NAME="??4AnimationData@cocostudio@@QAEAAV01@ABV01@@Z" PURGE="4" COMMENT="" />
    <EXPORT ORDINAL="2294" NAME="??4AnimationFrameData@cocos2d@@QAEAAU01@$$QAU01@@Z" PURGE="4" COMMENT="" />
    <EXPORT ORDINAL="2295" NAME="??4AnimationFrameData@cocos2d@@QAEAAU01@ABU01@@Z" PURGE="4" COMMENT="" />
    <EXPORT ORDINAL="2296" NAME="??4Application@cocos2d@@QAEAAV01@ABV01@@Z" PURGE="4" COMMENT="" />
    <EXPORT ORDINAL="2297" NAME="??4ApplicationProtocol@cocos2d@@QAEAAV01@ABV01@@Z" PURGE="4" COMMENT="" />
    <EXPORT ORDINAL="2298" NAME="??4ArmatureAnimation@cocostudio@@QAEAAV01@ABV01@@Z" PURGE="4" COMMENT="" />
    <EXPORT ORDINAL="2299" NAME="??4ArmatureData@cocostudio@@QAEAAV01@ABV01@@Z" PURGE="4" COMMENT="" />
    <EXPORT ORDINAL="2300" NAME="??4ArmatureDataManager@cocostudio@@QAEAAV01@ABV01@@Z" PURGE="4" COMMENT="" />
    <EXPORT ORDINAL="2301" NAME="??4ArmatureDisplayData@cocostudio@@QAEAAV01@ABV01@@Z" PURGE="4" COMMENT="" />
    <EXPORT ORDINAL="2302" NAME="??4ArmatureMovementDispatcher@cocostudio@@QAEAAV01@ABV01@@Z" PURGE="4" COMMENT="" />
    <EXPORT ORDINAL="2303" NAME="??4AssetsManagerEx@extension@cocos2d@@QAEAAV012@ABV012@@Z" PURGE="4" COMMENT="" />
    <EXPORT ORDINAL="2304" NAME="??4AudioEngine@experimental@cocos2d@@QAEAAV012@$$QAV012@@Z" PURGE="4" COMMENT="" />
    <EXPORT ORDINAL="2305" NAME="??4AudioEngine@experimental@cocos2d@@QAEAAV012@ABV012@@Z" PURGE="4" COMMENT="" />
    <EXPORT ORDINAL="2306" NAME="??4AudioProfile@experimental@cocos2d@@QAEAAV012@$$QAV012@@Z" PURGE="4" COMMENT="" />
    <EXPORT ORDINAL="2307" NAME="??4AudioProfile@experimental@cocos2d@@QAEAAV012@ABV012@@Z" PURGE="4" COMMENT="" />
    <EXPORT ORDINAL="2308" NAME="??4AutoBindingResolver@GLProgramState@cocos2d@@QAEAAV012@ABV012@@Z" PURGE="4" COMMENT="" />
    <EXPORT ORDINAL="2309" NAME="??4AutoPolygon@cocos2d@@QAEAAV01@ABV01@@Z" PURGE="4" COMMENT="" />
    <EXPORT ORDINAL="2310" NAME="??4AutoreleasePool@cocos2d@@QAEAAV01@ABV01@@Z" PURGE="4" COMMENT="" />
    <EXPORT ORDINAL="2311" NAME="??4BMFontConfiguration@cocos2d@@QAEAAV01@ABV01@@Z" PURGE="4" COMMENT="" />
    <EXPORT ORDINAL="2312" NAME="??4BaseData@cocostudio@@QAEAAV01@ABV01@@Z" PURGE="4" COMMENT="" />
    <EXPORT ORDINAL="2313" NAME="??4BaseTriggerAction@cocostudio@@QAEAAV01@ABV01@@Z" PURGE="4" COMMENT="" />
    <EXPORT ORDINAL="2314" NAME="??4BaseTriggerCondition@cocostudio@@QAEAAV01@ABV01@@Z" PURGE="4" COMMENT="" />
    <EXPORT ORDINAL="2315" NAME="??4BatchCommand@cocos2d@@QAEAAV01@ABV01@@Z" PURGE="4" COMMENT="" />
    <EXPORT ORDINAL="2316" NAME="??4BinLocalizationManager@cocostudio@@QAEAAV01@ABV01@@Z" PURGE="4" COMMENT="" />
    <EXPORT ORDINAL="2317" NAME="??4BlendFunc@cocos2d@@QAEAAU01@$$QAU01@@Z" PURGE="4" COMMENT="" />
    <EXPORT ORDINAL="2318" NAME="??4BlendFunc@cocos2d@@QAEAAU01@ABU01@@Z" PURGE="4" COMMENT="" />
    <EXPORT ORDINAL="2319" NAME="??4BlendFuncFrame@timeline@cocostudio@@QAEAAV012@$$QAV012@@Z" PURGE="4" COMMENT="" />
    <EXPORT ORDINAL="2320" NAME="??4BlendFuncFrame@timeline@cocostudio@@QAEAAV012@ABV012@@Z" PURGE="4" COMMENT="" />
    <EXPORT ORDINAL="2321" NAME="??4BlendProtocol@cocos2d@@QAEAAV01@ABV01@@Z" PURGE="4" COMMENT="" />
    <EXPORT ORDINAL="2322" NAME="??4Bone3D@cocos2d@@QAEAAV01@ABV01@@Z" PURGE="4" COMMENT="" />
    <EXPORT ORDINAL="2323" NAME="??4BoneData@cocostudio@@QAEAAV01@ABV01@@Z" PURGE="4" COMMENT="" />
    <EXPORT ORDINAL="2324" NAME="??4ButtonReader@cocostudio@@QAEAAV01@ABV01@@Z" PURGE="4" COMMENT="" />
    <EXPORT ORDINAL="2325" NAME="??4CCBAnimationManager@cocosbuilder@@QAEAAV01@ABV01@@Z" PURGE="4" COMMENT="" />
    <EXPORT ORDINAL="2326" NAME="??4CCBAnimationManagerDelegate@cocosbuilder@@QAEAAV01@ABV01@@Z" PURGE="4" COMMENT="" />
    <EXPORT ORDINAL="2327" NAME="??4CCBFileLoader@cocosbuilder@@QAEAAV01@ABV01@@Z" PURGE="4" COMMENT="" />
    <EXPORT ORDINAL="2328" NAME="??4CCBKeyframe@cocosbuilder@@QAEAAV01@ABV01@@Z" PURGE="4" COMMENT="" />
    <EXPORT ORDINAL="2329" NAME="??4CCBMemberVariableAssigner@cocosbuilder@@QAEAAV01@ABV01@@Z" PURGE="4" COMMENT="" />
    <EXPORT ORDINAL="2330" NAME="??4CCBReader@cocosbuilder@@QAEAAV01@ABV01@@Z" PURGE="4" COMMENT="" />
    <EXPORT ORDINAL="2331" NAME="??4CCBScriptOwnerProtocol@cocosbuilder@@QAEAAV01@ABV01@@Z" PURGE="4" COMMENT="" />
    <EXPORT ORDINAL="2332" NAME="??4CCBSelectorResolver@cocosbuilder@@QAEAAV01@ABV01@@Z" PURGE="4" COMMENT="" />
    <EXPORT ORDINAL="2333" NAME="??4CCBSequence@cocosbuilder@@QAEAAV01@ABV01@@Z" PURGE="4" COMMENT="" />
    <EXPORT ORDINAL="2334" NAME="??4CCBSequenceProperty@cocosbuilder@@QAEAAV01@ABV01@@Z" PURGE="4" COMMENT="" />
    <EXPORT ORDINAL="2335" NAME="??4CCPUBoxEmitter@cocos2d@@QAEAAV01@ABV01@@Z" PURGE="4" COMMENT="" />
    <EXPORT ORDINAL="2336" NAME="??4CSLoader@cocos2d@@QAEAAV01@$$QAV01@@Z" PURGE="4" COMMENT="" />
    <EXPORT ORDINAL="2337" NAME="??4CSLoader@cocos2d@@QAEAAV01@ABV01@@Z" PURGE="4" COMMENT="" />
    <EXPORT ORDINAL="2338" NAME="??4CameraBackgroundBrush@cocos2d@@QAEAAV01@ABV01@@Z" PURGE="4" COMMENT="" />
    <EXPORT ORDINAL="2339" NAME="??4CameraBackgroundColorBrush@cocos2d@@QAEAAV01@ABV01@@Z" PURGE="4" COMMENT="" />
    <EXPORT ORDINAL="2340" NAME="??4CameraBackgroundDepthBrush@cocos2d@@QAEAAV01@ABV01@@Z" PURGE="4" COMMENT="" />
    <EXPORT ORDINAL="2341" NAME="??4CameraBackgroundSkyBoxBrush@cocos2d@@QAEAAV01@ABV01@@Z" PURGE="4" COMMENT="" />
    <EXPORT ORDINAL="2342" NAME="??4CheckBoxReader@cocostudio@@QAEAAV01@ABV01@@Z" PURGE="4" COMMENT="" />
    <EXPORT ORDINAL="2343" NAME="??4Clonable@cocos2d@@QAEAAV01@ABV01@@Z" PURGE="4" COMMENT="" />
    <EXPORT ORDINAL="2344" NAME="??4CocoLoader@cocostudio@@QAEAAV01@ABV01@@Z" PURGE="4" COMMENT="" />
    <EXPORT ORDINAL="2345" NAME="??4ColliderBody@cocostudio@@QAEAAV01@ABV01@@Z" PURGE="4" COMMENT="" />
    <EXPORT ORDINAL="2346" NAME="??4ColliderDetector@cocostudio@@QAEAAV01@ABV01@@Z" PURGE="4" COMMENT="" />
    <EXPORT ORDINAL="2347" NAME="??4ColliderFilter@cocostudio@@QAEAAV01@ABV01@@Z" PURGE="4" COMMENT="" />
    <EXPORT ORDINAL="2348" NAME="??4Color3B@cocos2d@@QAEAAU01@$$QAU01@@Z" PURGE="4" COMMENT="" />
    <EXPORT ORDINAL="2349" NAME="??4Color3B@cocos2d@@QAEAAU01@ABU01@@Z" PURGE="4" COMMENT="" />
    <EXPORT ORDINAL="2350" NAME="??4Color3bObject@extension@cocos2d@@QAEAAV012@$$QAV012@@Z" PURGE="4" COMMENT="" />
    <EXPORT ORDINAL="2351" NAME="??4Color3bObject@extension@cocos2d@@QAEAAV012@ABV012@@Z" PURGE="4" COMMENT="" />
    <EXPORT ORDINAL="2352" NAME="??4Color4B@cocos2d@@QAEAAU01@$$QAU01@@Z" PURGE="4" COMMENT="" />
    <EXPORT ORDINAL="2353" NAME="??4Color4B@cocos2d@@QAEAAU01@ABU01@@Z" PURGE="4" COMMENT="" />
    <EXPORT ORDINAL="2354" NAME="??4Color4F@cocos2d@@QAEAAU01@$$QAU01@@Z" PURGE="4" COMMENT="" />
    <EXPORT ORDINAL="2355" NAME="??4Color4F@cocos2d@@QAEAAU01@ABU01@@Z" PURGE="4" COMMENT="" />
    <EXPORT ORDINAL="2356" NAME="??4ColorFrame@timeline@cocostudio@@QAEAAV012@$$QAV012@@Z" PURGE="4" COMMENT="" />
    <EXPORT ORDINAL="2357" NAME="??4ColorFrame@timeline@cocostudio@@QAEAAV012@ABV012@@Z" PURGE="4" COMMENT="" />
    <EXPORT ORDINAL="2358" NAME="??4ComAudio@cocostudio@@QAEAAV01@ABV01@@Z" PURGE="4" COMMENT="" />
    <EXPORT ORDINAL="2359" NAME="??4ComAudioReader@cocostudio@@QAEAAV01@ABV01@@Z" PURGE="4" COMMENT="" />
    <EXPORT ORDINAL="2360" NAME="??4ComController@cocostudio@@QAEAAV01@ABV01@@Z" PURGE="4" COMMENT="" />
    <EXPORT ORDINAL="2361" NAME="??4ComExtensionData@cocostudio@@QAEAAV01@ABV01@@Z" PURGE="4" COMMENT="" />
    <EXPORT ORDINAL="2362" NAME="??4ComRender@cocostudio@@QAEAAV01@ABV01@@Z" PURGE="4" COMMENT="" />
    <EXPORT ORDINAL="2363" NAME="??4Component@cocos2d@@QAEAAV01@ABV01@@Z" PURGE="4" COMMENT="" />
    <EXPORT ORDINAL="2364" NAME="??4ComponentContainer@cocos2d@@QAEAAV01@ABV01@@Z" PURGE="4" COMMENT="" />
    <EXPORT ORDINAL="2365" NAME="??4Configuration@cocos2d@@QAEAAV01@ABV01@@Z" PURGE="4" COMMENT="" />
    <EXPORT ORDINAL="2366" NAME="??4ContourData@cocostudio@@QAEAAV01@ABV01@@Z" PURGE="4" COMMENT="" />
    <EXPORT ORDINAL="2367" NAME="??4ControlButtonLoader@cocosbuilder@@QAEAAV01@ABV01@@Z" PURGE="4" COMMENT="" />
    <EXPORT ORDINAL="2368" NAME="??4ControlLoader@cocosbuilder@@QAEAAV01@ABV01@@Z" PURGE="4" COMMENT="" />
    <EXPORT ORDINAL="2369" NAME="??4ControlUtils@extension@cocos2d@@QAEAAV012@$$QAV012@@Z" PURGE="4" COMMENT="" />
    <EXPORT ORDINAL="2370" NAME="??4ControlUtils@extension@cocos2d@@QAEAAV012@ABV012@@Z" PURGE="4" COMMENT="" />
    <EXPORT ORDINAL="2371" NAME="??4Controller@cocos2d@@QAEAAV01@ABV01@@Z" PURGE="4" COMMENT="" />
    <EXPORT ORDINAL="2372" NAME="??4CustomCommand@cocos2d@@QAEAAV01@ABV01@@Z" PURGE="4" COMMENT="" />
    <EXPORT ORDINAL="2373" NAME="??4Data@cocos2d@@QAEAAV01@$$QAV01@@Z" PURGE="4" COMMENT="" />
    <EXPORT ORDINAL="2374" NAME="??4Data@cocos2d@@QAEAAV01@ABV01@@Z" PURGE="4" COMMENT="" />
    <EXPORT ORDINAL="2375" NAME="??4DataVisitor@cocos2d@@QAEAAV01@ABV01@@Z" PURGE="4" COMMENT="" />
    <EXPORT ORDINAL="2376" NAME="??4DecorativeDisplay@cocostudio@@QAEAAV01@ABV01@@Z" PURGE="4" COMMENT="" />
    <EXPORT ORDINAL="2377" NAME="??4DetailMap@Terrain@cocos2d@@QAEAAU012@$$QAU012@@Z" PURGE="4" COMMENT="" />
    <EXPORT ORDINAL="2378" NAME="??4DetailMap@Terrain@cocos2d@@QAEAAU012@ABU012@@Z" PURGE="4" COMMENT="" />
    <EXPORT ORDINAL="2379" NAME="??4DictElement@cocos2d@@QAEAAV01@ABV01@@Z" PURGE="4" COMMENT="" />
    <EXPORT ORDINAL="2380" NAME="??4DictionaryHelper@cocostudio@@QAEAAV01@ABV01@@Z" PURGE="4" COMMENT="" />
    <EXPORT ORDINAL="2381" NAME="??4Director@cocos2d@@QAEAAV01@ABV01@@Z" PURGE="4" COMMENT="" />
    <EXPORT ORDINAL="2382" NAME="??4DirectorDelegate@cocos2d@@QAEAAV01@ABV01@@Z" PURGE="4" COMMENT="" />
    <EXPORT ORDINAL="2383" NAME="??4DisplayData@cocostudio@@QAEAAV01@ABV01@@Z" PURGE="4" COMMENT="" />
    <EXPORT ORDINAL="2384" NAME="??4DisplayFactory@cocostudio@@QAEAAV01@$$QAV01@@Z" PURGE="4" COMMENT="" />
    <EXPORT ORDINAL="2385" NAME="??4DisplayFactory@cocostudio@@QAEAAV01@ABV01@@Z" PURGE="4" COMMENT="" />
    <EXPORT ORDINAL="2386" NAME="??4DisplayManager@cocostudio@@QAEAAV01@ABV01@@Z" PURGE="4" COMMENT="" />
    <EXPORT ORDINAL="2387" NAME="??4DownloaderHints@network@cocos2d@@QAEAAV012@$$QAV012@@Z" PURGE="4" COMMENT="" />
    <EXPORT ORDINAL="2388" NAME="??4DownloaderHints@network@cocos2d@@QAEAAV012@ABV012@@Z" PURGE="4" COMMENT="" />
    <EXPORT ORDINAL="2389" NAME="??4EditBoxDelegate@ui@cocos2d@@QAEAAV012@ABV012@@Z" PURGE="4" COMMENT="" />
    <EXPORT ORDINAL="2390" NAME="??4EditBoxImpl@ui@cocos2d@@QAEAAV012@ABV012@@Z" PURGE="4" COMMENT="" />
    <EXPORT ORDINAL="2391" NAME="??4EditBoxImplWin@ui@cocos2d@@QAEAAV012@ABV012@@Z" PURGE="4" COMMENT="" />
    <EXPORT ORDINAL="2392" NAME="??4Event@cocos2d@@QAEAAV01@ABV01@@Z" PURGE="4" COMMENT="" />
    <EXPORT ORDINAL="2393" NAME="??4EventAcceleration@cocos2d@@QAEAAV01@$$QAV01@@Z" PURGE="4" COMMENT="" />
    <EXPORT ORDINAL="2394" NAME="??4EventAcceleration@cocos2d@@QAEAAV01@ABV01@@Z" PURGE="4" COMMENT="" />
    <EXPORT ORDINAL="2395" NAME="??4EventAssetsManagerEx@extension@cocos2d@@QAEAAV012@$$QAV012@@Z" PURGE="4" COMMENT="" />
    <EXPORT ORDINAL="2396" NAME="??4EventAssetsManagerEx@extension@cocos2d@@QAEAAV012@ABV012@@Z" PURGE="4" COMMENT="" />
    <EXPORT ORDINAL="2397" NAME="??4EventCustom@cocos2d@@QAEAAV01@$$QAV01@@Z" PURGE="4" COMMENT="" />
    <EXPORT ORDINAL="2398" NAME="??4EventCustom@cocos2d@@QAEAAV01@ABV01@@Z" PURGE="4" COMMENT="" />
    <EXPORT ORDINAL="2399" NAME="??4EventDispatcher@cocos2d@@QAEAAV01@ABV01@@Z" PURGE="4" COMMENT="" />
    <EXPORT ORDINAL="2400" NAME="??4EventFocus@cocos2d@@QAEAAV01@$$QAV01@@Z" PURGE="4" COMMENT="" />
    <EXPORT ORDINAL="2401" NAME="??4EventFocus@cocos2d@@QAEAAV01@ABV01@@Z" PURGE="4" COMMENT="" />
    <EXPORT ORDINAL="2402" NAME="??4EventFrame@timeline@cocostudio@@QAEAAV012@$$QAV012@@Z" PURGE="4" COMMENT="" />
    <EXPORT ORDINAL="2403" NAME="??4EventFrame@timeline@cocostudio@@QAEAAV012@ABV012@@Z" PURGE="4" COMMENT="" />
    <EXPORT ORDINAL="2404" NAME="??4EventKeyboard@cocos2d@@QAEAAV01@$$QAV01@@Z" PURGE="4" COMMENT="" />
    <EXPORT ORDINAL="2405" NAME="??4EventKeyboard@cocos2d@@QAEAAV01@ABV01@@Z" PURGE="4" COMMENT="" />
    <EXPORT ORDINAL="2406" NAME="??4EventListener@cocos2d@@QAEAAV01@ABV01@@Z" PURGE="4" COMMENT="" />
    <EXPORT ORDINAL="2407" NAME="??4EventListenerAcceleration@cocos2d@@QAEAAV01@ABV01@@Z" PURGE="4" COMMENT="" />
    <EXPORT ORDINAL="2408" NAME="??4EventListenerAssetsManagerEx@extension@cocos2d@@QAEAAV012@$$QAV012@@Z" PURGE="4" COMMENT="" />
    <EXPORT ORDINAL="2409" NAME="??4EventListenerAssetsManagerEx@extension@cocos2d@@QAEAAV012@ABV012@@Z" PURGE="4" COMMENT="" />
    <EXPORT ORDINAL="2410" NAME="??4EventListenerController@cocos2d@@QAEAAV01@$$QAV01@@Z" PURGE="4" COMMENT="" />
    <EXPORT ORDINAL="2411" NAME="??4EventListenerController@cocos2d@@QAEAAV01@ABV01@@Z" PURGE="4" COMMENT="" />
    <EXPORT ORDINAL="2412" NAME="??4EventListenerCustom@cocos2d@@QAEAAV01@$$QAV01@@Z" PURGE="4" COMMENT="" />
    <EXPORT ORDINAL="2413" NAME="??4EventListenerCustom@cocos2d@@QAEAAV01@ABV01@@Z" PURGE="4" COMMENT="" />
    <EXPORT ORDINAL="2414" NAME="??4EventListenerFocus@cocos2d@@QAEAAV01@ABV01@@Z" PURGE="4" COMMENT="" />
    <EXPORT ORDINAL="2415" NAME="??4EventListenerKeyboard@cocos2d@@QAEAAV01@$$QAV01@@Z" PURGE="4" COMMENT="" />
    <EXPORT ORDINAL="2416" NAME="??4EventListenerKeyboard@cocos2d@@QAEAAV01@ABV01@@Z" PURGE="4" COMMENT="" />
    <EXPORT ORDINAL="2417" NAME="??4EventListenerMouse@cocos2d@@QAEAAV01@$$QAV01@@Z" PURGE="4" COMMENT="" />
    <EXPORT ORDINAL="2418" NAME="??4EventListenerMouse@cocos2d@@QAEAAV01@ABV01@@Z" PURGE="4" COMMENT="" />
    <EXPORT ORDINAL="2419" NAME="??4EventListenerPhysicsContact@cocos2d@@QAEAAV01@ABV01@@Z" PURGE="4" COMMENT="" />
    <EXPORT ORDINAL="2420" NAME="??4EventListenerPhysicsContactWithBodies@cocos2d@@QAEAAV01@ABV01@@Z" PURGE="4" COMMENT="" />
    <EXPORT ORDINAL="2421" NAME="??4EventListenerPhysicsContactWithGroup@cocos2d@@QAEAAV01@ABV01@@Z" PURGE="4" COMMENT="" />
    <EXPORT ORDINAL="2422" NAME="??4EventListenerPhysicsContactWithShapes@cocos2d@@QAEAAV01@ABV01@@Z" PURGE="4" COMMENT="" />
    <EXPORT ORDINAL="2423" NAME="??4EventListenerTouchAllAtOnce@cocos2d@@QAEAAV01@ABV01@@Z" PURGE="4" COMMENT="" />
    <EXPORT ORDINAL="2424" NAME="??4EventListenerTouchOneByOne@cocos2d@@QAEAAV01@ABV01@@Z" PURGE="4" COMMENT="" />
    <EXPORT ORDINAL="2425" NAME="??4EventMouse@cocos2d@@QAEAAV01@$$QAV01@@Z" PURGE="4" COMMENT="" />
    <EXPORT ORDINAL="2426" NAME="??4EventMouse@cocos2d@@QAEAAV01@ABV01@@Z" PURGE="4" COMMENT="" />
    <EXPORT ORDINAL="2427" NAME="??4EventTouch@cocos2d@@QAEAAV01@$$QAV01@@Z" PURGE="4" COMMENT="" />
    <EXPORT ORDINAL="2428" NAME="??4EventTouch@cocos2d@@QAEAAV01@ABV01@@Z" PURGE="4" COMMENT="" />
    <EXPORT ORDINAL="2429" NAME="??4FileUtils@cocos2d@@QAEAAV01@ABV01@@Z" PURGE="4" COMMENT="" />
    <EXPORT ORDINAL="2430" NAME="??4FileUtilsWin32@cocos2d@@QAEAAV01@$$QAV01@@Z" PURGE="4" COMMENT="" />
    <EXPORT ORDINAL="2431" NAME="??4FileUtilsWin32@cocos2d@@QAEAAV01@ABV01@@Z" PURGE="4" COMMENT="" />
    <EXPORT ORDINAL="2432" NAME="??4FlatBuffersSerialize@cocostudio@@QAEAAV01@ABV01@@Z" PURGE="4" COMMENT="" />
    <EXPORT ORDINAL="2433" NAME="??4Font@cocos2d@@QAEAAV01@$$QAV01@@Z" PURGE="4" COMMENT="" />
    <EXPORT ORDINAL="2434" NAME="??4Font@cocos2d@@QAEAAV01@ABV01@@Z" PURGE="4" COMMENT="" />
    <EXPORT ORDINAL="2435" NAME="??4FontAtlas@cocos2d@@QAEAAV01@ABV01@@Z" PURGE="4" COMMENT="" />
    <EXPORT ORDINAL="2436" NAME="??4FontAtlasCache@cocos2d@@QAEAAV01@$$QAV01@@Z" PURGE="4" COMMENT="" />
    <EXPORT ORDINAL="2437" NAME="??4FontAtlasCache@cocos2d@@QAEAAV01@ABV01@@Z" PURGE="4" COMMENT="" />
    <EXPORT ORDINAL="2438" NAME="??4FontDefinition@cocos2d@@QAEAAU01@$$QAU01@@Z" PURGE="4" COMMENT="" />
    <EXPORT ORDINAL="2439" NAME="??4FontDefinition@cocos2d@@QAEAAU01@ABU01@@Z" PURGE="4" COMMENT="" />
    <EXPORT ORDINAL="2440" NAME="??4FontFNT@cocos2d@@QAEAAV01@ABV01@@Z" PURGE="4" COMMENT="" />
    <EXPORT ORDINAL="2441" NAME="??4FontFreeType@cocos2d@@QAEAAV01@ABV01@@Z" PURGE="4" COMMENT="" />
    <EXPORT ORDINAL="2442" NAME="??4FontShadow@cocos2d@@QAEAAU01@$$QAU01@@Z" PURGE="4" COMMENT="" />
    <EXPORT ORDINAL="2443" NAME="??4FontShadow@cocos2d@@QAEAAU01@ABU01@@Z" PURGE="4" COMMENT="" />
    <EXPORT ORDINAL="2444" NAME="??4FontStroke@cocos2d@@QAEAAU01@$$QAU01@@Z" PURGE="4" COMMENT="" />
    <EXPORT ORDINAL="2445" NAME="??4FontStroke@cocos2d@@QAEAAU01@ABU01@@Z" PURGE="4" COMMENT="" />
    <EXPORT ORDINAL="2446" NAME="??4Frame@timeline@cocostudio@@QAEAAV012@ABV012@@Z" PURGE="4" COMMENT="" />
    <EXPORT ORDINAL="2447" NAME="??4FrameBuffer@experimental@cocos2d@@QAEAAV012@ABV012@@Z" PURGE="4" COMMENT="" />
    <EXPORT ORDINAL="2448" NAME="??4FrameData@cocostudio@@QAEAAV01@ABV01@@Z" PURGE="4" COMMENT="" />
    <EXPORT ORDINAL="2449" NAME="??4Frustum@cocos2d@@QAEAAV01@ABV01@@Z" PURGE="4" COMMENT="" />
    <EXPORT ORDINAL="2450" NAME="??4GLProgram@cocos2d@@QAEAAV01@ABV01@@Z" PURGE="4" COMMENT="" />
    <EXPORT ORDINAL="2451" NAME="??4GLProgramCache@cocos2d@@QAEAAV01@ABV01@@Z" PURGE="4" COMMENT="" />
    <EXPORT ORDINAL="2452" NAME="??4GLProgramState@cocos2d@@QAEAAV01@ABV01@@Z" PURGE="4" COMMENT="" />
    <EXPORT ORDINAL="2453" NAME="??4GLProgramStateCache@cocos2d@@QAEAAV01@ABV01@@Z" PURGE="4" COMMENT="" />
    <EXPORT ORDINAL="2454" NAME="??4GLView@cocos2d@@QAEAAV01@ABV01@@Z" PURGE="4" COMMENT="" />
    <EXPORT ORDINAL="2455" NAME="??4GUIReader@cocostudio@@QAEAAV01@ABV01@@Z" PURGE="4" COMMENT="" />
    <EXPORT ORDINAL="2456" NAME="??4GameMapReader@cocostudio@@QAEAAV01@ABV01@@Z" PURGE="4" COMMENT="" />
    <EXPORT ORDINAL="2457" NAME="??4GameNode3DReader@cocostudio@@QAEAAV01@ABV01@@Z" PURGE="4" COMMENT="" />
    <EXPORT ORDINAL="2458" NAME="??4Grid3D@cocos2d@@QAEAAV01@ABV01@@Z" PURGE="4" COMMENT="" />
    <EXPORT ORDINAL="2459" NAME="??4GridBase@cocos2d@@QAEAAV01@ABV01@@Z" PURGE="4" COMMENT="" />
    <EXPORT ORDINAL="2460" NAME="??4GroupCommand@cocos2d@@QAEAAV01@ABV01@@Z" PURGE="4" COMMENT="" />
    <EXPORT ORDINAL="2461" NAME="??4Helper@ui@cocos2d@@QAEAAV012@$$QAV012@@Z" PURGE="4" COMMENT="" />
    <EXPORT ORDINAL="2462" NAME="??4Helper@ui@cocos2d@@QAEAAV012@ABV012@@Z" PURGE="4" COMMENT="" />
    <EXPORT ORDINAL="2463" NAME="??4HttpRequest@network@cocos2d@@QAEAAV012@ABV012@@Z" PURGE="4" COMMENT="" />
    <EXPORT ORDINAL="2464" NAME="??4HttpResponse@network@cocos2d@@QAEAAV012@ABV012@@Z" PURGE="4" COMMENT="" />
    <EXPORT ORDINAL="2465" NAME="??4IDownloadTask@network@cocos2d@@QAEAAV012@ABV012@@Z" PURGE="4" COMMENT="" />
    <EXPORT ORDINAL="2466" NAME="??4ILocalizationManager@cocostudio@@QAEAAV01@ABV01@@Z" PURGE="4" COMMENT="" />
    <EXPORT ORDINAL="2467" NAME="??4IMEDelegate@cocos2d@@QAEAAV01@ABV01@@Z" PURGE="4" COMMENT="" />
    <EXPORT ORDINAL="2468" NAME="??4IMEDispatcher@cocos2d@@QAEAAV01@ABV01@@Z" PURGE="4" COMMENT="" />
    <EXPORT ORDINAL="2469" NAME="??4ImageViewReader@cocostudio@@QAEAAV01@ABV01@@Z" PURGE="4" COMMENT="" />
    <EXPORT ORDINAL="2470" NAME="??4IndexBuffer@cocos2d@@QAEAAV01@ABV01@@Z" PURGE="4" COMMENT="" />
    <EXPORT ORDINAL="2471" NAME="??4InnerActionFrame@timeline@cocostudio@@QAEAAV012@$$QAV012@@Z" PURGE="4" COMMENT="" />
    <EXPORT ORDINAL="2472" NAME="??4InnerActionFrame@timeline@cocostudio@@QAEAAV012@ABV012@@Z" PURGE="4" COMMENT="" />
    <EXPORT ORDINAL="2473" NAME="??4InputDelegate@cocostudio@@QAEAAV01@ABV01@@Z" PURGE="4" COMMENT="" />
    <EXPORT ORDINAL="2474" NAME="??4Invocation@extension@cocos2d@@QAEAAV012@$$QAV012@@Z" PURGE="4" COMMENT="" />
    <EXPORT ORDINAL="2475" NAME="??4Invocation@extension@cocos2d@@QAEAAV012@ABV012@@Z" PURGE="4" COMMENT="" />
    <EXPORT ORDINAL="2476" NAME="??4JsonLocalizationManager@cocostudio@@QAEAAV01@ABV01@@Z" PURGE="4" COMMENT="" />
    <EXPORT ORDINAL="2477" NAME="??4LabelBMFontLoader@cocosbuilder@@QAEAAV01@ABV01@@Z" PURGE="4" COMMENT="" />
    <EXPORT ORDINAL="2478" NAME="??4LabelProtocol@cocos2d@@QAEAAV01@ABV01@@Z" PURGE="4" COMMENT="" />
    <EXPORT ORDINAL="2479" NAME="??4LabelTTFLoader@cocosbuilder@@QAEAAV01@ABV01@@Z" PURGE="4" COMMENT="" />
    <EXPORT ORDINAL="2480" NAME="??4LayerColorLoader@cocosbuilder@@QAEAAV01@ABV01@@Z" PURGE="4" COMMENT="" />
    <EXPORT ORDINAL="2481" NAME="??4LayerGradientLoader@cocosbuilder@@QAEAAV01@ABV01@@Z" PURGE="4" COMMENT="" />
    <EXPORT ORDINAL="2482" NAME="??4LayerLoader@cocosbuilder@@QAEAAV01@ABV01@@Z" PURGE="4" COMMENT="" />
    <EXPORT ORDINAL="2483" NAME="??4LayoutComponent@ui@cocos2d@@QAEAAV012@ABV012@@Z" PURGE="4" COMMENT="" />
    <EXPORT ORDINAL="2484" NAME="??4LayoutManager@ui@cocos2d@@QAEAAV012@ABV012@@Z" PURGE="4" COMMENT="" />
    <EXPORT ORDINAL="2485" NAME="??4LayoutParameter@ui@cocos2d@@QAEAAV012@ABV012@@Z" PURGE="4" COMMENT="" />
    <EXPORT ORDINAL="2486" NAME="??4LayoutParameterProtocol@ui@cocos2d@@QAEAAV012@ABV012@@Z" PURGE="4" COMMENT="" />
    <EXPORT ORDINAL="2487" NAME="??4LayoutProtocol@ui@cocos2d@@QAEAAV012@ABV012@@Z" PURGE="4" COMMENT="" />
    <EXPORT ORDINAL="2488" NAME="??4LayoutReader@cocostudio@@QAEAAV01@ABV01@@Z" PURGE="4" COMMENT="" />
    <EXPORT ORDINAL="2489" NAME="??4Light3DReader@cocostudio@@QAEAAV01@ABV01@@Z" PURGE="4" COMMENT="" />
    <EXPORT ORDINAL="2490" NAME="??4LinearHorizontalLayoutManager@ui@cocos2d@@QAEAAV012@ABV012@@Z" PURGE="4" COMMENT="" />
    <EXPORT ORDINAL="2491" NAME="??4LinearLayoutParameter@ui@cocos2d@@QAEAAV012@ABV012@@Z" PURGE="4" COMMENT="" />
    <EXPORT ORDINAL="2492" NAME="??4LinearVerticalLayoutManager@ui@cocos2d@@QAEAAV012@ABV012@@Z" PURGE="4" COMMENT="" />
    <EXPORT ORDINAL="2493" NAME="??4ListViewReader@cocostudio@@QAEAAV01@ABV01@@Z" PURGE="4" COMMENT="" />
    <EXPORT ORDINAL="2494" NAME="??4LoadingBarReader@cocostudio@@QAEAAV01@ABV01@@Z" PURGE="4" COMMENT="" />
    <EXPORT ORDINAL="2495" NAME="??4LocalizationHelper@cocostudio@@QAEAAV01@$$QAV01@@Z" PURGE="4" COMMENT="" />
    <EXPORT ORDINAL="2496" NAME="??4LocalizationHelper@cocostudio@@QAEAAV01@ABV01@@Z" PURGE="4" COMMENT="" />
    <EXPORT ORDINAL="2497" NAME="??4Manifest@extension@cocos2d@@QAEAAV012@$$QAV012@@Z" PURGE="4" COMMENT="" />
    <EXPORT ORDINAL="2498" NAME="??4Margin@ui@cocos2d@@QAEAAV012@ABV012@@Z" PURGE="4" COMMENT="" />
    <EXPORT ORDINAL="2499" NAME="??4Mat4@cocos2d@@QAEAAV01@ABV01@@Z" PURGE="4" COMMENT="" />
    <EXPORT ORDINAL="2500" NAME="??4Material@cocos2d@@QAEAAV01@ABV01@@Z" PURGE="4" COMMENT="" />
    <EXPORT ORDINAL="2501" NAME="??4MathUtil@cocos2d@@QAEAAV01@$$QAV01@@Z" PURGE="4" COMMENT="" />
    <EXPORT ORDINAL="2502" NAME="??4MathUtil@cocos2d@@QAEAAV01@ABV01@@Z" PURGE="4" COMMENT="" />
    <EXPORT ORDINAL="2503" NAME="??4MemPool@tinyxml2@@QAEAAV01@ABV01@@Z" PURGE="4" COMMENT="" />
    <EXPORT ORDINAL="2504" NAME="??4MenuItemImageLoader@cocosbuilder@@QAEAAV01@ABV01@@Z" PURGE="4" COMMENT="" />
    <EXPORT ORDINAL="2505" NAME="??4MenuItemLoader@cocosbuilder@@QAEAAV01@ABV01@@Z" PURGE="4" COMMENT="" />
    <EXPORT ORDINAL="2506" NAME="??4MenuLoader@cocosbuilder@@QAEAAV01@ABV01@@Z" PURGE="4" COMMENT="" />
    <EXPORT ORDINAL="2507" NAME="??4Mesh@cocos2d@@QAEAAV01@ABV01@@Z" PURGE="4" COMMENT="" />
    <EXPORT ORDINAL="2508" NAME="??4MeshCommand@cocos2d@@QAEAAV01@ABV01@@Z" PURGE="4" COMMENT="" />
    <EXPORT ORDINAL="2509" NAME="??4MeshIndexData@cocos2d@@QAEAAV01@ABV01@@Z" PURGE="4" COMMENT="" />
    <EXPORT ORDINAL="2510" NAME="??4MeshSkin@cocos2d@@QAEAAV01@ABV01@@Z" PURGE="4" COMMENT="" />
    <EXPORT ORDINAL="2511" NAME="??4MeshVertexData@cocos2d@@QAEAAV01@ABV01@@Z" PURGE="4" COMMENT="" />
    <EXPORT ORDINAL="2512" NAME="??4MovementBoneData@cocostudio@@QAEAAV01@ABV01@@Z" PURGE="4" COMMENT="" />
    <EXPORT ORDINAL="2513" NAME="??4MovementData@cocostudio@@QAEAAV01@ABV01@@Z" PURGE="4" COMMENT="" />
    <EXPORT ORDINAL="2514" NAME="??4NavMesh@cocos2d@@QAEAAV01@ABV01@@Z" PURGE="4" COMMENT="" />
    <EXPORT ORDINAL="2515" NAME="??4NavMeshAgent@cocos2d@@QAEAAV01@ABV01@@Z" PURGE="4" COMMENT="" />
    <EXPORT ORDINAL="2516" NAME="??4NavMeshAgentParam@cocos2d@@QAEAAU01@$$QAU01@@Z" PURGE="4" COMMENT="" />
    <EXPORT ORDINAL="2517" NAME="??4NavMeshAgentParam@cocos2d@@QAEAAU01@ABU01@@Z" PURGE="4" COMMENT="" />
    <EXPORT ORDINAL="2518" NAME="??4NavMeshObstacle@cocos2d@@QAEAAV01@ABV01@@Z" PURGE="4" COMMENT="" />
    <EXPORT ORDINAL="2519" NAME="??4NinePatchImageParser@cocos2d@@QAEAAV01@ABV01@@Z" PURGE="4" COMMENT="" />
    <EXPORT ORDINAL="2520" NAME="??4Node3DReader@cocostudio@@QAEAAV01@ABV01@@Z" PURGE="4" COMMENT="" />
    <EXPORT ORDINAL="2521" NAME="??4NodeExtension@cocos2d@@QAEAAV01@ABV01@@Z" PURGE="4" COMMENT="" />
    <EXPORT ORDINAL="2522" NAME="??4NodeLoader@cocosbuilder@@QAEAAV01@ABV01@@Z" PURGE="4" COMMENT="" />
    <EXPORT ORDINAL="2523" NAME="??4NodeLoaderLibrary@cocosbuilder@@QAEAAV01@ABV01@@Z" PURGE="4" COMMENT="" />
    <EXPORT ORDINAL="2524" NAME="??4NodeLoaderListener@cocosbuilder@@QAEAAV01@ABV01@@Z" PURGE="4" COMMENT="" />
    <EXPORT ORDINAL="2525" NAME="??4NodeReader@cocostudio@@QAEAAV01@ABV01@@Z" PURGE="4" COMMENT="" />
    <EXPORT ORDINAL="2526" NAME="??4NodeReaderProtocol@cocostudio@@QAEAAV01@ABV01@@Z" PURGE="4" COMMENT="" />
    <EXPORT ORDINAL="2527" NAME="??4NotificationObserver@cocos2d@@QAEAAV01@ABV01@@Z" PURGE="4" COMMENT="" />
    <EXPORT ORDINAL="2528" NAME="??4OBB@cocos2d@@QAEAAV01@$$QAV01@@Z" PURGE="4" COMMENT="" />
    <EXPORT ORDINAL="2529" NAME="??4OBB@cocos2d@@QAEAAV01@ABV01@@Z" PURGE="4" COMMENT="" />
    <EXPORT ORDINAL="2530" NAME="??4ObjectFactory@cocos2d@@QAEAAV01@ABV01@@Z" PURGE="4" COMMENT="" />
    <EXPORT ORDINAL="2531" NAME="??4OffMeshLinkData@cocos2d@@QAEAAU01@$$QAU01@@Z" PURGE="4" COMMENT="" />
    <EXPORT ORDINAL="2532" NAME="??4OffMeshLinkData@cocos2d@@QAEAAU01@ABU01@@Z" PURGE="4" COMMENT="" />
    <EXPORT ORDINAL="2533" NAME="??4PUAbstractNode@cocos2d@@QAEAAV01@ABV01@@Z" PURGE="4" COMMENT="" />
    <EXPORT ORDINAL="2534" NAME="??4PUAffector@cocos2d@@QAEAAV01@ABV01@@Z" PURGE="4" COMMENT="" />
    <EXPORT ORDINAL="2535" NAME="??4PUAlignAffector@cocos2d@@QAEAAV01@ABV01@@Z" PURGE="4" COMMENT="" />
    <EXPORT ORDINAL="2536" NAME="??4PUAtomAbstractNode@cocos2d@@QAEAAV01@$$QAV01@@Z" PURGE="4" COMMENT="" />
    <EXPORT ORDINAL="2537" NAME="??4PUAtomAbstractNode@cocos2d@@QAEAAV01@ABV01@@Z" PURGE="4" COMMENT="" />
    <EXPORT ORDINAL="2538" NAME="??4PUBaseCollider@cocos2d@@QAEAAV01@ABV01@@Z" PURGE="4" COMMENT="" />
    <EXPORT ORDINAL="2539" NAME="??4PUBaseForceAffector@cocos2d@@QAEAAV01@ABV01@@Z" PURGE="4" COMMENT="" />
    <EXPORT ORDINAL="2540" NAME="??4PUBeamRender@cocos2d@@QAEAAV01@ABV01@@Z" PURGE="4" COMMENT="" />
    <EXPORT ORDINAL="2541" NAME="??4PUBehaviour@cocos2d@@QAEAAV01@ABV01@@Z" PURGE="4" COMMENT="" />
    <EXPORT ORDINAL="2542" NAME="??4PUBoxCollider@cocos2d@@QAEAAV01@ABV01@@Z" PURGE="4" COMMENT="" />
    <EXPORT ORDINAL="2543" NAME="??4PUCircleEmitter@cocos2d@@QAEAAV01@ABV01@@Z" PURGE="4" COMMENT="" />
    <EXPORT ORDINAL="2544" NAME="??4PUCollisionAvoidanceAffector@cocos2d@@QAEAAV01@ABV01@@Z" PURGE="4" COMMENT="" />
    <EXPORT ORDINAL="2545" NAME="??4PUColorAffector@cocos2d@@QAEAAV01@ABV01@@Z" PURGE="4" COMMENT="" />
    <EXPORT ORDINAL="2546" NAME="??4PUDoAffectorEventHandler@cocos2d@@QAEAAV01@ABV01@@Z" PURGE="4" COMMENT="" />
    <EXPORT ORDINAL="2547" NAME="??4PUDoEnableComponentEventHandler@cocos2d@@QAEAAV01@ABV01@@Z" PURGE="4" COMMENT="" />
    <EXPORT ORDINAL="2548" NAME="??4PUDoExpireEventHandler@cocos2d@@QAEAAV01@ABV01@@Z" PURGE="4" COMMENT="" />
    <EXPORT ORDINAL="2549" NAME="??4PUDoFreezeEventHandler@cocos2d@@QAEAAV01@ABV01@@Z" PURGE="4" COMMENT="" />
    <EXPORT ORDINAL="2550" NAME="??4PUDoPlacementParticleEventHandler@cocos2d@@QAEAAV01@ABV01@@Z" PURGE="4" COMMENT="" />
    <EXPORT ORDINAL="2551" NAME="??4PUDoScaleEventHandler@cocos2d@@QAEAAV01@ABV01@@Z" PURGE="4" COMMENT="" />
    <EXPORT ORDINAL="2552" NAME="??4PUDoStopSystemEventHandler@cocos2d@@QAEAAV01@ABV01@@Z" PURGE="4" COMMENT="" />
    <EXPORT ORDINAL="2553" NAME="??4PUDynamicAttribute@cocos2d@@QAEAAV01@ABV01@@Z" PURGE="4" COMMENT="" />
    <EXPORT ORDINAL="2554" NAME="??4PUDynamicAttributeCurved@cocos2d@@QAEAAV01@ABV01@@Z" PURGE="4" COMMENT="" />
    <EXPORT ORDINAL="2555" NAME="??4PUDynamicAttributeFixed@cocos2d@@QAEAAV01@ABV01@@Z" PURGE="4" COMMENT="" />
    <EXPORT ORDINAL="2556" NAME="??4PUDynamicAttributeOscillate@cocos2d@@QAEAAV01@ABV01@@Z" PURGE="4" COMMENT="" />
    <EXPORT ORDINAL="2557" NAME="??4PUDynamicAttributeRandom@cocos2d@@QAEAAV01@ABV01@@Z" PURGE="4" COMMENT="" />
    <EXPORT ORDINAL="2558" NAME="??4PUEmitter@cocos2d@@QAEAAV01@ABV01@@Z" PURGE="4" COMMENT="" />
    <EXPORT ORDINAL="2559" NAME="??4PUEventHandler@cocos2d@@QAEAAV01@ABV01@@Z" PURGE="4" COMMENT="" />
    <EXPORT ORDINAL="2560" NAME="??4PUFlockCenteringAffector@cocos2d@@QAEAAV01@ABV01@@Z" PURGE="4" COMMENT="" />
    <EXPORT ORDINAL="2561" NAME="??4PUForceFieldAffector@cocos2d@@QAEAAV01@ABV01@@Z" PURGE="4" COMMENT="" />
    <EXPORT ORDINAL="2562" NAME="??4PUGeometryRotator@cocos2d@@QAEAAV01@ABV01@@Z" PURGE="4" COMMENT="" />
    <EXPORT ORDINAL="2563" NAME="??4PUGravityAffector@cocos2d@@QAEAAV01@ABV01@@Z" PURGE="4" COMMENT="" />
    <EXPORT ORDINAL="2564" NAME="??4PUJetAffector@cocos2d@@QAEAAV01@ABV01@@Z" PURGE="4" COMMENT="" />
    <EXPORT ORDINAL="2565" NAME="??4PULineAffector@cocos2d@@QAEAAV01@ABV01@@Z" PURGE="4" COMMENT="" />
    <EXPORT ORDINAL="2566" NAME="??4PULineEmitter@cocos2d@@QAEAAV01@ABV01@@Z" PURGE="4" COMMENT="" />
    <EXPORT ORDINAL="2567" NAME="??4PULinearForceAffector@cocos2d@@QAEAAV01@ABV01@@Z" PURGE="4" COMMENT="" />
    <EXPORT ORDINAL="2568" NAME="??4PUListener@cocos2d@@QAEAAV01@ABV01@@Z" PURGE="4" COMMENT="" />
    <EXPORT ORDINAL="2569" NAME="??4PUMaterial@cocos2d@@QAEAAV01@$$QAV01@@Z" PURGE="4" COMMENT="" />
    <EXPORT ORDINAL="2570" NAME="??4PUMaterial@cocos2d@@QAEAAV01@ABV01@@Z" PURGE="4" COMMENT="" />
    <EXPORT ORDINAL="2571" NAME="??4PUMaterialCache@cocos2d@@QAEAAV01@ABV01@@Z" PURGE="4" COMMENT="" />
    <EXPORT ORDINAL="2572" NAME="??4PUMeshSurfaceEmitter@cocos2d@@QAEAAV01@ABV01@@Z" PURGE="4" COMMENT="" />
    <EXPORT ORDINAL="2573" NAME="??4PUObjectAbstractNode@cocos2d@@QAEAAV01@ABV01@@Z" PURGE="4" COMMENT="" />
    <EXPORT ORDINAL="2574" NAME="??4PUObserver@cocos2d@@QAEAAV01@ABV01@@Z" PURGE="4" COMMENT="" />
    <EXPORT ORDINAL="2575" NAME="??4PUOnClearObserver@cocos2d@@QAEAAV01@ABV01@@Z" PURGE="4" COMMENT="" />
    <EXPORT ORDINAL="2576" NAME="??4PUOnCollisionObserver@cocos2d@@QAEAAV01@ABV01@@Z" PURGE="4" COMMENT="" />
    <EXPORT ORDINAL="2577" NAME="??4PUOnCountObserver@cocos2d@@QAEAAV01@ABV01@@Z" PURGE="4" COMMENT="" />
    <EXPORT ORDINAL="2578" NAME="??4PUOnEmissionObserver@cocos2d@@QAEAAV01@ABV01@@Z" PURGE="4" COMMENT="" />
    <EXPORT ORDINAL="2579" NAME="??4PUOnEventFlagObserver@cocos2d@@QAEAAV01@ABV01@@Z" PURGE="4" COMMENT="" />
    <EXPORT ORDINAL="2580" NAME="??4PUOnExpireObserver@cocos2d@@QAEAAV01@ABV01@@Z" PURGE="4" COMMENT="" />
    <EXPORT ORDINAL="2581" NAME="??4PUOnPositionObserver@cocos2d@@QAEAAV01@ABV01@@Z" PURGE="4" COMMENT="" />
    <EXPORT ORDINAL="2582" NAME="??4PUOnQuotaObserver@cocos2d@@QAEAAV01@ABV01@@Z" PURGE="4" COMMENT="" />
    <EXPORT ORDINAL="2583" NAME="??4PUOnRandomObserver@cocos2d@@QAEAAV01@ABV01@@Z" PURGE="4" COMMENT="" />
    <EXPORT ORDINAL="2584" NAME="??4PUOnTimeObserver@cocos2d@@QAEAAV01@ABV01@@Z" PURGE="4" COMMENT="" />
    <EXPORT ORDINAL="2585" NAME="??4PUOnVelocityObserver@cocos2d@@QAEAAV01@ABV01@@Z" PURGE="4" COMMENT="" />
    <EXPORT ORDINAL="2586" NAME="??4PUParticle3D@cocos2d@@QAEAAU01@ABU01@@Z" PURGE="4" COMMENT="" />
    <EXPORT ORDINAL="2587" NAME="??4PUParticle3DBoxRender@cocos2d@@QAEAAV01@ABV01@@Z" PURGE="4" COMMENT="" />
    <EXPORT ORDINAL="2588" NAME="??4PUParticle3DEntityRender@cocos2d@@QAEAAV01@ABV01@@Z" PURGE="4" COMMENT="" />
    <EXPORT ORDINAL="2589" NAME="??4PUParticle3DInterParticleCollider@cocos2d@@QAEAAV01@ABV01@@Z" PURGE="4" COMMENT="" />
    <EXPORT ORDINAL="2590" NAME="??4PUParticle3DModelRender@cocos2d@@QAEAAV01@ABV01@@Z" PURGE="4" COMMENT="" />
    <EXPORT ORDINAL="2591" NAME="??4PUParticle3DQuadRender@cocos2d@@QAEAAV01@ABV01@@Z" PURGE="4" COMMENT="" />
    <EXPORT ORDINAL="2592" NAME="??4PUParticleFollower@cocos2d@@QAEAAV01@ABV01@@Z" PURGE="4" COMMENT="" />
    <EXPORT ORDINAL="2593" NAME="??4PUPathFollower@cocos2d@@QAEAAV01@ABV01@@Z" PURGE="4" COMMENT="" />
    <EXPORT ORDINAL="2594" NAME="??4PUPlaneCollider@cocos2d@@QAEAAV01@ABV01@@Z" PURGE="4" COMMENT="" />
    <EXPORT ORDINAL="2595" NAME="??4PUPointEmitter@cocos2d@@QAEAAV01@ABV01@@Z" PURGE="4" COMMENT="" />
    <EXPORT ORDINAL="2596" NAME="??4PUPositionEmitter@cocos2d@@QAEAAV01@ABV01@@Z" PURGE="4" COMMENT="" />
    <EXPORT ORDINAL="2597" NAME="??4PUPropertyAbstractNode@cocos2d@@QAEAAV01@ABV01@@Z" PURGE="4" COMMENT="" />
    <EXPORT ORDINAL="2598" NAME="??4PURandomiser@cocos2d@@QAEAAV01@ABV01@@Z" PURGE="4" COMMENT="" />
    <EXPORT ORDINAL="2599" NAME="??4PURender@cocos2d@@QAEAAV01@$$QAV01@@Z" PURGE="4" COMMENT="" />
    <EXPORT ORDINAL="2600" NAME="??4PURender@cocos2d@@QAEAAV01@ABV01@@Z" PURGE="4" COMMENT="" />
    <EXPORT ORDINAL="2601" NAME="??4PURibbonTrailRender@cocos2d@@QAEAAV01@ABV01@@Z" PURGE="4" COMMENT="" />
    <EXPORT ORDINAL="2602" NAME="??4PUScaleAffector@cocos2d@@QAEAAV01@ABV01@@Z" PURGE="4" COMMENT="" />
    <EXPORT ORDINAL="2603" NAME="??4PUScaleVelocityAffector@cocos2d@@QAEAAV01@ABV01@@Z" PURGE="4" COMMENT="" />
    <EXPORT ORDINAL="2604" NAME="??4PUScriptCompiler@cocos2d@@QAEAAV01@ABV01@@Z" PURGE="4" COMMENT="" />
    <EXPORT ORDINAL="2605" NAME="??4PUSineForceAffector@cocos2d@@QAEAAV01@ABV01@@Z" PURGE="4" COMMENT="" />
    <EXPORT ORDINAL="2606" NAME="??4PUSlaveBehaviour@cocos2d@@QAEAAV01@ABV01@@Z" PURGE="4" COMMENT="" />
    <EXPORT ORDINAL="2607" NAME="??4PUSlaveEmitter@cocos2d@@QAEAAV01@ABV01@@Z" PURGE="4" COMMENT="" />
    <EXPORT ORDINAL="2608" NAME="??4PUSphereCollider@cocos2d@@QAEAAV01@ABV01@@Z" PURGE="4" COMMENT="" />
    <EXPORT ORDINAL="2609" NAME="??4PUSphereRender@cocos2d@@QAEAAV01@ABV01@@Z" PURGE="4" COMMENT="" />
    <EXPORT ORDINAL="2610" NAME="??4PUSphereSurfaceEmitter@cocos2d@@QAEAAV01@ABV01@@Z" PURGE="4" COMMENT="" />
    <EXPORT ORDINAL="2611" NAME="??4PUTextureAnimator@cocos2d@@QAEAAV01@ABV01@@Z" PURGE="4" COMMENT="" />
    <EXPORT ORDINAL="2612" NAME="??4PUTextureRotator@cocos2d@@QAEAAV01@ABV01@@Z" PURGE="4" COMMENT="" />
    <EXPORT ORDINAL="2613" NAME="??4PUVelocityMatchingAffector@cocos2d@@QAEAAV01@ABV01@@Z" PURGE="4" COMMENT="" />
    <EXPORT ORDINAL="2614" NAME="??4PUVortexAffector@cocos2d@@QAEAAV01@ABV01@@Z" PURGE="4" COMMENT="" />
    <EXPORT ORDINAL="2615" NAME="??4PageViewReader@cocostudio@@QAEAAV01@ABV01@@Z" PURGE="4" COMMENT="" />
    <EXPORT ORDINAL="2616" NAME="??4Particle3D@cocos2d@@QAEAAU01@ABU01@@Z" PURGE="4" COMMENT="" />
    <EXPORT ORDINAL="2617" NAME="??4Particle3DAffector@cocos2d@@QAEAAV01@ABV01@@Z" PURGE="4" COMMENT="" />
    <EXPORT ORDINAL="2618" NAME="??4Particle3DEmitter@cocos2d@@QAEAAV01@ABV01@@Z" PURGE="4" COMMENT="" />
    <EXPORT ORDINAL="2619" NAME="??4Particle3DModelRender@cocos2d@@QAEAAV01@ABV01@@Z" PURGE="4" COMMENT="" />
    <EXPORT ORDINAL="2620" NAME="??4Particle3DQuadRender@cocos2d@@QAEAAV01@ABV01@@Z" PURGE="4" COMMENT="" />
    <EXPORT ORDINAL="2621" NAME="??4Particle3DReader@cocostudio@@QAEAAV01@ABV01@@Z" PURGE="4" COMMENT="" />
    <EXPORT ORDINAL="2622" NAME="??4Particle3DRender@cocos2d@@QAEAAV01@ABV01@@Z" PURGE="4" COMMENT="" />
    <EXPORT ORDINAL="2623" NAME="??4ParticleData@cocos2d@@QAEAAV01@$$QAV01@@Z" PURGE="4" COMMENT="" />
    <EXPORT ORDINAL="2624" NAME="??4ParticleData@cocos2d@@QAEAAV01@ABV01@@Z" PURGE="4" COMMENT="" />
    <EXPORT ORDINAL="2625" NAME="??4ParticleDisplayData@cocostudio@@QAEAAV01@ABV01@@Z" PURGE="4" COMMENT="" />
    <EXPORT ORDINAL="2626" NAME="??4ParticleReader@cocostudio@@QAEAAV01@ABV01@@Z" PURGE="4" COMMENT="" />
    <EXPORT ORDINAL="2627" NAME="??4ParticleSystemQuadLoader@cocosbuilder@@QAEAAV01@ABV01@@Z" PURGE="4" COMMENT="" />
    <EXPORT ORDINAL="2628" NAME="??4Pass@cocos2d@@QAEAAV01@ABV01@@Z" PURGE="4" COMMENT="" />
    <EXPORT ORDINAL="2629" NAME="??4Physics3D6DofConstraint@cocos2d@@QAEAAV01@ABV01@@Z" PURGE="4" COMMENT="" />
    <EXPORT ORDINAL="2630" NAME="??4Physics3DCollider@cocos2d@@QAEAAV01@ABV01@@Z" PURGE="4" COMMENT="" />
    <EXPORT ORDINAL="2631" NAME="??4Physics3DColliderDes@cocos2d@@QAEAAU01@$$QAU01@@Z" PURGE="4" COMMENT="" />
    <EXPORT ORDINAL="2632" NAME="??4Physics3DColliderDes@cocos2d@@QAEAAU01@ABU01@@Z" PURGE="4" COMMENT="" />
    <EXPORT ORDINAL="2633" NAME="??4Physics3DCollisionInfo@cocos2d@@QAEAAU01@$$QAU01@@Z" PURGE="4" COMMENT="" />
    <EXPORT ORDINAL="2634" NAME="??4Physics3DCollisionInfo@cocos2d@@QAEAAU01@ABU01@@Z" PURGE="4" COMMENT="" />
    <EXPORT ORDINAL="2635" NAME="??4Physics3DComponent@cocos2d@@QAEAAV01@ABV01@@Z" PURGE="4" COMMENT="" />
    <EXPORT ORDINAL="2636" NAME="??4Physics3DConeTwistConstraint@cocos2d@@QAEAAV01@ABV01@@Z" PURGE="4" COMMENT="" />
    <EXPORT ORDINAL="2637" NAME="??4Physics3DConstraint@cocos2d@@QAEAAV01@ABV01@@Z" PURGE="4" COMMENT="" />
    <EXPORT ORDINAL="2638" NAME="??4Physics3DHingeConstraint@cocos2d@@QAEAAV01@ABV01@@Z" PURGE="4" COMMENT="" />
    <EXPORT ORDINAL="2639" NAME="??4Physics3DObject@cocos2d@@QAEAAV01@ABV01@@Z" PURGE="4" COMMENT="" />
    <EXPORT ORDINAL="2640" NAME="??4Physics3DPointToPointConstraint@cocos2d@@QAEAAV01@ABV01@@Z" PURGE="4" COMMENT="" />
    <EXPORT ORDINAL="2641" NAME="??4Physics3DRigidBody@cocos2d@@QAEAAV01@ABV01@@Z" PURGE="4" COMMENT="" />
    <EXPORT ORDINAL="2642" NAME="??4Physics3DRigidBodyDes@cocos2d@@QAEAAU01@$$QAU01@@Z" PURGE="4" COMMENT="" />
    <EXPORT ORDINAL="2643" NAME="??4Physics3DRigidBodyDes@cocos2d@@QAEAAU01@ABU01@@Z" PURGE="4" COMMENT="" />
    <EXPORT ORDINAL="2644" NAME="??4Physics3DShape@cocos2d@@QAEAAV01@ABV01@@Z" PURGE="4" COMMENT="" />
    <EXPORT ORDINAL="2645" NAME="??4Physics3DSliderConstraint@cocos2d@@QAEAAV01@ABV01@@Z" PURGE="4" COMMENT="" />
    <EXPORT ORDINAL="2646" NAME="??4Physics3DWorld@cocos2d@@QAEAAV01@ABV01@@Z" PURGE="4" COMMENT="" />
    <EXPORT ORDINAL="2647" NAME="??4Physics3DWorldDes@cocos2d@@QAEAAU01@$$QAU01@@Z" PURGE="4" COMMENT="" />
    <EXPORT ORDINAL="2648" NAME="??4Physics3DWorldDes@cocos2d@@QAEAAU01@ABU01@@Z" PURGE="4" COMMENT="" />
    <EXPORT ORDINAL="2649" NAME="??4PhysicsBody@cocos2d@@QAEAAV01@ABV01@@Z" PURGE="4" COMMENT="" />
    <EXPORT ORDINAL="2650" NAME="??4PhysicsContact@cocos2d@@QAEAAV01@ABV01@@Z" PURGE="4" COMMENT="" />
    <EXPORT ORDINAL="2651" NAME="??4PhysicsContactData@cocos2d@@QAEAAU01@$$QAU01@@Z" PURGE="4" COMMENT="" />
    <EXPORT ORDINAL="2652" NAME="??4PhysicsContactData@cocos2d@@QAEAAU01@ABU01@@Z" PURGE="4" COMMENT="" />
    <EXPORT ORDINAL="2653" NAME="??4PhysicsContactPostSolve@cocos2d@@QAEAAV01@ABV01@@Z" PURGE="4" COMMENT="" />
    <EXPORT ORDINAL="2654" NAME="??4PhysicsContactPreSolve@cocos2d@@QAEAAV01@ABV01@@Z" PURGE="4" COMMENT="" />
    <EXPORT ORDINAL="2655" NAME="??4PhysicsJoint@cocos2d@@QAEAAV01@ABV01@@Z" PURGE="4" COMMENT="" />
    <EXPORT ORDINAL="2656" NAME="??4PhysicsJointDistance@cocos2d@@QAEAAV01@ABV01@@Z" PURGE="4" COMMENT="" />
    <EXPORT ORDINAL="2657" NAME="??4PhysicsJointFixed@cocos2d@@QAEAAV01@ABV01@@Z" PURGE="4" COMMENT="" />
    <EXPORT ORDINAL="2658" NAME="??4PhysicsJointGear@cocos2d@@QAEAAV01@ABV01@@Z" PURGE="4" COMMENT="" />
    <EXPORT ORDINAL="2659" NAME="??4PhysicsJointGroove@cocos2d@@QAEAAV01@ABV01@@Z" PURGE="4" COMMENT="" />
    <EXPORT ORDINAL="2660" NAME="??4PhysicsJointLimit@cocos2d@@QAEAAV01@ABV01@@Z" PURGE="4" COMMENT="" />
    <EXPORT ORDINAL="2661" NAME="??4PhysicsJointMotor@cocos2d@@QAEAAV01@ABV01@@Z" PURGE="4" COMMENT="" />
    <EXPORT ORDINAL="2662" NAME="??4PhysicsJointPin@cocos2d@@QAEAAV01@ABV01@@Z" PURGE="4" COMMENT="" />
    <EXPORT ORDINAL="2663" NAME="??4PhysicsJointRatchet@cocos2d@@QAEAAV01@ABV01@@Z" PURGE="4" COMMENT="" />
    <EXPORT ORDINAL="2664" NAME="??4PhysicsJointRotaryLimit@cocos2d@@QAEAAV01@ABV01@@Z" PURGE="4" COMMENT="" />
    <EXPORT ORDINAL="2665" NAME="??4PhysicsJointRotarySpring@cocos2d@@QAEAAV01@ABV01@@Z" PURGE="4" COMMENT="" />
    <EXPORT ORDINAL="2666" NAME="??4PhysicsJointSpring@cocos2d@@QAEAAV01@ABV01@@Z" PURGE="4" COMMENT="" />
    <EXPORT ORDINAL="2667" NAME="??4PhysicsMaterial@cocos2d@@QAEAAU01@$$QAU01@@Z" PURGE="4" COMMENT="" />
    <EXPORT ORDINAL="2668" NAME="??4PhysicsMaterial@cocos2d@@QAEAAU01@ABU01@@Z" PURGE="4" COMMENT="" />
    <EXPORT ORDINAL="2669" NAME="??4PhysicsShape@cocos2d@@QAEAAV01@ABV01@@Z" PURGE="4" COMMENT="" />
    <EXPORT ORDINAL="2670" NAME="??4PhysicsShapeBox@cocos2d@@QAEAAV01@ABV01@@Z" PURGE="4" COMMENT="" />
    <EXPORT ORDINAL="2671" NAME="??4PhysicsShapeCircle@cocos2d@@QAEAAV01@ABV01@@Z" PURGE="4" COMMENT="" />
    <EXPORT ORDINAL="2672" NAME="??4PhysicsShapeEdgeBox@cocos2d@@QAEAAV01@ABV01@@Z" PURGE="4" COMMENT="" />
    <EXPORT ORDINAL="2673" NAME="??4PhysicsShapeEdgeChain@cocos2d@@QAEAAV01@ABV01@@Z" PURGE="4" COMMENT="" />
    <EXPORT ORDINAL="2674" NAME="??4PhysicsShapeEdgePolygon@cocos2d@@QAEAAV01@ABV01@@Z" PURGE="4" COMMENT="" />
    <EXPORT ORDINAL="2675" NAME="??4PhysicsShapeEdgeSegment@cocos2d@@QAEAAV01@ABV01@@Z" PURGE="4" COMMENT="" />
    <EXPORT ORDINAL="2676" NAME="??4PhysicsShapePolygon@cocos2d@@QAEAAV01@ABV01@@Z" PURGE="4" COMMENT="" />
    <EXPORT ORDINAL="2677" NAME="??4PhysicsWorld@cocos2d@@QAEAAV01@ABV01@@Z" PURGE="4" COMMENT="" />
    <EXPORT ORDINAL="2678" NAME="??4Plane@cocos2d@@QAEAAV01@$$QAV01@@Z" PURGE="4" COMMENT="" />
    <EXPORT ORDINAL="2679" NAME="??4Plane@cocos2d@@QAEAAV01@ABV01@@Z" PURGE="4" COMMENT="" />
    <EXPORT ORDINAL="2680" NAME="??4PlayableFrame@timeline@cocostudio@@QAEAAV012@$$QAV012@@Z" PURGE="4" COMMENT="" />
    <EXPORT ORDINAL="2681" NAME="??4PlayableFrame@timeline@cocostudio@@QAEAAV012@ABV012@@Z" PURGE="4" COMMENT="" />
    <EXPORT ORDINAL="2682" NAME="??4PlayableProtocol@cocos2d@@QAEAAV01@ABV01@@Z" PURGE="4" COMMENT="" />
    <EXPORT ORDINAL="2683" NAME="??4PointArray@cocos2d@@QAEAAV01@ABV01@@Z" PURGE="4" COMMENT="" />
    <EXPORT ORDINAL="2684" NAME="??4PointSprite@cocos2d@@QAEAAU01@$$QAU01@@Z" PURGE="4" COMMENT="" />
    <EXPORT ORDINAL="2685" NAME="??4PointSprite@cocos2d@@QAEAAU01@ABU01@@Z" PURGE="4" COMMENT="" />
    <EXPORT ORDINAL="2686" NAME="??4PolygonInfo@cocos2d@@QAEAAV01@ABV01@@Z" PURGE="4" COMMENT="" />
    <EXPORT ORDINAL="2687" NAME="??4PoolManager@cocos2d@@QAEAAV01@ABV01@@Z" PURGE="4" COMMENT="" />
    <EXPORT ORDINAL="2688" NAME="??4PositionFrame@timeline@cocostudio@@QAEAAV012@$$QAV012@@Z" PURGE="4" COMMENT="" />
    <EXPORT ORDINAL="2689" NAME="??4PositionFrame@timeline@cocostudio@@QAEAAV012@ABV012@@Z" PURGE="4" COMMENT="" />
    <EXPORT ORDINAL="2690" NAME="??4PrettyPrinter@cocos2d@@QAEAAV01@$$QAV01@@Z" PURGE="4" COMMENT="" />
    <EXPORT ORDINAL="2691" NAME="??4PrettyPrinter@cocos2d@@QAEAAV01@ABV01@@Z" PURGE="4" COMMENT="" />
    <EXPORT ORDINAL="2692" NAME="??4Primitive@cocos2d@@QAEAAV01@ABV01@@Z" PURGE="4" COMMENT="" />
    <EXPORT ORDINAL="2693" NAME="??4PrimitiveCommand@cocos2d@@QAEAAV01@ABV01@@Z" PURGE="4" COMMENT="" />
    <EXPORT ORDINAL="2694" NAME="??4ProcessBase@cocostudio@@QAEAAV01@ABV01@@Z" PURGE="4" COMMENT="" />
    <EXPORT ORDINAL="2695" NAME="??4Profiler@cocos2d@@QAEAAV01@ABV01@@Z" PURGE="4" COMMENT="" />
    <EXPORT ORDINAL="2696" NAME="??4ProjectNodeReader@cocostudio@@QAEAAV01@ABV01@@Z" PURGE="4" COMMENT="" />
    <EXPORT ORDINAL="2697" NAME="??4Properties@cocos2d@@QAEAAV01@ABV01@@Z" PURGE="4" COMMENT="" />
    <EXPORT ORDINAL="2698" NAME="??4Quad2@cocos2d@@QAEAAU01@$$QAU01@@Z" PURGE="4" COMMENT="" />
    <EXPORT ORDINAL="2699" NAME="??4Quad2@cocos2d@@QAEAAU01@ABU01@@Z" PURGE="4" COMMENT="" />
    <EXPORT ORDINAL="2700" NAME="??4Quad3@cocos2d@@QAEAAU01@$$QAU01@@Z" PURGE="4" COMMENT="" />
    <EXPORT ORDINAL="2701" NAME="??4Quad3@cocos2d@@QAEAAU01@ABU01@@Z" PURGE="4" COMMENT="" />
    <EXPORT ORDINAL="2702" NAME="??4QuadCommand@cocos2d@@QAEAAV01@ABV01@@Z" PURGE="4" COMMENT="" />
    <EXPORT ORDINAL="2703" NAME="??4QuadTree@Terrain@cocos2d@@QAEAAU012@ABU012@@Z" PURGE="4" COMMENT="" />
    <EXPORT ORDINAL="2704" NAME="??4Quaternion@cocos2d@@QAEAAV01@ABV01@@Z" PURGE="4" COMMENT="" />
    <EXPORT ORDINAL="2705" NAME="??4RandomHelper@cocos2d@@QAEAAV01@$$QAV01@@Z" PURGE="4" COMMENT="" />
    <EXPORT ORDINAL="2706" NAME="??4RandomHelper@cocos2d@@QAEAAV01@ABV01@@Z" PURGE="4" COMMENT="" />
    <EXPORT ORDINAL="2707" NAME="??4Ray@cocos2d@@QAEAAV01@ABV01@@Z" PURGE="4" COMMENT="" />
    <EXPORT ORDINAL="2708" NAME="??4Rect@cocos2d@@QAEAAV01@ABV01@@Z" PURGE="4" COMMENT="" />
    <EXPORT ORDINAL="2709" NAME="??4Ref@cocos2d@@QAEAAV01@ABV01@@Z" PURGE="4" COMMENT="" />
    <EXPORT ORDINAL="2710" NAME="??4RelativeLayoutManager@ui@cocos2d@@QAEAAV012@ABV012@@Z" PURGE="4" COMMENT="" />
    <EXPORT ORDINAL="2711" NAME="??4RelativeLayoutParameter@ui@cocos2d@@QAEAAV012@ABV012@@Z" PURGE="4" COMMENT="" />
    <EXPORT ORDINAL="2712" NAME="??4RenderCommand@cocos2d@@QAEAAV01@ABV01@@Z" PURGE="4" COMMENT="" />
    <EXPORT ORDINAL="2713" NAME="??4RenderState@cocos2d@@QAEAAV01@ABV01@@Z" PURGE="4" COMMENT="" />
    <EXPORT ORDINAL="2714" NAME="??4RenderTarget@experimental@cocos2d@@QAEAAV012@ABV012@@Z" PURGE="4" COMMENT="" />
    <EXPORT ORDINAL="2715" NAME="??4RenderTargetBase@experimental@cocos2d@@QAEAAV012@ABV012@@Z" PURGE="4" COMMENT="" />
    <EXPORT ORDINAL="2716" NAME="??4RenderTargetDepthStencil@experimental@cocos2d@@QAEAAV012@ABV012@@Z" PURGE="4" COMMENT="" />
    <EXPORT ORDINAL="2717" NAME="??4RenderTargetRenderBuffer@experimental@cocos2d@@QAEAAV012@ABV012@@Z" PURGE="4" COMMENT="" />
    <EXPORT ORDINAL="2718" NAME="??4Renderer@cocos2d@@QAEAAV01@ABV01@@Z" PURGE="4" COMMENT="" />
    <EXPORT ORDINAL="2719" NAME="??4ResourceData@cocos2d@@QAEAAU01@$$QAU01@@Z" PURGE="4" COMMENT="" />
    <EXPORT ORDINAL="2720" NAME="??4ResourceData@cocos2d@@QAEAAU01@ABU01@@Z" PURGE="4" COMMENT="" />
    <EXPORT ORDINAL="2721" NAME="??4RichElement@ui@cocos2d@@QAEAAV012@ABV012@@Z" PURGE="4" COMMENT="" />
    <EXPORT ORDINAL="2722" NAME="??4RichElementCustomNode@ui@cocos2d@@QAEAAV012@ABV012@@Z" PURGE="4" COMMENT="" />
    <EXPORT ORDINAL="2723" NAME="??4RichElementImage@ui@cocos2d@@QAEAAV012@ABV012@@Z" PURGE="4" COMMENT="" />
    <EXPORT ORDINAL="2724" NAME="??4RichElementNewLine@ui@cocos2d@@QAEAAV012@ABV012@@Z" PURGE="4" COMMENT="" />
    <EXPORT ORDINAL="2725" NAME="??4RichElementText@ui@cocos2d@@QAEAAV012@ABV012@@Z" PURGE="4" COMMENT="" />
    <EXPORT ORDINAL="2726" NAME="??4RotationFrame@timeline@cocostudio@@QAEAAV012@$$QAV012@@Z" PURGE="4" COMMENT="" />
    <EXPORT ORDINAL="2727" NAME="??4RotationFrame@timeline@cocostudio@@QAEAAV012@ABV012@@Z" PURGE="4" COMMENT="" />
    <EXPORT ORDINAL="2728" NAME="??4RotationSkewFrame@timeline@cocostudio@@QAEAAV012@$$QAV012@@Z" PURGE="4" COMMENT="" />
    <EXPORT ORDINAL="2729" NAME="??4RotationSkewFrame@timeline@cocostudio@@QAEAAV012@ABV012@@Z" PURGE="4" COMMENT="" />
    <EXPORT ORDINAL="2730" NAME="??4SAXDelegator@cocos2d@@QAEAAV01@ABV01@@Z" PURGE="4" COMMENT="" />
    <EXPORT ORDINAL="2731" NAME="??4SAXParser@cocos2d@@QAEAAV01@ABV01@@Z" PURGE="4" COMMENT="" />
    <EXPORT ORDINAL="2732" NAME="??4Scale9SpriteLoader@cocosbuilder@@QAEAAV01@ABV01@@Z" PURGE="4" COMMENT="" />
    <EXPORT ORDINAL="2733" NAME="??4ScaleFrame@timeline@cocostudio@@QAEAAV012@$$QAV012@@Z" PURGE="4" COMMENT="" />
    <EXPORT ORDINAL="2734" NAME="??4ScaleFrame@timeline@cocostudio@@QAEAAV012@ABV012@@Z" PURGE="4" COMMENT="" />
    <EXPORT ORDINAL="2735" NAME="??4SceneReader@cocostudio@@QAEAAV01@ABV01@@Z" PURGE="4" COMMENT="" />
    <EXPORT ORDINAL="2736" NAME="??4ScriptEngineManager@cocos2d@@QAEAAV01@ABV01@@Z" PURGE="4" COMMENT="" />
    <EXPORT ORDINAL="2737" NAME="??4ScriptEngineProtocol@cocos2d@@QAEAAV01@ABV01@@Z" PURGE="4" COMMENT="" />
    <EXPORT ORDINAL="2738" NAME="??4ScrollViewDelegate@extension@cocos2d@@QAEAAV012@ABV012@@Z" PURGE="4" COMMENT="" />
    <EXPORT ORDINAL="2739" NAME="??4ScrollViewLoader@cocosbuilder@@QAEAAV01@ABV01@@Z" PURGE="4" COMMENT="" />
    <EXPORT ORDINAL="2740" NAME="??4ScrollViewReader@cocostudio@@QAEAAV01@ABV01@@Z" PURGE="4" COMMENT="" />
    <EXPORT ORDINAL="2741" NAME="??4SerData@@QAEAAU0@$$QAU0@@Z" PURGE="4" COMMENT="" />
    <EXPORT ORDINAL="2742" NAME="??4SerData@@QAEAAU0@ABU0@@Z" PURGE="4" COMMENT="" />
    <EXPORT ORDINAL="2743" NAME="??4SimpleAudioEngine@CocosDenshion@@QAEAAV01@ABV01@@Z" PURGE="4" COMMENT="" />
    <EXPORT ORDINAL="2744" NAME="??4SingleNodeReader@cocostudio@@QAEAAV01@ABV01@@Z" PURGE="4" COMMENT="" />
    <EXPORT ORDINAL="2745" NAME="??4Size@cocos2d@@QAEAAV01@ABV01@@Z" PURGE="4" COMMENT="" />
    <EXPORT ORDINAL="2746" NAME="??4Size@cocos2d@@QAEAAV01@ABVVec2@1@@Z" PURGE="4" COMMENT="" />
    <EXPORT ORDINAL="2747" NAME="??4Skeleton3D@cocos2d@@QAEAAV01@ABV01@@Z" PURGE="4" COMMENT="" />
    <EXPORT ORDINAL="2748" NAME="??4SkewFrame@timeline@cocostudio@@QAEAAV012@$$QAV012@@Z" PURGE="4" COMMENT="" />
    <EXPORT ORDINAL="2749" NAME="??4SkewFrame@timeline@cocostudio@@QAEAAV012@ABV012@@Z" PURGE="4" COMMENT="" />
    <EXPORT ORDINAL="2750" NAME="??4SliderReader@cocostudio@@QAEAAV01@ABV01@@Z" PURGE="4" COMMENT="" />
    <EXPORT ORDINAL="2751" NAME="??4Sprite3DCache@cocos2d@@QAEAAV01@ABV01@@Z" PURGE="4" COMMENT="" />
    <EXPORT ORDINAL="2752" NAME="??4Sprite3DMaterial@cocos2d@@QAEAAV01@$$QAV01@@Z" PURGE="4" COMMENT="" />
    <EXPORT ORDINAL="2753" NAME="??4Sprite3DMaterial@cocos2d@@QAEAAV01@ABV01@@Z" PURGE="4" COMMENT="" />
    <EXPORT ORDINAL="2754" NAME="??4Sprite3DReader@cocostudio@@QAEAAV01@ABV01@@Z" PURGE="4" COMMENT="" />
    <EXPORT ORDINAL="2755" NAME="??4SpriteDisplayData@cocostudio@@QAEAAV01@ABV01@@Z" PURGE="4" COMMENT="" />
    <EXPORT ORDINAL="2756" NAME="??4SpriteFrame@cocos2d@@QAEAAV01@ABV01@@Z" PURGE="4" COMMENT="" />
    <EXPORT ORDINAL="2757" NAME="??4SpriteFrameCache@cocos2d@@QAEAAV01@ABV01@@Z" PURGE="4" COMMENT="" />
    <EXPORT ORDINAL="2758" NAME="??4SpriteFrameCacheHelper@cocostudio@@QAEAAV01@ABV01@@Z" PURGE="4" COMMENT="" />
    <EXPORT ORDINAL="2759" NAME="??4SpriteLoader@cocosbuilder@@QAEAAV01@ABV01@@Z" PURGE="4" COMMENT="" />
    <EXPORT ORDINAL="2760" NAME="??4SpriteReader@cocostudio@@QAEAAV01@ABV01@@Z" PURGE="4" COMMENT="" />
    <EXPORT ORDINAL="2761" NAME="??4StateBlock@RenderState@cocos2d@@QAEAAV012@ABV012@@Z" PURGE="4" COMMENT="" />
    <EXPORT ORDINAL="2762" NAME="??4StrPair@tinyxml2@@QAEAAV01@ABV01@@Z" PURGE="4" COMMENT="" />
    <EXPORT ORDINAL="2763" NAME="??4StringUTF8@StringUtils@cocos2d@@QAEAAV012@ABV012@@Z" PURGE="4" COMMENT="" />
    <EXPORT ORDINAL="2764" NAME="??4T2F_Quad@cocos2d@@QAEAAU01@$$QAU01@@Z" PURGE="4" COMMENT="" />
    <EXPORT ORDINAL="2765" NAME="??4T2F_Quad@cocos2d@@QAEAAU01@ABU01@@Z" PURGE="4" COMMENT="" />
    <EXPORT ORDINAL="2766" NAME="??4TInfo@ObjectFactory@cocos2d@@QAEAAU012@ABU012@@Z" PURGE="4" COMMENT="" />
    <EXPORT ORDINAL="2767" NAME="??4TMXLayerInfo@cocos2d@@QAEAAV01@ABV01@@Z" PURGE="4" COMMENT="" />
    <EXPORT ORDINAL="2768" NAME="??4TMXMapInfo@cocos2d@@QAEAAV01@ABV01@@Z" PURGE="4" COMMENT="" />
    <EXPORT ORDINAL="2769" NAME="??4TMXObjectGroup@cocos2d@@QAEAAV01@ABV01@@Z" PURGE="4" COMMENT="" />
    <EXPORT ORDINAL="2770" NAME="??4TMXTilesetInfo@cocos2d@@QAEAAV01@ABV01@@Z" PURGE="4" COMMENT="" />
    <EXPORT ORDINAL="2771" NAME="??4TableViewDataSource@extension@cocos2d@@QAEAAV012@ABV012@@Z" PURGE="4" COMMENT="" />
    <EXPORT ORDINAL="2772" NAME="??4TableViewDelegate@extension@cocos2d@@QAEAAV012@$$QAV012@@Z" PURGE="4" COMMENT="" />
    <EXPORT ORDINAL="2773" NAME="??4TableViewDelegate@extension@cocos2d@@QAEAAV012@ABV012@@Z" PURGE="4" COMMENT="" />
    <EXPORT ORDINAL="2774" NAME="??4Technique@cocos2d@@QAEAAV01@ABV01@@Z" PURGE="4" COMMENT="" />
    <EXPORT ORDINAL="2775" NAME="??4TerrainData@Terrain@cocos2d@@QAEAAU012@$$QAU012@@Z" PURGE="4" COMMENT="" />
    <EXPORT ORDINAL="2776" NAME="??4TerrainData@Terrain@cocos2d@@QAEAAU012@ABU012@@Z" PURGE="4" COMMENT="" />
    <EXPORT ORDINAL="2777" NAME="??4TerrainVertexData@Terrain@cocos2d@@QAEAAU012@$$QAU012@@Z" PURGE="4" COMMENT="" />
    <EXPORT ORDINAL="2778" NAME="??4TerrainVertexData@Terrain@cocos2d@@QAEAAU012@ABU012@@Z" PURGE="4" COMMENT="" />
    <EXPORT ORDINAL="2779" NAME="??4Tex2F@cocos2d@@QAEAAU01@$$QAU01@@Z" PURGE="4" COMMENT="" />
    <EXPORT ORDINAL="2780" NAME="??4Tex2F@cocos2d@@QAEAAU01@ABU01@@Z" PURGE="4" COMMENT="" />
    <EXPORT ORDINAL="2781" NAME="??4TextAtlasReader@cocostudio@@QAEAAV01@ABV01@@Z" PURGE="4" COMMENT="" />
    <EXPORT ORDINAL="2782" NAME="??4TextBMFontReader@cocostudio@@QAEAAV01@ABV01@@Z" PURGE="4" COMMENT="" />
    <EXPORT ORDINAL="2783" NAME="??4TextFieldDelegate@cocos2d@@QAEAAV01@ABV01@@Z" PURGE="4" COMMENT="" />
    <EXPORT ORDINAL="2784" NAME="??4TextFieldReader@cocostudio@@QAEAAV01@ABV01@@Z" PURGE="4" COMMENT="" />
    <EXPORT ORDINAL="2785" NAME="??4TextReader@cocostudio@@QAEAAV01@ABV01@@Z" PURGE="4" COMMENT="" />
    <EXPORT ORDINAL="2786" NAME="??4Texture2D@cocos2d@@QAEAAV01@ABV01@@Z" PURGE="4" COMMENT="" />
    <EXPORT ORDINAL="2787" NAME="??4TextureAtlas@cocos2d@@QAEAAV01@ABV01@@Z" PURGE="4" COMMENT="" />
    <EXPORT ORDINAL="2788" NAME="??4TextureCube@cocos2d@@QAEAAV01@ABV01@@Z" PURGE="4" COMMENT="" />
    <EXPORT ORDINAL="2789" NAME="??4TextureData@cocostudio@@QAEAAV01@ABV01@@Z" PURGE="4" COMMENT="" />
    <EXPORT ORDINAL="2790" NAME="??4TextureFrame@timeline@cocostudio@@QAEAAV012@$$QAV012@@Z" PURGE="4" COMMENT="" />
    <EXPORT ORDINAL="2791" NAME="??4TextureFrame@timeline@cocostudio@@QAEAAV012@ABV012@@Z" PURGE="4" COMMENT="" />
    <EXPORT ORDINAL="2792" NAME="??4TextureProtocol@cocos2d@@QAEAAV01@ABV01@@Z" PURGE="4" COMMENT="" />
    <EXPORT ORDINAL="2793" NAME="??4ThreadHelper@cocos2d@@QAEAAV01@$$QAV01@@Z" PURGE="4" COMMENT="" />
    <EXPORT ORDINAL="2794" NAME="??4ThreadHelper@cocos2d@@QAEAAV01@ABV01@@Z" PURGE="4" COMMENT="" />
    <EXPORT ORDINAL="2795" NAME="??4TiledGrid3D@cocos2d@@QAEAAV01@ABV01@@Z" PURGE="4" COMMENT="" />
    <EXPORT ORDINAL="2796" NAME="??4Timeline@timeline@cocostudio@@QAEAAV012@ABV012@@Z" PURGE="4" COMMENT="" />
    <EXPORT ORDINAL="2797" NAME="??4Timer@cocos2d@@QAEAAV01@$$QAV01@@Z" PURGE="4" COMMENT="" />
    <EXPORT ORDINAL="2798" NAME="??4Timer@cocos2d@@QAEAAV01@ABV01@@Z" PURGE="4" COMMENT="" />
    <EXPORT ORDINAL="2799" NAME="??4TimerScriptHandler@cocos2d@@QAEAAV01@$$QAV01@@Z" PURGE="4" COMMENT="" />
    <EXPORT ORDINAL="2800" NAME="??4TimerScriptHandler@cocos2d@@QAEAAV01@ABV01@@Z" PURGE="4" COMMENT="" />
    <EXPORT ORDINAL="2801" NAME="??4TimerTargetCallback@cocos2d@@QAEAAV01@$$QAV01@@Z" PURGE="4" COMMENT="" />
    <EXPORT ORDINAL="2802" NAME="??4TimerTargetCallback@cocos2d@@QAEAAV01@ABV01@@Z" PURGE="4" COMMENT="" />
    <EXPORT ORDINAL="2803" NAME="??4TimerTargetSelector@cocos2d@@QAEAAV01@$$QAV01@@Z" PURGE="4" COMMENT="" />
    <EXPORT ORDINAL="2804" NAME="??4TimerTargetSelector@cocos2d@@QAEAAV01@ABV01@@Z" PURGE="4" COMMENT="" />
    <EXPORT ORDINAL="2805" NAME="??4Touch@cocos2d@@QAEAAV01@$$QAV01@@Z" PURGE="4" COMMENT="" />
    <EXPORT ORDINAL="2806" NAME="??4Touch@cocos2d@@QAEAAV01@ABV01@@Z" PURGE="4" COMMENT="" />
    <EXPORT ORDINAL="2807" NAME="??4TransformHelp@cocostudio@@QAEAAV01@$$QAV01@@Z" PURGE="4" COMMENT="" />
    <EXPORT ORDINAL="2808" NAME="??4TransformHelp@cocostudio@@QAEAAV01@ABV01@@Z" PURGE="4" COMMENT="" />
    <EXPORT ORDINAL="2809" NAME="??4TransitionEaseScene@cocos2d@@QAEAAV01@ABV01@@Z" PURGE="4" COMMENT="" />
    <EXPORT ORDINAL="2810" NAME="??4TrianglesCommand@cocos2d@@QAEAAV01@ABV01@@Z" PURGE="4" COMMENT="" />
    <EXPORT ORDINAL="2811" NAME="??4TriggerMng@cocostudio@@QAEAAV01@ABV01@@Z" PURGE="4" COMMENT="" />
    <EXPORT ORDINAL="2812" NAME="??4TriggerObj@cocostudio@@QAEAAV01@ABV01@@Z" PURGE="4" COMMENT="" />
    <EXPORT ORDINAL="2813" NAME="??4Tween@cocostudio@@QAEAAV01@ABV01@@Z" PURGE="4" COMMENT="" />
    <EXPORT ORDINAL="2814" NAME="??4UniformValue@cocos2d@@QAEAAV01@ABV01@@Z" PURGE="4" COMMENT="" />
    <EXPORT ORDINAL="2815" NAME="??4UserCameraReader@cocostudio@@QAEAAV01@ABV01@@Z" PURGE="4" COMMENT="" />
    <EXPORT ORDINAL="2816" NAME="??4UserDefault@cocos2d@@QAEAAV01@ABV01@@Z" PURGE="4" COMMENT="" />
    <EXPORT ORDINAL="2817" NAME="??4V2F_C4B_T2F_Quad@cocos2d@@QAEAAU01@$$QAU01@@Z" PURGE="4" COMMENT="" />
    <EXPORT ORDINAL="2818" NAME="??4V2F_C4B_T2F_Quad@cocos2d@@QAEAAU01@ABU01@@Z" PURGE="4" COMMENT="" />
    <EXPORT ORDINAL="2819" NAME="??4V2F_C4B_T2F_Triangle@cocos2d@@QAEAAU01@$$QAU01@@Z" PURGE="4" COMMENT="" />
    <EXPORT ORDINAL="2820" NAME="??4V2F_C4B_T2F_Triangle@cocos2d@@QAEAAU01@ABU01@@Z" PURGE="4" COMMENT="" />
    <EXPORT ORDINAL="2821" NAME="??4V2F_C4F_T2F@cocos2d@@QAEAAU01@$$QAU01@@Z" PURGE="4" COMMENT="" />
    <EXPORT ORDINAL="2822" NAME="??4V2F_C4F_T2F@cocos2d@@QAEAAU01@ABU01@@Z" PURGE="4" COMMENT="" />
    <EXPORT ORDINAL="2823" NAME="??4V2F_C4F_T2F_Quad@cocos2d@@QAEAAU01@$$QAU01@@Z" PURGE="4" COMMENT="" />
    <EXPORT ORDINAL="2824" NAME="??4V2F_C4F_T2F_Quad@cocos2d@@QAEAAU01@ABU01@@Z" PURGE="4" COMMENT="" />
    <EXPORT ORDINAL="2825" NAME="??4V3F_C4B_T2F@cocos2d@@QAEAAU01@$$QAU01@@Z" PURGE="4" COMMENT="" />
    <EXPORT ORDINAL="2826" NAME="??4V3F_C4B_T2F@cocos2d@@QAEAAU01@ABU01@@Z" PURGE="4" COMMENT="" />
    <EXPORT ORDINAL="2827" NAME="??4V3F_C4B_T2F_Quad@cocos2d@@QAEAAU01@$$QAU01@@Z" PURGE="4" COMMENT="" />
    <EXPORT ORDINAL="2828" NAME="??4V3F_C4B_T2F_Quad@cocos2d@@QAEAAU01@ABU01@@Z" PURGE="4" COMMENT="" />
    <EXPORT ORDINAL="2829" NAME="??4V3F_T2F@cocos2d@@QAEAAU01@$$QAU01@@Z" PURGE="4" COMMENT="" />
    <EXPORT ORDINAL="2830" NAME="??4V3F_T2F@cocos2d@@QAEAAU01@ABU01@@Z" PURGE="4" COMMENT="" />
    <EXPORT ORDINAL="2831" NAME="??4V3F_T2F_Quad@cocos2d@@QAEAAU01@$$QAU01@@Z" PURGE="4" COMMENT="" />
    <EXPORT ORDINAL="2832" NAME="??4V3F_T2F_Quad@cocos2d@@QAEAAU01@ABU01@@Z" PURGE="4" COMMENT="" />
    <EXPORT ORDINAL="2833" NAME="??4VREye@cocos2d@@QAEAAU01@$$QAU01@@Z" PURGE="4" COMMENT="" />
    <EXPORT ORDINAL="2834" NAME="??4VREye@cocos2d@@QAEAAU01@ABU01@@Z" PURGE="4" COMMENT="" />
    <EXPORT ORDINAL="2835" NAME="??4VRGenericHeadTracker@cocos2d@@QAEAAV01@ABV01@@Z" PURGE="4" COMMENT="" />
    <EXPORT ORDINAL="2836" NAME="??4VRGenericRenderer@cocos2d@@QAEAAV01@ABV01@@Z" PURGE="4" COMMENT="" />
    <EXPORT ORDINAL="2837" NAME="??4VRIHeadTracker@cocos2d@@QAEAAV01@ABV01@@Z" PURGE="4" COMMENT="" />
    <EXPORT ORDINAL="2838" NAME="??4VRIRenderer@cocos2d@@QAEAAV01@ABV01@@Z" PURGE="4" COMMENT="" />
    <EXPORT ORDINAL="2839" NAME="??4Value@cocos2d@@QAEAAV01@$$QAV01@@Z" PURGE="4" COMMENT="" />
    <EXPORT ORDINAL="2840" NAME="??4Value@cocos2d@@QAEAAV01@$$QAV?$unordered_map@HVValue@cocos2d@@U?$hash@H@std@@U?$equal_to@H@4@V?$allocator@U?$pair@$$CBHVValue@cocos2d@@@std@@@4@@std@@@Z" PURGE="4" COMMENT="" />
    <EXPORT ORDINAL="2841" NAME="??4Value@cocos2d@@QAEAAV01@$$QAV?$unordered_map@V?$basic_string@DU?$char_traits@D@std@@V?$allocator@D@2@@std@@VValue@cocos2d@@U?$hash@V?$basic_string@DU?$char_traits@D@std@@V?$allocator@D@2@@std@@@2@U?$equal_to@V?$basic_string@DU?$char_traits@D@std@@V?$allocator@D@2@@std@@@2@V?$allocator@U?$pair@$$CBV?$basic_string@DU?$char_traits@D@std@@V?$allocator@D@2@@std@@VValue@cocos2d@@@std@@@2@@std@@@Z" PURGE="4" COMMENT="" />
    <EXPORT ORDINAL="2842" NAME="??4Value@cocos2d@@QAEAAV01@$$QAV?$vector@VValue@cocos2d@@V?$allocator@VValue@cocos2d@@@std@@@std@@@Z" PURGE="4" COMMENT="" />
    <EXPORT ORDINAL="2843" NAME="??4Value@cocos2d@@QAEAAV01@ABV01@@Z" PURGE="4" COMMENT="" />
    <EXPORT ORDINAL="2844" NAME="??4Value@cocos2d@@QAEAAV01@ABV?$basic_string@DU?$char_traits@D@std@@V?$allocator@D@2@@std@@@Z" PURGE="4" COMMENT="" />
    <EXPORT ORDINAL="2845" NAME="??4Value@cocos2d@@QAEAAV01@ABV?$unordered_map@HVValue@cocos2d@@U?$hash@H@std@@U?$equal_to@H@4@V?$allocator@U?$pair@$$CBHVValue@cocos2d@@@std@@@4@@std@@@Z" PURGE="4" COMMENT="" />
    <EXPORT ORDINAL="2846" NAME="??4Value@cocos2d@@QAEAAV01@ABV?$unordered_map@V?$basic_string@DU?$char_traits@D@std@@V?$allocator@D@2@@std@@VValue@cocos2d@@U?$hash@V?$basic_string@DU?$char_traits@D@std@@V?$allocator@D@2@@std@@@2@U?$equal_to@V?$basic_string@DU?$char_traits@D@std@@V?$allocator@D@2@@std@@@2@V?$allocator@U?$pair@$$CBV?$basic_string@DU?$char_traits@D@std@@V?$allocator@D@2@@std@@VValue@cocos2d@@@std@@@2@@std@@@Z" PURGE="4" COMMENT="" />
    <EXPORT ORDINAL="2847" NAME="??4Value@cocos2d@@QAEAAV01@ABV?$vector@VValue@cocos2d@@V?$allocator@VValue@cocos2d@@@std@@@std@@@Z" PURGE="4" COMMENT="" />
    <EXPORT ORDINAL="2848" NAME="??4Value@cocos2d@@QAEAAV01@E@Z" PURGE="4" COMMENT="" />
    <EXPORT ORDINAL="2849" NAME="??4Value@cocos2d@@QAEAAV01@H@Z" PURGE="4" COMMENT="" />
    <EXPORT ORDINAL="2850" NAME="??4Value@cocos2d@@QAEAAV01@I@Z" PURGE="4" COMMENT="" />
    <EXPORT ORDINAL="2851" NAME="??4Value@cocos2d@@QAEAAV01@M@Z" PURGE="4" COMMENT="" />
    <EXPORT ORDINAL="2852" NAME="??4Value@cocos2d@@QAEAAV01@N@Z" PURGE="8" COMMENT="" />
    <EXPORT ORDINAL="2853" NAME="??4Value@cocos2d@@QAEAAV01@PBD@Z" PURGE="4" COMMENT="" />
    <EXPORT ORDINAL="2854" NAME="??4Value@cocos2d@@QAEAAV01@_N@Z" PURGE="4" COMMENT="" />
    <EXPORT ORDINAL="2855" NAME="??4Vec2@cocos2d@@QAEAAV01@ABV01@@Z" PURGE="4" COMMENT="" />
    <EXPORT ORDINAL="2856" NAME="??4Vec3@cocos2d@@QAEAAV01@ABV01@@Z" PURGE="4" COMMENT="" />
    <EXPORT ORDINAL="2857" NAME="??4Vec4@cocos2d@@QAEAAV01@ABV01@@Z" PURGE="4" COMMENT="" />
    <EXPORT ORDINAL="2858" NAME="??4VertexAttribValue@cocos2d@@QAEAAV01@ABV01@@Z" PURGE="4" COMMENT="" />
    <EXPORT ORDINAL="2859" NAME="??4VertexBuffer@cocos2d@@QAEAAV01@ABV01@@Z" PURGE="4" COMMENT="" />
    <EXPORT ORDINAL="2860" NAME="??4VertexData@cocos2d@@QAEAAV01@ABV01@@Z" PURGE="4" COMMENT="" />
    <EXPORT ORDINAL="2861" NAME="??4VertexStreamAttribute@cocos2d@@QAEAAU01@$$QAU01@@Z" PURGE="4" COMMENT="" />
    <EXPORT ORDINAL="2862" NAME="??4VertexStreamAttribute@cocos2d@@QAEAAU01@ABU01@@Z" PURGE="4" COMMENT="" />
    <EXPORT ORDINAL="2863" NAME="??4Viewport@experimental@cocos2d@@QAEAAU012@$$QAU012@@Z" PURGE="4" COMMENT="" />
    <EXPORT ORDINAL="2864" NAME="??4Viewport@experimental@cocos2d@@QAEAAU012@ABU012@@Z" PURGE="4" COMMENT="" />
    <EXPORT ORDINAL="2865" NAME="??4VisibleFrame@timeline@cocostudio@@QAEAAV012@$$QAV012@@Z" PURGE="4" COMMENT="" />
    <EXPORT ORDINAL="2866" NAME="??4VisibleFrame@timeline@cocostudio@@QAEAAV012@ABV012@@Z" PURGE="4" COMMENT="" />
    <EXPORT ORDINAL="2867" NAME="??4WidgetCallBackHandlerProtocol@cocostudio@@QAEAAV01@ABV01@@Z" PURGE="4" COMMENT="" />
    <EXPORT ORDINAL="2868" NAME="??4WidgetPropertiesReader0250@cocostudio@@QAEAAV01@ABV01@@Z" PURGE="4" COMMENT="" />
    <EXPORT ORDINAL="2869" NAME="??4WidgetPropertiesReader0300@cocostudio@@QAEAAV01@ABV01@@Z" PURGE="4" COMMENT="" />
    <EXPORT ORDINAL="2870" NAME="??4WidgetPropertiesReader@cocostudio@@QAEAAV01@$$QAV01@@Z" PURGE="4" COMMENT="" />
    <EXPORT ORDINAL="2871" NAME="??4WidgetPropertiesReader@cocostudio@@QAEAAV01@ABV01@@Z" PURGE="4" COMMENT="" />
    <EXPORT ORDINAL="2872" NAME="??4WidgetReader@cocostudio@@QAEAAV01@ABV01@@Z" PURGE="4" COMMENT="" />
    <EXPORT ORDINAL="2873" NAME="??4WidgetReaderProtocol@cocostudio@@QAEAAV01@ABV01@@Z" PURGE="4" COMMENT="" />
    <EXPORT ORDINAL="2874" NAME="??4XMLConstHandle@tinyxml2@@QAEAAV01@ABV01@@Z" PURGE="4" COMMENT="" />
    <EXPORT ORDINAL="2875" NAME="??4XMLHandle@tinyxml2@@QAEAAV01@ABV01@@Z" PURGE="4" COMMENT="" />
    <EXPORT ORDINAL="2876" NAME="??4XMLPrinter@tinyxml2@@QAEAAV01@ABV01@@Z" PURGE="4" COMMENT="" />
    <EXPORT ORDINAL="2877" NAME="??4XMLUtil@tinyxml2@@QAEAAV01@$$QAV01@@Z" PURGE="4" COMMENT="" />
    <EXPORT ORDINAL="2878" NAME="??4XMLUtil@tinyxml2@@QAEAAV01@ABV01@@Z" PURGE="4" COMMENT="" />
    <EXPORT ORDINAL="2879" NAME="??4XMLVisitor@tinyxml2@@QAEAAV01@ABV01@@Z" PURGE="4" COMMENT="" />
    <EXPORT ORDINAL="2880" NAME="??4ZOrderFrame@timeline@cocostudio@@QAEAAV012@$$QAV012@@Z" PURGE="4" COMMENT="" />
    <EXPORT ORDINAL="2881" NAME="??4ZOrderFrame@timeline@cocostudio@@QAEAAV012@ABV012@@Z" PURGE="4" COMMENT="" />
    <EXPORT ORDINAL="2882" NAME="??4ZipFile@cocos2d@@QAEAAV01@ABV01@@Z" PURGE="4" COMMENT="" />
    <EXPORT ORDINAL="2883" NAME="??4ZipUtils@cocos2d@@QAEAAV01@$$QAV01@@Z" PURGE="4" COMMENT="" />
    <EXPORT ORDINAL="2884" NAME="??4ZipUtils@cocos2d@@QAEAAV01@ABV01@@Z" PURGE="4" COMMENT="" />
    <EXPORT ORDINAL="2885" NAME="??4__Array@cocos2d@@QAEAAV01@ABV01@@Z" PURGE="4" COMMENT="" />
    <EXPORT ORDINAL="2886" NAME="??4__Bool@cocos2d@@QAEAAV01@$$QAV01@@Z" PURGE="4" COMMENT="" />
    <EXPORT ORDINAL="2887" NAME="??4__Bool@cocos2d@@QAEAAV01@ABV01@@Z" PURGE="4" COMMENT="" />
    <EXPORT ORDINAL="2888" NAME="??4__Dictionary@cocos2d@@QAEAAV01@ABV01@@Z" PURGE="4" COMMENT="" />
    <EXPORT ORDINAL="2889" NAME="??4__Double@cocos2d@@QAEAAV01@$$QAV01@@Z" PURGE="4" COMMENT="" />
    <EXPORT ORDINAL="2890" NAME="??4__Double@cocos2d@@QAEAAV01@ABV01@@Z" PURGE="4" COMMENT="" />
    <EXPORT ORDINAL="2891" NAME="??4__Float@cocos2d@@QAEAAV01@$$QAV01@@Z" PURGE="4" COMMENT="" />
    <EXPORT ORDINAL="2892" NAME="??4__Float@cocos2d@@QAEAAV01@ABV01@@Z" PURGE="4" COMMENT="" />
    <EXPORT ORDINAL="2893" NAME="??4__Integer@cocos2d@@QAEAAV01@ABV01@@Z" PURGE="4" COMMENT="" />
    <EXPORT ORDINAL="2894" NAME="??4__NotificationCenter@cocos2d@@QAEAAV01@ABV01@@Z" PURGE="4" COMMENT="" />
    <EXPORT ORDINAL="2895" NAME="??4__RGBAProtocol@cocos2d@@QAEAAV01@ABV01@@Z" PURGE="4" COMMENT="" />
    <EXPORT ORDINAL="2896" NAME="??4__Set@cocos2d@@QAEAAV01@ABV01@@Z" PURGE="4" COMMENT="" />
    <EXPORT ORDINAL="2897" NAME="??4__String@cocos2d@@QAEAAV01@ABV01@@Z" PURGE="4" COMMENT="" />
    <EXPORT ORDINAL="2898" NAME="??4stCocoFileHeader@cocostudio@@QAEAAU01@$$QAU01@@Z" PURGE="4" COMMENT="" />
    <EXPORT ORDINAL="2899" NAME="??4stCocoFileHeader@cocostudio@@QAEAAU01@ABU01@@Z" PURGE="4" COMMENT="" />
    <EXPORT ORDINAL="2900" NAME="??4stExpCocoAttribDesc@cocostudio@@QAEAAU01@$$QAU01@@Z" PURGE="4" COMMENT="" />
    <EXPORT ORDINAL="2901" NAME="??4stExpCocoAttribDesc@cocostudio@@QAEAAU01@ABU01@@Z" PURGE="4" COMMENT="" />
    <EXPORT ORDINAL="2902" NAME="??4stExpCocoNode@cocostudio@@QAEAAU01@$$QAU01@@Z" PURGE="4" COMMENT="" />
    <EXPORT ORDINAL="2903" NAME="??4stExpCocoNode@cocostudio@@QAEAAU01@ABU01@@Z" PURGE="4" COMMENT="" />
    <EXPORT ORDINAL="2904" NAME="??4stExpCocoObjectDesc@cocostudio@@QAEAAU01@$$QAU01@@Z" PURGE="4" COMMENT="" />
    <EXPORT ORDINAL="2905" NAME="??4stExpCocoObjectDesc@cocostudio@@QAEAAU01@ABU01@@Z" PURGE="4" COMMENT="" />
    <EXPORT ORDINAL="2906" NAME="??8BlendFunc@cocos2d@@QBE_NABU01@@Z" PURGE="4" COMMENT="" />
    <EXPORT ORDINAL="2907" NAME="??8Color3B@cocos2d@@QBE_NABU01@@Z" PURGE="4" COMMENT="" />
    <EXPORT ORDINAL="2908" NAME="??8Color3B@cocos2d@@QBE_NABUColor4B@1@@Z" PURGE="4" COMMENT="" />
    <EXPORT ORDINAL="2909" NAME="??8Color3B@cocos2d@@QBE_NABUColor4F@1@@Z" PURGE="4" COMMENT="" />
    <EXPORT ORDINAL="2910" NAME="??8Color4B@cocos2d@@QBE_NABU01@@Z" PURGE="4" COMMENT="" />
    <EXPORT ORDINAL="2911" NAME="??8Color4B@cocos2d@@QBE_NABUColor3B@1@@Z" PURGE="4" COMMENT="" />
    <EXPORT ORDINAL="2912" NAME="??8Color4B@cocos2d@@QBE_NABUColor4F@1@@Z" PURGE="4" COMMENT="" />
    <EXPORT ORDINAL="2913" NAME="??8Color4F@cocos2d@@QBE_NABU01@@Z" PURGE="4" COMMENT="" />
    <EXPORT ORDINAL="2914" NAME="??8Color4F@cocos2d@@QBE_NABUColor3B@1@@Z" PURGE="4" COMMENT="" />
    <EXPORT ORDINAL="2915" NAME="??8Color4F@cocos2d@@QBE_NABUColor4B@1@@Z" PURGE="4" COMMENT="" />
    <EXPORT ORDINAL="2916" NAME="??8Value@cocos2d@@QAE_NABV01@@Z" PURGE="4" COMMENT="" />
    <EXPORT ORDINAL="2917" NAME="??8Value@cocos2d@@QBE_NABV01@@Z" PURGE="4" COMMENT="" />
    <EXPORT ORDINAL="2918" NAME="??8Vec2@cocos2d@@QBE_NABV01@@Z" PURGE="4" COMMENT="" />
    <EXPORT ORDINAL="2919" NAME="??8Vec3@cocos2d@@QBE_NABV01@@Z" PURGE="4" COMMENT="" />
    <EXPORT ORDINAL="2920" NAME="??8Vec4@cocos2d@@QBE_NABV01@@Z" PURGE="4" COMMENT="" />
    <EXPORT ORDINAL="2921" NAME="??9BlendFunc@cocos2d@@QBE_NABU01@@Z" PURGE="4" COMMENT="" />
    <EXPORT ORDINAL="2922" NAME="??9Color3B@cocos2d@@QBE_NABU01@@Z" PURGE="4" COMMENT="" />
    <EXPORT ORDINAL="2923" NAME="??9Color3B@cocos2d@@QBE_NABUColor4B@1@@Z" PURGE="4" COMMENT="" />
    <EXPORT ORDINAL="2924" NAME="??9Color3B@cocos2d@@QBE_NABUColor4F@1@@Z" PURGE="4" COMMENT="" />
    <EXPORT ORDINAL="2925" NAME="??9Color4B@cocos2d@@QBE_NABU01@@Z" PURGE="4" COMMENT="" />
    <EXPORT ORDINAL="2926" NAME="??9Color4B@cocos2d@@QBE_NABUColor3B@1@@Z" PURGE="4" COMMENT="" />
    <EXPORT ORDINAL="2927" NAME="??9Color4B@cocos2d@@QBE_NABUColor4F@1@@Z" PURGE="4" COMMENT="" />
    <EXPORT ORDINAL="2928" NAME="??9Color4F@cocos2d@@QBE_NABU01@@Z" PURGE="4" COMMENT="" />
    <EXPORT ORDINAL="2929" NAME="??9Color4F@cocos2d@@QBE_NABUColor3B@1@@Z" PURGE="4" COMMENT="" />
    <EXPORT ORDINAL="2930" NAME="??9Color4F@cocos2d@@QBE_NABUColor4B@1@@Z" PURGE="4" COMMENT="" />
    <EXPORT ORDINAL="2931" NAME="??9Value@cocos2d@@QAE_NABV01@@Z" PURGE="4" COMMENT="" />
    <EXPORT ORDINAL="2932" NAME="??9Value@cocos2d@@QBE_NABV01@@Z" PURGE="4" COMMENT="" />
    <EXPORT ORDINAL="2933" NAME="??9Vec2@cocos2d@@QBE_NABV01@@Z" PURGE="4" COMMENT="" />
    <EXPORT ORDINAL="2934" NAME="??9Vec3@cocos2d@@QBE_NABV01@@Z" PURGE="4" COMMENT="" />
    <EXPORT ORDINAL="2935" NAME="??9Vec4@cocos2d@@QBE_NABV01@@Z" PURGE="4" COMMENT="" />
    <EXPORT ORDINAL="2936" NAME="??A?$DynArray@PAUBlock@?$MemPoolT@$0CE@@tinyxml2@@$09@tinyxml2@@QAEAAPAUBlock@?$MemPoolT@$0CE@@1@H@Z" PURGE="4" COMMENT="" />
    <EXPORT ORDINAL="2937" NAME="??A?$DynArray@PAUBlock@?$MemPoolT@$0CM@@tinyxml2@@$09@tinyxml2@@QAEAAPAUBlock@?$MemPoolT@$0CM@@1@H@Z" PURGE="4" COMMENT="" />
    <EXPORT ORDINAL="2938" NAME="??A?$DynArray@PAUBlock@?$MemPoolT@$0DA@@tinyxml2@@$09@tinyxml2@@QAEAAPAUBlock@?$MemPoolT@$0DA@@1@H@Z" PURGE="4" COMMENT="" />
    <EXPORT ORDINAL="2939" NAME="??A?$DynArray@PAUBlock@?$MemPoolT@$0DE@@tinyxml2@@$09@tinyxml2@@QAEAAPAUBlock@?$MemPoolT@$0DE@@1@H@Z" PURGE="4" COMMENT="" />
    <EXPORT ORDINAL="2940" NAME="??BSize@cocos2d@@QBE?AVVec2@1@XZ" PURGE="4" COMMENT="" />
    <EXPORT ORDINAL="2941" NAME="??DMat4@cocos2d@@QBE?AV01@ABV01@@Z" PURGE="8" COMMENT="" />
    <EXPORT ORDINAL="2942" NAME="??DQuaternion@cocos2d@@QBE?AV01@ABV01@@Z" PURGE="8" COMMENT="" />
    <EXPORT ORDINAL="2943" NAME="??DQuaternion@cocos2d@@QBE?AVVec3@1@ABV21@@Z" PURGE="8" COMMENT="" />
    <EXPORT ORDINAL="2944" NAME="??DSize@cocos2d@@QBE?AV01@M@Z" PURGE="8" COMMENT="" />
    <EXPORT ORDINAL="2945" NAME="??DVec2@cocos2d@@QBE?AV01@M@Z" PURGE="8" COMMENT="" />
    <EXPORT ORDINAL="2946" NAME="??DVec3@cocos2d@@QBE?AV01@M@Z" PURGE="8" COMMENT="" />
    <EXPORT ORDINAL="2947" NAME="??DVec4@cocos2d@@QBE?AV01@M@Z" PURGE="8" COMMENT="" />
    <EXPORT ORDINAL="2948" NAME="??GMat4@cocos2d@@QBE?AV01@ABV01@@Z" PURGE="8" COMMENT="" />
    <EXPORT ORDINAL="2949" NAME="??GMat4@cocos2d@@QBE?AV01@XZ" PURGE="4" COMMENT="" />
    <EXPORT ORDINAL="2950" NAME="??GSize@cocos2d@@QBE?AV01@ABV01@@Z" PURGE="8" COMMENT="" />
    <EXPORT ORDINAL="2951" NAME="??GVec2@cocos2d@@QBE?AV01@ABV01@@Z" PURGE="8" COMMENT="" />
    <EXPORT ORDINAL="2952" NAME="??GVec2@cocos2d@@QBE?AV01@XZ" PURGE="4" COMMENT="" />
    <EXPORT ORDINAL="2953" NAME="??GVec3@cocos2d@@QBE?AV01@ABV01@@Z" PURGE="8" COMMENT="" />
    <EXPORT ORDINAL="2954" NAME="??GVec3@cocos2d@@QBE?AV01@XZ" PURGE="4" COMMENT="" />
    <EXPORT ORDINAL="2955" NAME="??GVec4@cocos2d@@QBE?AV01@ABV01@@Z" PURGE="8" COMMENT="" />
    <EXPORT ORDINAL="2956" NAME="??GVec4@cocos2d@@QBE?AV01@XZ" PURGE="4" COMMENT="" />
    <EXPORT ORDINAL="2957" NAME="??HMat4@cocos2d@@QBE?AV01@ABV01@@Z" PURGE="8" COMMENT="" />
    <EXPORT ORDINAL="2958" NAME="??HSize@cocos2d@@QBE?AV01@ABV01@@Z" PURGE="8" COMMENT="" />
    <EXPORT ORDINAL="2959" NAME="??HVec2@cocos2d@@QBE?AV01@ABV01@@Z" PURGE="8" COMMENT="" />
    <EXPORT ORDINAL="2960" NAME="??HVec3@cocos2d@@QBE?AV01@ABV01@@Z" PURGE="8" COMMENT="" />
    <EXPORT ORDINAL="2961" NAME="??HVec4@cocos2d@@QBE?AV01@ABV01@@Z" PURGE="8" COMMENT="" />
    <EXPORT ORDINAL="2962" NAME="??KSize@cocos2d@@QBE?AV01@M@Z" PURGE="8" COMMENT="" />
    <EXPORT ORDINAL="2963" NAME="??KVec2@cocos2d@@QBE?AV01@M@Z" PURGE="8" COMMENT="" />
    <EXPORT ORDINAL="2964" NAME="??KVec3@cocos2d@@QBE?AV01@M@Z" PURGE="8" COMMENT="" />
    <EXPORT ORDINAL="2965" NAME="??KVec4@cocos2d@@QBE?AV01@M@Z" PURGE="8" COMMENT="" />
    <EXPORT ORDINAL="2966" NAME="??MBlendFunc@cocos2d@@QBE_NABU01@@Z" PURGE="4" COMMENT="" />
    <EXPORT ORDINAL="2967" NAME="??MVec2@cocos2d@@QBE_NABV01@@Z" PURGE="4" COMMENT="" />
    <EXPORT ORDINAL="2968" NAME="??MVec3@cocos2d@@QBE_NABV01@@Z" PURGE="4" COMMENT="" />
    <EXPORT ORDINAL="2969" NAME="??MVec4@cocos2d@@QBE_NABV01@@Z" PURGE="4" COMMENT="" />
    <EXPORT ORDINAL="2970" NAME="??OVec2@cocos2d@@QBE_NABV01@@Z" PURGE="4" COMMENT="" />
    <EXPORT ORDINAL="2971" NAME="??OVec3@cocos2d@@QBE_NABV01@@Z" PURGE="4" COMMENT="" />
    <EXPORT ORDINAL="2972" NAME="??Uextension@cocos2d@@YA?AW4EventType@Control@01@W42301@0@Z" PURGE="0" COMMENT="" />
    <EXPORT ORDINAL="2973" NAME="??XMat4@cocos2d@@QAEAAV01@ABV01@@Z" PURGE="4" COMMENT="" />
    <EXPORT ORDINAL="2974" NAME="??XQuaternion@cocos2d@@QAEAAV01@ABV01@@Z" PURGE="4" COMMENT="" />
    <EXPORT ORDINAL="2975" NAME="??XVec2@cocos2d@@QAEAAV01@M@Z" PURGE="4" COMMENT="" />
    <EXPORT ORDINAL="2976" NAME="??XVec3@cocos2d@@QAEAAV01@M@Z" PURGE="4" COMMENT="" />
    <EXPORT ORDINAL="2977" NAME="??XVec4@cocos2d@@QAEAAV01@M@Z" PURGE="4" COMMENT="" />
    <EXPORT ORDINAL="2978" NAME="??YMat4@cocos2d@@QAEAAV01@ABV01@@Z" PURGE="4" COMMENT="" />
    <EXPORT ORDINAL="2979" NAME="??YVec2@cocos2d@@QAEAAV01@ABV01@@Z" PURGE="4" COMMENT="" />
    <EXPORT ORDINAL="2980" NAME="??YVec3@cocos2d@@QAEAAV01@ABV01@@Z" PURGE="4" COMMENT="" />
    <EXPORT ORDINAL="2981" NAME="??YVec4@cocos2d@@QAEAAV01@ABV01@@Z" PURGE="4" COMMENT="" />
    <EXPORT ORDINAL="2982" NAME="??ZMat4@cocos2d@@QAEAAV01@ABV01@@Z" PURGE="4" COMMENT="" />
    <EXPORT ORDINAL="2983" NAME="??ZVec2@cocos2d@@QAEAAV01@ABV01@@Z" PURGE="4" COMMENT="" />
    <EXPORT ORDINAL="2984" NAME="??ZVec3@cocos2d@@QAEAAV01@ABV01@@Z" PURGE="4" COMMENT="" />
    <EXPORT ORDINAL="2985" NAME="??ZVec4@cocos2d@@QAEAAV01@ABV01@@Z" PURGE="4" COMMENT="" />
    <EXPORT ORDINAL="2986" NAME="??_7?$MemPoolT@$0CE@@tinyxml2@@6B@" PURGE="-1" COMMENT="" />
    <EXPORT ORDINAL="2987" NAME="??_7?$MemPoolT@$0CM@@tinyxml2@@6B@" PURGE="-1" COMMENT="" />
    <EXPORT ORDINAL="2988" NAME="??_7?$MemPoolT@$0DA@@tinyxml2@@6B@" PURGE="-1" COMMENT="" />
    <EXPORT ORDINAL="2989" NAME="??_7?$MemPoolT@$0DE@@tinyxml2@@6B@" PURGE="-1" COMMENT="" />
    <EXPORT ORDINAL="2990" NAME="??_7AbstractCheckButton@ui@cocos2d@@6BLayoutParameterProtocol@12@@" PURGE="-1" COMMENT="" />
    <EXPORT ORDINAL="2991" NAME="??_7AbstractCheckButton@ui@cocos2d@@6BProtectedNode@2@@" PURGE="-1" COMMENT="" />
    <EXPORT ORDINAL="2992" NAME="??_7AccelAmplitude@cocos2d@@6BClonable@1@@" PURGE="-1" COMMENT="" />
    <EXPORT ORDINAL="2993" NAME="??_7AccelAmplitude@cocos2d@@6BRef@1@@" PURGE="-1" COMMENT="" />
    <EXPORT ORDINAL="2994" NAME="??_7AccelDeccelAmplitude@cocos2d@@6BClonable@1@@" PURGE="-1" COMMENT="" />
    <EXPORT ORDINAL="2995" NAME="??_7AccelDeccelAmplitude@cocos2d@@6BRef@1@@" PURGE="-1" COMMENT="" />
    <EXPORT ORDINAL="2996" NAME="??_7Acceleration@cocos2d@@6B@" PURGE="-1" COMMENT="" />
    <EXPORT ORDINAL="2997" NAME="??_7Action@cocos2d@@6BClonable@1@@" PURGE="-1" COMMENT="" />
    <EXPORT ORDINAL="2998" NAME="??_7Action@cocos2d@@6BRef@1@@" PURGE="-1" COMMENT="" />
    <EXPORT ORDINAL="2999" NAME="??_7ActionCamera@cocos2d@@6BClonable@1@@" PURGE="-1" COMMENT="" />
    <EXPORT ORDINAL="3000" NAME="??_7ActionCamera@cocos2d@@6BRef@1@@" PURGE="-1" COMMENT="" />
    <EXPORT ORDINAL="3001" NAME="??_7ActionEase@cocos2d@@6BClonable@1@@" PURGE="-1" COMMENT="" />
    <EXPORT ORDINAL="3002" NAME="??_7ActionEase@cocos2d@@6BRef@1@@" PURGE="-1" COMMENT="" />
    <EXPORT ORDINAL="3003" NAME="??_7ActionFadeFrame@cocostudio@@6B@" PURGE="-1" COMMENT="" />
    <EXPORT ORDINAL="3004" NAME="??_7ActionFloat@cocos2d@@6BClonable@1@@" PURGE="-1" COMMENT="" />
    <EXPORT ORDINAL="3005" NAME="??_7ActionFloat@cocos2d@@6BRef@1@@" PURGE="-1" COMMENT="" />
    <EXPORT ORDINAL="3006" NAME="??_7ActionFrame@cocostudio@@6B@" PURGE="-1" COMMENT="" />
    <EXPORT ORDINAL="3007" NAME="??_7ActionFrameEasing@cocostudio@@6B@" PURGE="-1" COMMENT="" />
    <EXPORT ORDINAL="3008" NAME="??_7ActionInstant@cocos2d@@6BClonable@1@@" PURGE="-1" COMMENT="" />
    <EXPORT ORDINAL="3009" NAME="??_7ActionInstant@cocos2d@@6BRef@1@@" PURGE="-1" COMMENT="" />
    <EXPORT ORDINAL="3010" NAME="??_7ActionInterval@cocos2d@@6BClonable@1@@" PURGE="-1" COMMENT="" />
    <EXPORT ORDINAL="3011" NAME="??_7ActionInterval@cocos2d@@6BRef@1@@" PURGE="-1" COMMENT="" />
    <EXPORT ORDINAL="3012" NAME="??_7ActionManager@cocos2d@@6B@" PURGE="-1" COMMENT="" />
    <EXPORT ORDINAL="3013" NAME="??_7ActionManagerEx@cocostudio@@6B@" PURGE="-1" COMMENT="" />
    <EXPORT ORDINAL="3014" NAME="??_7ActionMoveFrame@cocostudio@@6B@" PURGE="-1" COMMENT="" />
    <EXPORT ORDINAL="3015" NAME="??_7ActionNode@cocostudio@@6B@" PURGE="-1" COMMENT="" />
    <EXPORT ORDINAL="3016" NAME="??_7ActionObject@cocostudio@@6B@" PURGE="-1" COMMENT="" />
    <EXPORT ORDINAL="3017" NAME="??_7ActionRotationFrame@cocostudio@@6B@" PURGE="-1" COMMENT="" />
    <EXPORT ORDINAL="3018" NAME="??_7ActionScaleFrame@cocostudio@@6B@" PURGE="-1" COMMENT="" />
    <EXPORT ORDINAL="3019" NAME="??_7ActionTimeline@timeline@cocostudio@@6B@" PURGE="-1" COMMENT="" />
    <EXPORT ORDINAL="3020" NAME="??_7ActionTimeline@timeline@cocostudio@@6BClonable@cocos2d@@@" PURGE="-1" COMMENT="" />
    <EXPORT ORDINAL="3021" NAME="??_7ActionTimeline@timeline@cocostudio@@6BRef@cocos2d@@@" PURGE="-1" COMMENT="" />
    <EXPORT ORDINAL="3022" NAME="??_7ActionTimelineData@timeline@cocostudio@@6B@" PURGE="-1" COMMENT="" />
    <EXPORT ORDINAL="3023" NAME="??_7ActionTimelineNode@timeline@cocostudio@@6B@" PURGE="-1" COMMENT="" />
    <EXPORT ORDINAL="3024" NAME="??_7ActionTintFrame@cocostudio@@6B@" PURGE="-1" COMMENT="" />
    <EXPORT ORDINAL="3025" NAME="??_7ActionTween@cocos2d@@6BClonable@1@@" PURGE="-1" COMMENT="" />
    <EXPORT ORDINAL="3026" NAME="??_7ActionTween@cocos2d@@6BRef@1@@" PURGE="-1" COMMENT="" />
    <EXPORT ORDINAL="3027" NAME="??_7ActionTweenDelegate@cocos2d@@6B@" PURGE="-1" COMMENT="" />
    <EXPORT ORDINAL="3028" NAME="??_7AlphaFrame@timeline@cocostudio@@6B@" PURGE="-1" COMMENT="" />
    <EXPORT ORDINAL="3029" NAME="??_7AmbientLight@cocos2d@@6B@" PURGE="-1" COMMENT="" />
    <EXPORT ORDINAL="3030" NAME="??_7AnchorPointFrame@timeline@cocostudio@@6B@" PURGE="-1" COMMENT="" />
    <EXPORT ORDINAL="3031" NAME="??_7Animate3D@cocos2d@@6BClonable@1@@" PURGE="-1" COMMENT="" />
    <EXPORT ORDINAL="3032" NAME="??_7Animate3D@cocos2d@@6BRef@1@@" PURGE="-1" COMMENT="" />
    <EXPORT ORDINAL="3033" NAME="??_7Animate@cocos2d@@6BClonable@1@@" PURGE="-1" COMMENT="" />
    <EXPORT ORDINAL="3034" NAME="??_7Animate@cocos2d@@6BRef@1@@" PURGE="-1" COMMENT="" />
    <EXPORT ORDINAL="3035" NAME="??_7Animation3D@cocos2d@@6B@" PURGE="-1" COMMENT="" />
    <EXPORT ORDINAL="3036" NAME="??_7Animation@cocos2d@@6BClonable@1@@" PURGE="-1" COMMENT="" />
    <EXPORT ORDINAL="3037" NAME="??_7Animation@cocos2d@@6BRef@1@@" PURGE="-1" COMMENT="" />
    <EXPORT ORDINAL="3038" NAME="??_7AnimationCache@cocos2d@@6B@" PURGE="-1" COMMENT="" />
    <EXPORT ORDINAL="3039" NAME="??_7AnimationData@cocostudio@@6B@" PURGE="-1" COMMENT="" />
    <EXPORT ORDINAL="3040" NAME="??_7AnimationFrame@cocos2d@@6BClonable@1@@" PURGE="-1" COMMENT="" />
    <EXPORT ORDINAL="3041" NAME="??_7AnimationFrame@cocos2d@@6BRef@1@@" PURGE="-1" COMMENT="" />
    <EXPORT ORDINAL="3042" NAME="??_7Application@cocos2d@@6B@" PURGE="-1" COMMENT="" />
    <EXPORT ORDINAL="3043" NAME="??_7ApplicationProtocol@cocos2d@@6B@" PURGE="-1" COMMENT="" />
    <EXPORT ORDINAL="3044" NAME="??_7Armature@cocostudio@@6BBlendProtocol@cocos2d@@@" PURGE="-1" COMMENT="" />
    <EXPORT ORDINAL="3045" NAME="??_7Armature@cocostudio@@6BNode@cocos2d@@@" PURGE="-1" COMMENT="" />
    <EXPORT ORDINAL="3046" NAME="??_7ArmatureAnimation@cocostudio@@6B@" PURGE="-1" COMMENT="" />
    <EXPORT ORDINAL="3047" NAME="??_7ArmatureData@cocostudio@@6B@" PURGE="-1" COMMENT="" />
    <EXPORT ORDINAL="3048" NAME="??_7ArmatureDataManager@cocostudio@@6B@" PURGE="-1" COMMENT="" />
    <EXPORT ORDINAL="3049" NAME="??_7ArmatureDisplayData@cocostudio@@6B@" PURGE="-1" COMMENT="" />
    <EXPORT ORDINAL="3050" NAME="??_7ArmatureMovementDispatcher@cocostudio@@6B@" PURGE="-1" COMMENT="" />
    <EXPORT ORDINAL="3051" NAME="??_7AssetsManager@extension@cocos2d@@6B@" PURGE="-1" COMMENT="" />
    <EXPORT ORDINAL="3052" NAME="??_7AssetsManagerEx@extension@cocos2d@@6B@" PURGE="-1" COMMENT="" />
    <EXPORT ORDINAL="3053" NAME="??_7AtlasNode@cocos2d@@6BNode@1@@" PURGE="-1" COMMENT="" />
    <EXPORT ORDINAL="3054" NAME="??_7AtlasNode@cocos2d@@6BTextureProtocol@1@@" PURGE="-1" COMMENT="" />
    <EXPORT ORDINAL="3055" NAME="??_7AttachNode@cocos2d@@6B@" PURGE="-1" COMMENT="" />
    <EXPORT ORDINAL="3056" NAME="??_7AudioEngineImpl@experimental@cocos2d@@6B@" PURGE="-1" COMMENT="" />
    <EXPORT ORDINAL="3057" NAME="??_7AutoBindingResolver@GLProgramState@cocos2d@@6B@" PURGE="-1" COMMENT="" />
    <EXPORT ORDINAL="3058" NAME="??_7BMFontConfiguration@cocos2d@@6B@" PURGE="-1" COMMENT="" />
    <EXPORT ORDINAL="3059" NAME="??_7BaseData@cocostudio@@6B@" PURGE="-1" COMMENT="" />
    <EXPORT ORDINAL="3060" NAME="??_7BaseLight@cocos2d@@6B@" PURGE="-1" COMMENT="" />
    <EXPORT ORDINAL="3061" NAME="??_7BaseTriggerAction@cocostudio@@6B@" PURGE="-1" COMMENT="" />
    <EXPORT ORDINAL="3062" NAME="??_7BaseTriggerCondition@cocostudio@@6B@" PURGE="-1" COMMENT="" />
    <EXPORT ORDINAL="3063" NAME="??_7BatchCommand@cocos2d@@6B@" PURGE="-1" COMMENT="" />
    <EXPORT ORDINAL="3064" NAME="??_7BatchNode@cocostudio@@6B@" PURGE="-1" COMMENT="" />
    <EXPORT ORDINAL="3065" NAME="??_7BezierBy@cocos2d@@6BClonable@1@@" PURGE="-1" COMMENT="" />
    <EXPORT ORDINAL="3066" NAME="??_7BezierBy@cocos2d@@6BRef@1@@" PURGE="-1" COMMENT="" />
    <EXPORT ORDINAL="3067" NAME="??_7BezierTo@cocos2d@@6BClonable@1@@" PURGE="-1" COMMENT="" />
    <EXPORT ORDINAL="3068" NAME="??_7BezierTo@cocos2d@@6BRef@1@@" PURGE="-1" COMMENT="" />
    <EXPORT ORDINAL="3069" NAME="??_7BillBoard@cocos2d@@6BNode@1@@" PURGE="-1" COMMENT="" />
    <EXPORT ORDINAL="3070" NAME="??_7BillBoard@cocos2d@@6BTextureProtocol@1@@" PURGE="-1" COMMENT="" />
    <EXPORT ORDINAL="3071" NAME="??_7BinLocalizationManager@cocostudio@@6B@" PURGE="-1" COMMENT="" />
    <EXPORT ORDINAL="3072" NAME="??_7BlendFuncFrame@timeline@cocostudio@@6B@" PURGE="-1" COMMENT="" />
    <EXPORT ORDINAL="3073" NAME="??_7BlendProtocol@cocos2d@@6B@" PURGE="-1" COMMENT="" />
    <EXPORT ORDINAL="3074" NAME="??_7Blink@cocos2d@@6BClonable@1@@" PURGE="-1" COMMENT="" />
    <EXPORT ORDINAL="3075" NAME="??_7Blink@cocos2d@@6BRef@1@@" PURGE="-1" COMMENT="" />
    <EXPORT ORDINAL="3076" NAME="??_7Bone3D@cocos2d@@6B@" PURGE="-1" COMMENT="" />
    <EXPORT ORDINAL="3077" NAME="??_7Bone@cocostudio@@6B@" PURGE="-1" COMMENT="" />
    <EXPORT ORDINAL="3078" NAME="??_7BoneData@cocostudio@@6B@" PURGE="-1" COMMENT="" />
    <EXPORT ORDINAL="3079" NAME="??_7BoneNode@timeline@cocostudio@@6BBlendProtocol@cocos2d@@@" PURGE="-1" COMMENT="" />
    <EXPORT ORDINAL="3080" NAME="??_7BoneNode@timeline@cocostudio@@6BNode@cocos2d@@@" PURGE="-1" COMMENT="" />
    <EXPORT ORDINAL="3081" NAME="??_7Bundle3D@cocos2d@@6B@" PURGE="-1" COMMENT="" />
    <EXPORT ORDINAL="3082" NAME="??_7Button@ui@cocos2d@@6BLayoutParameterProtocol@12@@" PURGE="-1" COMMENT="" />
    <EXPORT ORDINAL="3083" NAME="??_7Button@ui@cocos2d@@6BProtectedNode@2@@" PURGE="-1" COMMENT="" />
    <EXPORT ORDINAL="3084" NAME="??_7ButtonReader@cocostudio@@6BNodeReaderProtocol@1@@" PURGE="-1" COMMENT="" />
    <EXPORT ORDINAL="3085" NAME="??_7ButtonReader@cocostudio@@6BRef@cocos2d@@@" PURGE="-1" COMMENT="" />
    <EXPORT ORDINAL="3086" NAME="??_7ButtonReader@cocostudio@@6BWidgetReaderProtocol@1@@" PURGE="-1" COMMENT="" />
    <EXPORT ORDINAL="3087" NAME="??_7CCBAnimationManager@cocosbuilder@@6B@" PURGE="-1" COMMENT="" />
    <EXPORT ORDINAL="3088" NAME="??_7CCBAnimationManagerDelegate@cocosbuilder@@6B@" PURGE="-1" COMMENT="" />
    <EXPORT ORDINAL="3089" NAME="??_7CCBEaseInstant@cocosbuilder@@6BClonable@cocos2d@@@" PURGE="-1" COMMENT="" />
    <EXPORT ORDINAL="3090" NAME="??_7CCBEaseInstant@cocosbuilder@@6BRef@cocos2d@@@" PURGE="-1" COMMENT="" />
    <EXPORT ORDINAL="3091" NAME="??_7CCBFileLoader@cocosbuilder@@6B@" PURGE="-1" COMMENT="" />
    <EXPORT ORDINAL="3092" NAME="??_7CCBKeyframe@cocosbuilder@@6B@" PURGE="-1" COMMENT="" />
    <EXPORT ORDINAL="3093" NAME="??_7CCBMemberVariableAssigner@cocosbuilder@@6B@" PURGE="-1" COMMENT="" />
    <EXPORT ORDINAL="3094" NAME="??_7CCBReader@cocosbuilder@@6B@" PURGE="-1" COMMENT="" />
    <EXPORT ORDINAL="3095" NAME="??_7CCBRotateTo@cocosbuilder@@6BClonable@cocos2d@@@" PURGE="-1" COMMENT="" />
    <EXPORT ORDINAL="3096" NAME="??_7CCBRotateTo@cocosbuilder@@6BRef@cocos2d@@@" PURGE="-1" COMMENT="" />
    <EXPORT ORDINAL="3097" NAME="??_7CCBRotateXTo@cocosbuilder@@6BClonable@cocos2d@@@" PURGE="-1" COMMENT="" />
    <EXPORT ORDINAL="3098" NAME="??_7CCBRotateXTo@cocosbuilder@@6BRef@cocos2d@@@" PURGE="-1" COMMENT="" />
    <EXPORT ORDINAL="3099" NAME="??_7CCBRotateYTo@cocosbuilder@@6BClonable@cocos2d@@@" PURGE="-1" COMMENT="" />
    <EXPORT ORDINAL="3100" NAME="??_7CCBRotateYTo@cocosbuilder@@6BRef@cocos2d@@@" PURGE="-1" COMMENT="" />
    <EXPORT ORDINAL="3101" NAME="??_7CCBScriptOwnerProtocol@cocosbuilder@@6B@" PURGE="-1" COMMENT="" />
    <EXPORT ORDINAL="3102" NAME="??_7CCBSelectorResolver@cocosbuilder@@6B@" PURGE="-1" COMMENT="" />
    <EXPORT ORDINAL="3103" NAME="??_7CCBSequence@cocosbuilder@@6B@" PURGE="-1" COMMENT="" />
    <EXPORT ORDINAL="3104" NAME="??_7CCBSequenceProperty@cocosbuilder@@6B@" PURGE="-1" COMMENT="" />
    <EXPORT ORDINAL="3105" NAME="??_7CCBSetSpriteFrame@cocosbuilder@@6BClonable@cocos2d@@@" PURGE="-1" COMMENT="" />
    <EXPORT ORDINAL="3106" NAME="??_7CCBSetSpriteFrame@cocosbuilder@@6BRef@cocos2d@@@" PURGE="-1" COMMENT="" />
    <EXPORT ORDINAL="3107" NAME="??_7CCBSoundEffect@cocosbuilder@@6BClonable@cocos2d@@@" PURGE="-1" COMMENT="" />
    <EXPORT ORDINAL="3108" NAME="??_7CCBSoundEffect@cocosbuilder@@6BRef@cocos2d@@@" PURGE="-1" COMMENT="" />
    <EXPORT ORDINAL="3109" NAME="??_7CCPUBoxEmitter@cocos2d@@6B@" PURGE="-1" COMMENT="" />
    <EXPORT ORDINAL="3110" NAME="??_7CallFunc@cocos2d@@6BClonable@1@@" PURGE="-1" COMMENT="" />
    <EXPORT ORDINAL="3111" NAME="??_7CallFunc@cocos2d@@6BRef@1@@" PURGE="-1" COMMENT="" />
    <EXPORT ORDINAL="3112" NAME="??_7CallFuncN@cocos2d@@6BClonable@1@@" PURGE="-1" COMMENT="" />
    <EXPORT ORDINAL="3113" NAME="??_7CallFuncN@cocos2d@@6BRef@1@@" PURGE="-1" COMMENT="" />
    <EXPORT ORDINAL="3114" NAME="??_7Camera@cocos2d@@6B@" PURGE="-1" COMMENT="" />
    <EXPORT ORDINAL="3115" NAME="??_7CameraBackgroundBrush@cocos2d@@6B@" PURGE="-1" COMMENT="" />
    <EXPORT ORDINAL="3116" NAME="??_7CameraBackgroundColorBrush@cocos2d@@6B@" PURGE="-1" COMMENT="" />
    <EXPORT ORDINAL="3117" NAME="??_7CameraBackgroundDepthBrush@cocos2d@@6B@" PURGE="-1" COMMENT="" />
    <EXPORT ORDINAL="3118" NAME="??_7CameraBackgroundSkyBoxBrush@cocos2d@@6B@" PURGE="-1" COMMENT="" />
    <EXPORT ORDINAL="3119" NAME="??_7CardinalSplineBy@cocos2d@@6BClonable@1@@" PURGE="-1" COMMENT="" />
    <EXPORT ORDINAL="3120" NAME="??_7CardinalSplineBy@cocos2d@@6BRef@1@@" PURGE="-1" COMMENT="" />
    <EXPORT ORDINAL="3121" NAME="??_7CardinalSplineTo@cocos2d@@6BClonable@1@@" PURGE="-1" COMMENT="" />
    <EXPORT ORDINAL="3122" NAME="??_7CardinalSplineTo@cocos2d@@6BRef@1@@" PURGE="-1" COMMENT="" />
    <EXPORT ORDINAL="3123" NAME="??_7CatmullRomBy@cocos2d@@6BClonable@1@@" PURGE="-1" COMMENT="" />
    <EXPORT ORDINAL="3124" NAME="??_7CatmullRomBy@cocos2d@@6BRef@1@@" PURGE="-1" COMMENT="" />
    <EXPORT ORDINAL="3125" NAME="??_7CatmullRomTo@cocos2d@@6BClonable@1@@" PURGE="-1" COMMENT="" />
    <EXPORT ORDINAL="3126" NAME="??_7CatmullRomTo@cocos2d@@6BRef@1@@" PURGE="-1" COMMENT="" />
    <EXPORT ORDINAL="3127" NAME="??_7CheckBox@ui@cocos2d@@6BLayoutParameterProtocol@12@@" PURGE="-1" COMMENT="" />
    <EXPORT ORDINAL="3128" NAME="??_7CheckBox@ui@cocos2d@@6BProtectedNode@2@@" PURGE="-1" COMMENT="" />
    <EXPORT ORDINAL="3129" NAME="??_7CheckBoxReader@cocostudio@@6BNodeReaderProtocol@1@@" PURGE="-1" COMMENT="" />
    <EXPORT ORDINAL="3130" NAME="??_7CheckBoxReader@cocostudio@@6BRef@cocos2d@@@" PURGE="-1" COMMENT="" />
    <EXPORT ORDINAL="3131" NAME="??_7CheckBoxReader@cocostudio@@6BWidgetReaderProtocol@1@@" PURGE="-1" COMMENT="" />
    <EXPORT ORDINAL="3132" NAME="??_7ClippingNode@cocos2d@@6B@" PURGE="-1" COMMENT="" />
    <EXPORT ORDINAL="3133" NAME="??_7ClippingRectangleNode@cocos2d@@6B@" PURGE="-1" COMMENT="" />
    <EXPORT ORDINAL="3134" NAME="??_7Clonable@cocos2d@@6B@" PURGE="-1" COMMENT="" />
    <EXPORT ORDINAL="3135" NAME="??_7ColliderBody@cocostudio@@6B@" PURGE="-1" COMMENT="" />
    <EXPORT ORDINAL="3136" NAME="??_7ColliderDetector@cocostudio@@6B@" PURGE="-1" COMMENT="" />
    <EXPORT ORDINAL="3137" NAME="??_7ColliderFilter@cocostudio@@6B@" PURGE="-1" COMMENT="" />
    <EXPORT ORDINAL="3138" NAME="??_7Color3bObject@extension@cocos2d@@6B@" PURGE="-1" COMMENT="" />
    <EXPORT ORDINAL="3139" NAME="??_7ColorFrame@timeline@cocostudio@@6B@" PURGE="-1" COMMENT="" />
    <EXPORT ORDINAL="3140" NAME="??_7ComAttribute@cocostudio@@6B@" PURGE="-1" COMMENT="" />
    <EXPORT ORDINAL="3141" NAME="??_7ComAudio@cocostudio@@6BComponent@cocos2d@@@" PURGE="-1" COMMENT="" />
    <EXPORT ORDINAL="3142" NAME="??_7ComAudio@cocostudio@@6BPlayableProtocol@cocos2d@@@" PURGE="-1" COMMENT="" />
    <EXPORT ORDINAL="3143" NAME="??_7ComAudioReader@cocostudio@@6BNodeReaderProtocol@1@@" PURGE="-1" COMMENT="" />
    <EXPORT ORDINAL="3144" NAME="??_7ComAudioReader@cocostudio@@6BRef@cocos2d@@@" PURGE="-1" COMMENT="" />
    <EXPORT ORDINAL="3145" NAME="??_7ComController@cocostudio@@6BComponent@cocos2d@@@" PURGE="-1" COMMENT="" />
    <EXPORT ORDINAL="3146" NAME="??_7ComController@cocostudio@@6BInputDelegate@1@@" PURGE="-1" COMMENT="" />
    <EXPORT ORDINAL="3147" NAME="??_7ComExtensionData@cocostudio@@6B@" PURGE="-1" COMMENT="" />
    <EXPORT ORDINAL="3148" NAME="??_7ComRender@cocostudio@@6B@" PURGE="-1" COMMENT="" />
    <EXPORT ORDINAL="3149" NAME="??_7Component@cocos2d@@6B@" PURGE="-1" COMMENT="" />
    <EXPORT ORDINAL="3150" NAME="??_7Configuration@cocos2d@@6B@" PURGE="-1" COMMENT="" />
    <EXPORT ORDINAL="3151" NAME="??_7Console@cocos2d@@6B@" PURGE="-1" COMMENT="" />
    <EXPORT ORDINAL="3152" NAME="??_7ContourData@cocostudio@@6B@" PURGE="-1" COMMENT="" />
    <EXPORT ORDINAL="3153" NAME="??_7Control@extension@cocos2d@@6B@" PURGE="-1" COMMENT="" />
    <EXPORT ORDINAL="3154" NAME="??_7ControlButton@extension@cocos2d@@6B@" PURGE="-1" COMMENT="" />
    <EXPORT ORDINAL="3155" NAME="??_7ControlButtonLoader@cocosbuilder@@6B@" PURGE="-1" COMMENT="" />
    <EXPORT ORDINAL="3156" NAME="??_7ControlColourPicker@extension@cocos2d@@6B@" PURGE="-1" COMMENT="" />
    <EXPORT ORDINAL="3157" NAME="??_7ControlHuePicker@extension@cocos2d@@6B@" PURGE="-1" COMMENT="" />
    <EXPORT ORDINAL="3158" NAME="??_7ControlLoader@cocosbuilder@@6B@" PURGE="-1" COMMENT="" />
    <EXPORT ORDINAL="3159" NAME="??_7ControlPotentiometer@extension@cocos2d@@6B@" PURGE="-1" COMMENT="" />
    <EXPORT ORDINAL="3160" NAME="??_7ControlSaturationBrightnessPicker@extension@cocos2d@@6B@" PURGE="-1" COMMENT="" />
    <EXPORT ORDINAL="3161" NAME="??_7ControlSlider@extension@cocos2d@@6B@" PURGE="-1" COMMENT="" />
    <EXPORT ORDINAL="3162" NAME="??_7ControlStepper@extension@cocos2d@@6B@" PURGE="-1" COMMENT="" />
    <EXPORT ORDINAL="3163" NAME="??_7ControlSwitch@extension@cocos2d@@6B@" PURGE="-1" COMMENT="" />
    <EXPORT ORDINAL="3164" NAME="??_7Controller@cocos2d@@6B@" PURGE="-1" COMMENT="" />
    <EXPORT ORDINAL="3165" NAME="??_7CustomCommand@cocos2d@@6B@" PURGE="-1" COMMENT="" />
    <EXPORT ORDINAL="3166" NAME="??_7DataReaderHelper@cocostudio@@6B@" PURGE="-1" COMMENT="" />
    <EXPORT ORDINAL="3167" NAME="??_7DataVisitor@cocos2d@@6B@" PURGE="-1" COMMENT="" />
    <EXPORT ORDINAL="3168" NAME="??_7DeccelAmplitude@cocos2d@@6BClonable@1@@" PURGE="-1" COMMENT="" />
    <EXPORT ORDINAL="3169" NAME="??_7DeccelAmplitude@cocos2d@@6BRef@1@@" PURGE="-1" COMMENT="" />
    <EXPORT ORDINAL="3170" NAME="??_7DecorativeDisplay@cocostudio@@6B@" PURGE="-1" COMMENT="" />
    <EXPORT ORDINAL="3171" NAME="??_7DelayTime@cocos2d@@6BClonable@1@@" PURGE="-1" COMMENT="" />
    <EXPORT ORDINAL="3172" NAME="??_7DelayTime@cocos2d@@6BRef@1@@" PURGE="-1" COMMENT="" />
    <EXPORT ORDINAL="3173" NAME="??_7DirectionLight@cocos2d@@6B@" PURGE="-1" COMMENT="" />
    <EXPORT ORDINAL="3174" NAME="??_7Director@cocos2d@@6B@" PURGE="-1" COMMENT="" />
    <EXPORT ORDINAL="3175" NAME="??_7DirectorDelegate@cocos2d@@6B@" PURGE="-1" COMMENT="" />
    <EXPORT ORDINAL="3176" NAME="??_7DisplayData@cocostudio@@6B@" PURGE="-1" COMMENT="" />
    <EXPORT ORDINAL="3177" NAME="??_7DisplayManager@cocostudio@@6B@" PURGE="-1" COMMENT="" />
    <EXPORT ORDINAL="3178" NAME="??_7DownloadTask@network@cocos2d@@6B@" PURGE="-1" COMMENT="" />
    <EXPORT ORDINAL="3179" NAME="??_7DrawNode@cocos2d@@6B@" PURGE="-1" COMMENT="" />
    <EXPORT ORDINAL="3180" NAME="??_7EaseBackIn@cocos2d@@6BClonable@1@@" PURGE="-1" COMMENT="" />
    <EXPORT ORDINAL="3181" NAME="??_7EaseBackIn@cocos2d@@6BRef@1@@" PURGE="-1" COMMENT="" />
    <EXPORT ORDINAL="3182" NAME="??_7EaseBackInOut@cocos2d@@6BClonable@1@@" PURGE="-1" COMMENT="" />
    <EXPORT ORDINAL="3183" NAME="??_7EaseBackInOut@cocos2d@@6BRef@1@@" PURGE="-1" COMMENT="" />
    <EXPORT ORDINAL="3184" NAME="??_7EaseBackOut@cocos2d@@6BClonable@1@@" PURGE="-1" COMMENT="" />
    <EXPORT ORDINAL="3185" NAME="??_7EaseBackOut@cocos2d@@6BRef@1@@" PURGE="-1" COMMENT="" />
    <EXPORT ORDINAL="3186" NAME="??_7EaseBezierAction@cocos2d@@6BClonable@1@@" PURGE="-1" COMMENT="" />
    <EXPORT ORDINAL="3187" NAME="??_7EaseBezierAction@cocos2d@@6BRef@1@@" PURGE="-1" COMMENT="" />
    <EXPORT ORDINAL="3188" NAME="??_7EaseBounce@cocos2d@@6BClonable@1@@" PURGE="-1" COMMENT="" />
    <EXPORT ORDINAL="3189" NAME="??_7EaseBounce@cocos2d@@6BRef@1@@" PURGE="-1" COMMENT="" />
    <EXPORT ORDINAL="3190" NAME="??_7EaseBounceIn@cocos2d@@6BClonable@1@@" PURGE="-1" COMMENT="" />
    <EXPORT ORDINAL="3191" NAME="??_7EaseBounceIn@cocos2d@@6BRef@1@@" PURGE="-1" COMMENT="" />
    <EXPORT ORDINAL="3192" NAME="??_7EaseBounceInOut@cocos2d@@6BClonable@1@@" PURGE="-1" COMMENT="" />
    <EXPORT ORDINAL="3193" NAME="??_7EaseBounceInOut@cocos2d@@6BRef@1@@" PURGE="-1" COMMENT="" />
    <EXPORT ORDINAL="3194" NAME="??_7EaseBounceOut@cocos2d@@6BClonable@1@@" PURGE="-1" COMMENT="" />
    <EXPORT ORDINAL="3195" NAME="??_7EaseBounceOut@cocos2d@@6BRef@1@@" PURGE="-1" COMMENT="" />
    <EXPORT ORDINAL="3196" NAME="??_7EaseCircleActionIn@cocos2d@@6BClonable@1@@" PURGE="-1" COMMENT="" />
    <EXPORT ORDINAL="3197" NAME="??_7EaseCircleActionIn@cocos2d@@6BRef@1@@" PURGE="-1" COMMENT="" />
    <EXPORT ORDINAL="3198" NAME="??_7EaseCircleActionInOut@cocos2d@@6BClonable@1@@" PURGE="-1" COMMENT="" />
    <EXPORT ORDINAL="3199" NAME="??_7EaseCircleActionInOut@cocos2d@@6BRef@1@@" PURGE="-1" COMMENT="" />
    <EXPORT ORDINAL="3200" NAME="??_7EaseCircleActionOut@cocos2d@@6BClonable@1@@" PURGE="-1" COMMENT="" />
    <EXPORT ORDINAL="3201" NAME="??_7EaseCircleActionOut@cocos2d@@6BRef@1@@" PURGE="-1" COMMENT="" />
    <EXPORT ORDINAL="3202" NAME="??_7EaseCubicActionIn@cocos2d@@6BClonable@1@@" PURGE="-1" COMMENT="" />
    <EXPORT ORDINAL="3203" NAME="??_7EaseCubicActionIn@cocos2d@@6BRef@1@@" PURGE="-1" COMMENT="" />
    <EXPORT ORDINAL="3204" NAME="??_7EaseCubicActionInOut@cocos2d@@6BClonable@1@@" PURGE="-1" COMMENT="" />
    <EXPORT ORDINAL="3205" NAME="??_7EaseCubicActionInOut@cocos2d@@6BRef@1@@" PURGE="-1" COMMENT="" />
    <EXPORT ORDINAL="3206" NAME="??_7EaseCubicActionOut@cocos2d@@6BClonable@1@@" PURGE="-1" COMMENT="" />
    <EXPORT ORDINAL="3207" NAME="??_7EaseCubicActionOut@cocos2d@@6BRef@1@@" PURGE="-1" COMMENT="" />
    <EXPORT ORDINAL="3208" NAME="??_7EaseElastic@cocos2d@@6BClonable@1@@" PURGE="-1" COMMENT="" />
    <EXPORT ORDINAL="3209" NAME="??_7EaseElastic@cocos2d@@6BRef@1@@" PURGE="-1" COMMENT="" />
    <EXPORT ORDINAL="3210" NAME="??_7EaseElasticIn@cocos2d@@6BClonable@1@@" PURGE="-1" COMMENT="" />
    <EXPORT ORDINAL="3211" NAME="??_7EaseElasticIn@cocos2d@@6BRef@1@@" PURGE="-1" COMMENT="" />
    <EXPORT ORDINAL="3212" NAME="??_7EaseElasticInOut@cocos2d@@6BClonable@1@@" PURGE="-1" COMMENT="" />
    <EXPORT ORDINAL="3213" NAME="??_7EaseElasticInOut@cocos2d@@6BRef@1@@" PURGE="-1" COMMENT="" />
    <EXPORT ORDINAL="3214" NAME="??_7EaseElasticOut@cocos2d@@6BClonable@1@@" PURGE="-1" COMMENT="" />
    <EXPORT ORDINAL="3215" NAME="??_7EaseElasticOut@cocos2d@@6BRef@1@@" PURGE="-1" COMMENT="" />
    <EXPORT ORDINAL="3216" NAME="??_7EaseExponentialIn@cocos2d@@6BClonable@1@@" PURGE="-1" COMMENT="" />
    <EXPORT ORDINAL="3217" NAME="??_7EaseExponentialIn@cocos2d@@6BRef@1@@" PURGE="-1" COMMENT="" />
    <EXPORT ORDINAL="3218" NAME="??_7EaseExponentialInOut@cocos2d@@6BClonable@1@@" PURGE="-1" COMMENT="" />
    <EXPORT ORDINAL="3219" NAME="??_7EaseExponentialInOut@cocos2d@@6BRef@1@@" PURGE="-1" COMMENT="" />
    <EXPORT ORDINAL="3220" NAME="??_7EaseExponentialOut@cocos2d@@6BClonable@1@@" PURGE="-1" COMMENT="" />
    <EXPORT ORDINAL="3221" NAME="??_7EaseExponentialOut@cocos2d@@6BRef@1@@" PURGE="-1" COMMENT="" />
    <EXPORT ORDINAL="3222" NAME="??_7EaseIn@cocos2d@@6BClonable@1@@" PURGE="-1" COMMENT="" />
    <EXPORT ORDINAL="3223" NAME="??_7EaseIn@cocos2d@@6BRef@1@@" PURGE="-1" COMMENT="" />
    <EXPORT ORDINAL="3224" NAME="??_7EaseInOut@cocos2d@@6BClonable@1@@" PURGE="-1" COMMENT="" />
    <EXPORT ORDINAL="3225" NAME="??_7EaseInOut@cocos2d@@6BRef@1@@" PURGE="-1" COMMENT="" />
    <EXPORT ORDINAL="3226" NAME="??_7EaseOut@cocos2d@@6BClonable@1@@" PURGE="-1" COMMENT="" />
    <EXPORT ORDINAL="3227" NAME="??_7EaseOut@cocos2d@@6BRef@1@@" PURGE="-1" COMMENT="" />
    <EXPORT ORDINAL="3228" NAME="??_7EaseQuadraticActionIn@cocos2d@@6BClonable@1@@" PURGE="-1" COMMENT="" />
    <EXPORT ORDINAL="3229" NAME="??_7EaseQuadraticActionIn@cocos2d@@6BRef@1@@" PURGE="-1" COMMENT="" />
    <EXPORT ORDINAL="3230" NAME="??_7EaseQuadraticActionInOut@cocos2d@@6BClonable@1@@" PURGE="-1" COMMENT="" />
    <EXPORT ORDINAL="3231" NAME="??_7EaseQuadraticActionInOut@cocos2d@@6BRef@1@@" PURGE="-1" COMMENT="" />
    <EXPORT ORDINAL="3232" NAME="??_7EaseQuadraticActionOut@cocos2d@@6BClonable@1@@" PURGE="-1" COMMENT="" />
    <EXPORT ORDINAL="3233" NAME="??_7EaseQuadraticActionOut@cocos2d@@6BRef@1@@" PURGE="-1" COMMENT="" />
    <EXPORT ORDINAL="3234" NAME="??_7EaseQuarticActionIn@cocos2d@@6BClonable@1@@" PURGE="-1" COMMENT="" />
    <EXPORT ORDINAL="3235" NAME="??_7EaseQuarticActionIn@cocos2d@@6BRef@1@@" PURGE="-1" COMMENT="" />
    <EXPORT ORDINAL="3236" NAME="??_7EaseQuarticActionInOut@cocos2d@@6BClonable@1@@" PURGE="-1" COMMENT="" />
    <EXPORT ORDINAL="3237" NAME="??_7EaseQuarticActionInOut@cocos2d@@6BRef@1@@" PURGE="-1" COMMENT="" />
    <EXPORT ORDINAL="3238" NAME="??_7EaseQuarticActionOut@cocos2d@@6BClonable@1@@" PURGE="-1" COMMENT="" />
    <EXPORT ORDINAL="3239" NAME="??_7EaseQuarticActionOut@cocos2d@@6BRef@1@@" PURGE="-1" COMMENT="" />
    <EXPORT ORDINAL="3240" NAME="??_7EaseQuinticActionIn@cocos2d@@6BClonable@1@@" PURGE="-1" COMMENT="" />
    <EXPORT ORDINAL="3241" NAME="??_7EaseQuinticActionIn@cocos2d@@6BRef@1@@" PURGE="-1" COMMENT="" />
    <EXPORT ORDINAL="3242" NAME="??_7EaseQuinticActionInOut@cocos2d@@6BClonable@1@@" PURGE="-1" COMMENT="" />
    <EXPORT ORDINAL="3243" NAME="??_7EaseQuinticActionInOut@cocos2d@@6BRef@1@@" PURGE="-1" COMMENT="" />
    <EXPORT ORDINAL="3244" NAME="??_7EaseQuinticActionOut@cocos2d@@6BClonable@1@@" PURGE="-1" COMMENT="" />
    <EXPORT ORDINAL="3245" NAME="??_7EaseQuinticActionOut@cocos2d@@6BRef@1@@" PURGE="-1" COMMENT="" />
    <EXPORT ORDINAL="3246" NAME="??_7EaseRateAction@cocos2d@@6BClonable@1@@" PURGE="-1" COMMENT="" />
    <EXPORT ORDINAL="3247" NAME="??_7EaseRateAction@cocos2d@@6BRef@1@@" PURGE="-1" COMMENT="" />
    <EXPORT ORDINAL="3248" NAME="??_7EaseSineIn@cocos2d@@6BClonable@1@@" PURGE="-1" COMMENT="" />
    <EXPORT ORDINAL="3249" NAME="??_7EaseSineIn@cocos2d@@6BRef@1@@" PURGE="-1" COMMENT="" />
    <EXPORT ORDINAL="3250" NAME="??_7EaseSineInOut@cocos2d@@6BClonable@1@@" PURGE="-1" COMMENT="" />
    <EXPORT ORDINAL="3251" NAME="??_7EaseSineInOut@cocos2d@@6BRef@1@@" PURGE="-1" COMMENT="" />
    <EXPORT ORDINAL="3252" NAME="??_7EaseSineOut@cocos2d@@6BClonable@1@@" PURGE="-1" COMMENT="" />
    <EXPORT ORDINAL="3253" NAME="??_7EaseSineOut@cocos2d@@6BRef@1@@" PURGE="-1" COMMENT="" />
    <EXPORT ORDINAL="3254" NAME="??_7EditBox@ui@cocos2d@@6B@" PURGE="-1" COMMENT="" />
    <EXPORT ORDINAL="3255" NAME="??_7EditBox@ui@cocos2d@@6BLayoutParameterProtocol@12@@" PURGE="-1" COMMENT="" />
    <EXPORT ORDINAL="3256" NAME="??_7EditBox@ui@cocos2d@@6BProtectedNode@2@@" PURGE="-1" COMMENT="" />
    <EXPORT ORDINAL="3257" NAME="??_7EditBoxDelegate@ui@cocos2d@@6B@" PURGE="-1" COMMENT="" />
    <EXPORT ORDINAL="3258" NAME="??_7EditBoxImpl@ui@cocos2d@@6B@" PURGE="-1" COMMENT="" />
    <EXPORT ORDINAL="3259" NAME="??_7EditBoxImplWin@ui@cocos2d@@6B@" PURGE="-1" COMMENT="" />
    <EXPORT ORDINAL="3260" NAME="??_7Event@cocos2d@@6B@" PURGE="-1" COMMENT="" />
    <EXPORT ORDINAL="3261" NAME="??_7EventAcceleration@cocos2d@@6B@" PURGE="-1" COMMENT="" />
    <EXPORT ORDINAL="3262" NAME="??_7EventAssetsManagerEx@extension@cocos2d@@6B@" PURGE="-1" COMMENT="" />
    <EXPORT ORDINAL="3263" NAME="??_7EventCustom@cocos2d@@6B@" PURGE="-1" COMMENT="" />
    <EXPORT ORDINAL="3264" NAME="??_7EventDispatcher@cocos2d@@6B@" PURGE="-1" COMMENT="" />
    <EXPORT ORDINAL="3265" NAME="??_7EventFocus@cocos2d@@6B@" PURGE="-1" COMMENT="" />
    <EXPORT ORDINAL="3266" NAME="??_7EventFrame@timeline@cocostudio@@6B@" PURGE="-1" COMMENT="" />
    <EXPORT ORDINAL="3267" NAME="??_7EventKeyboard@cocos2d@@6B@" PURGE="-1" COMMENT="" />
    <EXPORT ORDINAL="3268" NAME="??_7EventListener@cocos2d@@6B@" PURGE="-1" COMMENT="" />
    <EXPORT ORDINAL="3269" NAME="??_7EventListenerAcceleration@cocos2d@@6B@" PURGE="-1" COMMENT="" />
    <EXPORT ORDINAL="3270" NAME="??_7EventListenerAssetsManagerEx@extension@cocos2d@@6B@" PURGE="-1" COMMENT="" />
    <EXPORT ORDINAL="3271" NAME="??_7EventListenerController@cocos2d@@6B@" PURGE="-1" COMMENT="" />
    <EXPORT ORDINAL="3272" NAME="??_7EventListenerCustom@cocos2d@@6B@" PURGE="-1" COMMENT="" />
    <EXPORT ORDINAL="3273" NAME="??_7EventListenerFocus@cocos2d@@6B@" PURGE="-1" COMMENT="" />
    <EXPORT ORDINAL="3274" NAME="??_7EventListenerKeyboard@cocos2d@@6B@" PURGE="-1" COMMENT="" />
    <EXPORT ORDINAL="3275" NAME="??_7EventListenerMouse@cocos2d@@6B@" PURGE="-1" COMMENT="" />
    <EXPORT ORDINAL="3276" NAME="??_7EventListenerPhysicsContact@cocos2d@@6B@" PURGE="-1" COMMENT="" />
    <EXPORT ORDINAL="3277" NAME="??_7EventListenerPhysicsContactWithBodies@cocos2d@@6B@" PURGE="-1" COMMENT="" />
    <EXPORT ORDINAL="3278" NAME="??_7EventListenerPhysicsContactWithGroup@cocos2d@@6B@" PURGE="-1" COMMENT="" />
    <EXPORT ORDINAL="3279" NAME="??_7EventListenerPhysicsContactWithShapes@cocos2d@@6B@" PURGE="-1" COMMENT="" />
    <EXPORT ORDINAL="3280" NAME="??_7EventListenerTouchAllAtOnce@cocos2d@@6B@" PURGE="-1" COMMENT="" />
    <EXPORT ORDINAL="3281" NAME="??_7EventListenerTouchOneByOne@cocos2d@@6B@" PURGE="-1" COMMENT="" />
    <EXPORT ORDINAL="3282" NAME="??_7EventMouse@cocos2d@@6B@" PURGE="-1" COMMENT="" />
    <EXPORT ORDINAL="3283" NAME="??_7EventTouch@cocos2d@@6B@" PURGE="-1" COMMENT="" />
    <EXPORT ORDINAL="3284" NAME="??_7FadeIn@cocos2d@@6BClonable@1@@" PURGE="-1" COMMENT="" />
    <EXPORT ORDINAL="3285" NAME="??_7FadeIn@cocos2d@@6BRef@1@@" PURGE="-1" COMMENT="" />
    <EXPORT ORDINAL="3286" NAME="??_7FadeOut@cocos2d@@6BClonable@1@@" PURGE="-1" COMMENT="" />
    <EXPORT ORDINAL="3287" NAME="??_7FadeOut@cocos2d@@6BRef@1@@" PURGE="-1" COMMENT="" />
    <EXPORT ORDINAL="3288" NAME="??_7FadeOutBLTiles@cocos2d@@6BClonable@1@@" PURGE="-1" COMMENT="" />
    <EXPORT ORDINAL="3289" NAME="??_7FadeOutBLTiles@cocos2d@@6BRef@1@@" PURGE="-1" COMMENT="" />
    <EXPORT ORDINAL="3290" NAME="??_7FadeOutDownTiles@cocos2d@@6BClonable@1@@" PURGE="-1" COMMENT="" />
    <EXPORT ORDINAL="3291" NAME="??_7FadeOutDownTiles@cocos2d@@6BRef@1@@" PURGE="-1" COMMENT="" />
    <EXPORT ORDINAL="3292" NAME="??_7FadeOutTRTiles@cocos2d@@6BClonable@1@@" PURGE="-1" COMMENT="" />
    <EXPORT ORDINAL="3293" NAME="??_7FadeOutTRTiles@cocos2d@@6BRef@1@@" PURGE="-1" COMMENT="" />
    <EXPORT ORDINAL="3294" NAME="??_7FadeOutUpTiles@cocos2d@@6BClonable@1@@" PURGE="-1" COMMENT="" />
    <EXPORT ORDINAL="3295" NAME="??_7FadeOutUpTiles@cocos2d@@6BRef@1@@" PURGE="-1" COMMENT="" />
    <EXPORT ORDINAL="3296" NAME="??_7FadeTo@cocos2d@@6BClonable@1@@" PURGE="-1" COMMENT="" />
    <EXPORT ORDINAL="3297" NAME="??_7FadeTo@cocos2d@@6BRef@1@@" PURGE="-1" COMMENT="" />
    <EXPORT ORDINAL="3298" NAME="??_7FileUtils@cocos2d@@6B@" PURGE="-1" COMMENT="" />
    <EXPORT ORDINAL="3299" NAME="??_7FileUtilsWin32@cocos2d@@6B@" PURGE="-1" COMMENT="" />
    <EXPORT ORDINAL="3300" NAME="??_7FiniteTimeAction@cocos2d@@6BClonable@1@@" PURGE="-1" COMMENT="" />
    <EXPORT ORDINAL="3301" NAME="??_7FiniteTimeAction@cocos2d@@6BRef@1@@" PURGE="-1" COMMENT="" />
    <EXPORT ORDINAL="3302" NAME="??_7FlipX3D@cocos2d@@6BClonable@1@@" PURGE="-1" COMMENT="" />
    <EXPORT ORDINAL="3303" NAME="??_7FlipX3D@cocos2d@@6BRef@1@@" PURGE="-1" COMMENT="" />
    <EXPORT ORDINAL="3304" NAME="??_7FlipX@cocos2d@@6BClonable@1@@" PURGE="-1" COMMENT="" />
    <EXPORT ORDINAL="3305" NAME="??_7FlipX@cocos2d@@6BRef@1@@" PURGE="-1" COMMENT="" />
    <EXPORT ORDINAL="3306" NAME="??_7FlipY3D@cocos2d@@6BClonable@1@@" PURGE="-1" COMMENT="" />
    <EXPORT ORDINAL="3307" NAME="??_7FlipY3D@cocos2d@@6BRef@1@@" PURGE="-1" COMMENT="" />
    <EXPORT ORDINAL="3308" NAME="??_7FlipY@cocos2d@@6BClonable@1@@" PURGE="-1" COMMENT="" />
    <EXPORT ORDINAL="3309" NAME="??_7FlipY@cocos2d@@6BRef@1@@" PURGE="-1" COMMENT="" />
    <EXPORT ORDINAL="3310" NAME="??_7Follow@cocos2d@@6BClonable@1@@" PURGE="-1" COMMENT="" />
    <EXPORT ORDINAL="3311" NAME="??_7Follow@cocos2d@@6BRef@1@@" PURGE="-1" COMMENT="" />
    <EXPORT ORDINAL="3312" NAME="??_7Font@cocos2d@@6B@" PURGE="-1" COMMENT="" />
    <EXPORT ORDINAL="3313" NAME="??_7FontAtlas@cocos2d@@6B@" PURGE="-1" COMMENT="" />
    <EXPORT ORDINAL="3314" NAME="??_7FontFNT@cocos2d@@6B@" PURGE="-1" COMMENT="" />
    <EXPORT ORDINAL="3315" NAME="??_7FontFreeType@cocos2d@@6B@" PURGE="-1" COMMENT="" />
    <EXPORT ORDINAL="3316" NAME="??_7Frame@timeline@cocostudio@@6B@" PURGE="-1" COMMENT="" />
    <EXPORT ORDINAL="3317" NAME="??_7FrameBuffer@experimental@cocos2d@@6B@" PURGE="-1" COMMENT="" />
    <EXPORT ORDINAL="3318" NAME="??_7FrameData@cocostudio@@6B@" PURGE="-1" COMMENT="" />
    <EXPORT ORDINAL="3319" NAME="??_7GLProgram@cocos2d@@6B@" PURGE="-1" COMMENT="" />
    <EXPORT ORDINAL="3320" NAME="??_7GLProgramCache@cocos2d@@6B@" PURGE="-1" COMMENT="" />
    <EXPORT ORDINAL="3321" NAME="??_7GLProgramState@cocos2d@@6B@" PURGE="-1" COMMENT="" />
    <EXPORT ORDINAL="3322" NAME="??_7GLView@cocos2d@@6B@" PURGE="-1" COMMENT="" />
    <EXPORT ORDINAL="3323" NAME="??_7GLViewImpl@cocos2d@@6B@" PURGE="-1" COMMENT="" />
    <EXPORT ORDINAL="3324" NAME="??_7GUIReader@cocostudio@@6B@" PURGE="-1" COMMENT="" />
    <EXPORT ORDINAL="3325" NAME="??_7GameMapReader@cocostudio@@6BNodeReaderProtocol@1@@" PURGE="-1" COMMENT="" />
    <EXPORT ORDINAL="3326" NAME="??_7GameMapReader@cocostudio@@6BRef@cocos2d@@@" PURGE="-1" COMMENT="" />
    <EXPORT ORDINAL="3327" NAME="??_7GameNode3DReader@cocostudio@@6BNodeReaderProtocol@1@@" PURGE="-1" COMMENT="" />
    <EXPORT ORDINAL="3328" NAME="??_7GameNode3DReader@cocostudio@@6BRef@cocos2d@@@" PURGE="-1" COMMENT="" />
    <EXPORT ORDINAL="3329" NAME="??_7Grid3D@cocos2d@@6B@" PURGE="-1" COMMENT="" />
    <EXPORT ORDINAL="3330" NAME="??_7Grid3DAction@cocos2d@@6BClonable@1@@" PURGE="-1" COMMENT="" />
    <EXPORT ORDINAL="3331" NAME="??_7Grid3DAction@cocos2d@@6BRef@1@@" PURGE="-1" COMMENT="" />
    <EXPORT ORDINAL="3332" NAME="??_7GridAction@cocos2d@@6BClonable@1@@" PURGE="-1" COMMENT="" />
    <EXPORT ORDINAL="3333" NAME="??_7GridAction@cocos2d@@6BRef@1@@" PURGE="-1" COMMENT="" />
    <EXPORT ORDINAL="3334" NAME="??_7GridBase@cocos2d@@6B@" PURGE="-1" COMMENT="" />
    <EXPORT ORDINAL="3335" NAME="??_7GroupCommand@cocos2d@@6B@" PURGE="-1" COMMENT="" />
    <EXPORT ORDINAL="3336" NAME="??_7HBox@ui@cocos2d@@6B@" PURGE="-1" COMMENT="" />
    <EXPORT ORDINAL="3337" NAME="??_7HBox@ui@cocos2d@@6BLayoutParameterProtocol@12@@" PURGE="-1" COMMENT="" />
    <EXPORT ORDINAL="3338" NAME="??_7HBox@ui@cocos2d@@6BProtectedNode@2@@" PURGE="-1" COMMENT="" />
    <EXPORT ORDINAL="3339" NAME="??_7Hide@cocos2d@@6BClonable@1@@" PURGE="-1" COMMENT="" />
    <EXPORT ORDINAL="3340" NAME="??_7Hide@cocos2d@@6BRef@1@@" PURGE="-1" COMMENT="" />
    <EXPORT ORDINAL="3341" NAME="??_7HttpClient@network@cocos2d@@6B@" PURGE="-1" COMMENT="" />
    <EXPORT ORDINAL="3342" NAME="??_7HttpRequest@network@cocos2d@@6B@" PURGE="-1" COMMENT="" />
    <EXPORT ORDINAL="3343" NAME="??_7HttpResponse@network@cocos2d@@6B@" PURGE="-1" COMMENT="" />
    <EXPORT ORDINAL="3344" NAME="??_7IDownloadTask@network@cocos2d@@6B@" PURGE="-1" COMMENT="" />
    <EXPORT ORDINAL="3345" NAME="??_7ILocalizationManager@cocostudio@@6B@" PURGE="-1" COMMENT="" />
    <EXPORT ORDINAL="3346" NAME="??_7IMEDelegate@cocos2d@@6B@" PURGE="-1" COMMENT="" />
    <EXPORT ORDINAL="3347" NAME="??_7Image@cocos2d@@6B@" PURGE="-1" COMMENT="" />
    <EXPORT ORDINAL="3348" NAME="??_7ImageView@ui@cocos2d@@6BLayoutParameterProtocol@12@@" PURGE="-1" COMMENT="" />
    <EXPORT ORDINAL="3349" NAME="??_7ImageView@ui@cocos2d@@6BProtectedNode@2@@" PURGE="-1" COMMENT="" />
    <EXPORT ORDINAL="3350" NAME="??_7ImageViewReader@cocostudio@@6BNodeReaderProtocol@1@@" PURGE="-1" COMMENT="" />
    <EXPORT ORDINAL="3351" NAME="??_7ImageViewReader@cocostudio@@6BRef@cocos2d@@@" PURGE="-1" COMMENT="" />
    <EXPORT ORDINAL="3352" NAME="??_7ImageViewReader@cocostudio@@6BWidgetReaderProtocol@1@@" PURGE="-1" COMMENT="" />
    <EXPORT ORDINAL="3353" NAME="??_7IndexBuffer@cocos2d@@6B@" PURGE="-1" COMMENT="" />
    <EXPORT ORDINAL="3354" NAME="??_7InnerActionFrame@timeline@cocostudio@@6B@" PURGE="-1" COMMENT="" />
    <EXPORT ORDINAL="3355" NAME="??_7InputDelegate@cocostudio@@6B@" PURGE="-1" COMMENT="" />
    <EXPORT ORDINAL="3356" NAME="??_7Invocation@extension@cocos2d@@6B@" PURGE="-1" COMMENT="" />
    <EXPORT ORDINAL="3357" NAME="??_7JsonLocalizationManager@cocostudio@@6B@" PURGE="-1" COMMENT="" />
    <EXPORT ORDINAL="3358" NAME="??_7JumpBy@cocos2d@@6BClonable@1@@" PURGE="-1" COMMENT="" />
    <EXPORT ORDINAL="3359" NAME="??_7JumpBy@cocos2d@@6BRef@1@@" PURGE="-1" COMMENT="" />
    <EXPORT ORDINAL="3360" NAME="??_7JumpTiles3D@cocos2d@@6BClonable@1@@" PURGE="-1" COMMENT="" />
    <EXPORT ORDINAL="3361" NAME="??_7JumpTiles3D@cocos2d@@6BRef@1@@" PURGE="-1" COMMENT="" />
    <EXPORT ORDINAL="3362" NAME="??_7JumpTo@cocos2d@@6BClonable@1@@" PURGE="-1" COMMENT="" />
    <EXPORT ORDINAL="3363" NAME="??_7JumpTo@cocos2d@@6BRef@1@@" PURGE="-1" COMMENT="" />
    <EXPORT ORDINAL="3364" NAME="??_7Label@cocos2d@@6BBlendProtocol@1@@" PURGE="-1" COMMENT="" />
    <EXPORT ORDINAL="3365" NAME="??_7Label@cocos2d@@6BLabelProtocol@1@@" PURGE="-1" COMMENT="" />
    <EXPORT ORDINAL="3366" NAME="??_7Label@cocos2d@@6BNode@1@@" PURGE="-1" COMMENT="" />
    <EXPORT ORDINAL="3367" NAME="??_7LabelAtlas@cocos2d@@6B@" PURGE="-1" COMMENT="" />
    <EXPORT ORDINAL="3368" NAME="??_7LabelAtlas@cocos2d@@6BNode@1@@" PURGE="-1" COMMENT="" />
    <EXPORT ORDINAL="3369" NAME="??_7LabelAtlas@cocos2d@@6BTextureProtocol@1@@" PURGE="-1" COMMENT="" />
    <EXPORT ORDINAL="3370" NAME="??_7LabelBMFont@cocos2d@@6BBlendProtocol@1@@" PURGE="-1" COMMENT="" />
    <EXPORT ORDINAL="3371" NAME="??_7LabelBMFont@cocos2d@@6BLabelProtocol@1@@" PURGE="-1" COMMENT="" />
    <EXPORT ORDINAL="3372" NAME="??_7LabelBMFont@cocos2d@@6BNode@1@@" PURGE="-1" COMMENT="" />
    <EXPORT ORDINAL="3373" NAME="??_7LabelBMFontLoader@cocosbuilder@@6B@" PURGE="-1" COMMENT="" />
    <EXPORT ORDINAL="3374" NAME="??_7LabelProtocol@cocos2d@@6B@" PURGE="-1" COMMENT="" />
    <EXPORT ORDINAL="3375" NAME="??_7LabelTTF@cocos2d@@6BBlendProtocol@1@@" PURGE="-1" COMMENT="" />
    <EXPORT ORDINAL="3376" NAME="??_7LabelTTF@cocos2d@@6BLabelProtocol@1@@" PURGE="-1" COMMENT="" />
    <EXPORT ORDINAL="3377" NAME="??_7LabelTTF@cocos2d@@6BNode@1@@" PURGE="-1" COMMENT="" />
    <EXPORT ORDINAL="3378" NAME="??_7LabelTTFLoader@cocosbuilder@@6B@" PURGE="-1" COMMENT="" />
    <EXPORT ORDINAL="3379" NAME="??_7Layer@cocos2d@@6B@" PURGE="-1" COMMENT="" />
    <EXPORT ORDINAL="3380" NAME="??_7LayerColor@cocos2d@@6BBlendProtocol@1@@" PURGE="-1" COMMENT="" />
    <EXPORT ORDINAL="3381" NAME="??_7LayerColor@cocos2d@@6BLayer@1@@" PURGE="-1" COMMENT="" />
    <EXPORT ORDINAL="3382" NAME="??_7LayerColorLoader@cocosbuilder@@6B@" PURGE="-1" COMMENT="" />
    <EXPORT ORDINAL="3383" NAME="??_7LayerGradient@cocos2d@@6BBlendProtocol@1@@" PURGE="-1" COMMENT="" />
    <EXPORT ORDINAL="3384" NAME="??_7LayerGradient@cocos2d@@6BLayer@1@@" PURGE="-1" COMMENT="" />
    <EXPORT ORDINAL="3385" NAME="??_7LayerGradientLoader@cocosbuilder@@6B@" PURGE="-1" COMMENT="" />
    <EXPORT ORDINAL="3386" NAME="??_7LayerLoader@cocosbuilder@@6B@" PURGE="-1" COMMENT="" />
    <EXPORT ORDINAL="3387" NAME="??_7LayerMultiplex@cocos2d@@6B@" PURGE="-1" COMMENT="" />
    <EXPORT ORDINAL="3388" NAME="??_7Layout@ui@cocos2d@@6B@" PURGE="-1" COMMENT="" />
    <EXPORT ORDINAL="3389" NAME="??_7Layout@ui@cocos2d@@6BLayoutParameterProtocol@12@@" PURGE="-1" COMMENT="" />
    <EXPORT ORDINAL="3390" NAME="??_7Layout@ui@cocos2d@@6BProtectedNode@2@@" PURGE="-1" COMMENT="" />
    <EXPORT ORDINAL="3391" NAME="??_7LayoutComponent@ui@cocos2d@@6B@" PURGE="-1" COMMENT="" />
    <EXPORT ORDINAL="3392" NAME="??_7LayoutManager@ui@cocos2d@@6B@" PURGE="-1" COMMENT="" />
    <EXPORT ORDINAL="3393" NAME="??_7LayoutParameter@ui@cocos2d@@6B@" PURGE="-1" COMMENT="" />
    <EXPORT ORDINAL="3394" NAME="??_7LayoutParameterProtocol@ui@cocos2d@@6B@" PURGE="-1" COMMENT="" />
    <EXPORT ORDINAL="3395" NAME="??_7LayoutProtocol@ui@cocos2d@@6B@" PURGE="-1" COMMENT="" />
    <EXPORT ORDINAL="3396" NAME="??_7LayoutReader@cocostudio@@6BNodeReaderProtocol@1@@" PURGE="-1" COMMENT="" />
    <EXPORT ORDINAL="3397" NAME="??_7LayoutReader@cocostudio@@6BRef@cocos2d@@@" PURGE="-1" COMMENT="" />
    <EXPORT ORDINAL="3398" NAME="??_7LayoutReader@cocostudio@@6BWidgetReaderProtocol@1@@" PURGE="-1" COMMENT="" />
    <EXPORT ORDINAL="3399" NAME="??_7Lens3D@cocos2d@@6BClonable@1@@" PURGE="-1" COMMENT="" />
    <EXPORT ORDINAL="3400" NAME="??_7Lens3D@cocos2d@@6BRef@1@@" PURGE="-1" COMMENT="" />
    <EXPORT ORDINAL="3401" NAME="??_7Light3DReader@cocostudio@@6BNodeReaderProtocol@1@@" PURGE="-1" COMMENT="" />
    <EXPORT ORDINAL="3402" NAME="??_7Light3DReader@cocostudio@@6BRef@cocos2d@@@" PURGE="-1" COMMENT="" />
    <EXPORT ORDINAL="3403" NAME="??_7LinearHorizontalLayoutManager@ui@cocos2d@@6B@" PURGE="-1" COMMENT="" />
    <EXPORT ORDINAL="3404" NAME="??_7LinearLayoutParameter@ui@cocos2d@@6B@" PURGE="-1" COMMENT="" />
    <EXPORT ORDINAL="3405" NAME="??_7LinearVerticalLayoutManager@ui@cocos2d@@6B@" PURGE="-1" COMMENT="" />
    <EXPORT ORDINAL="3406" NAME="??_7Liquid@cocos2d@@6BClonable@1@@" PURGE="-1" COMMENT="" />
    <EXPORT ORDINAL="3407" NAME="??_7Liquid@cocos2d@@6BRef@1@@" PURGE="-1" COMMENT="" />
    <EXPORT ORDINAL="3408" NAME="??_7ListView@ui@cocos2d@@6B@" PURGE="-1" COMMENT="" />
    <EXPORT ORDINAL="3409" NAME="??_7ListView@ui@cocos2d@@6BLayoutParameterProtocol@12@@" PURGE="-1" COMMENT="" />
    <EXPORT ORDINAL="3410" NAME="??_7ListView@ui@cocos2d@@6BProtectedNode@2@@" PURGE="-1" COMMENT="" />
    <EXPORT ORDINAL="3411" NAME="??_7ListViewReader@cocostudio@@6BNodeReaderProtocol@1@@" PURGE="-1" COMMENT="" />
    <EXPORT ORDINAL="3412" NAME="??_7ListViewReader@cocostudio@@6BRef@cocos2d@@@" PURGE="-1" COMMENT="" />
    <EXPORT ORDINAL="3413" NAME="??_7ListViewReader@cocostudio@@6BWidgetReaderProtocol@1@@" PURGE="-1" COMMENT="" />
    <EXPORT ORDINAL="3414" NAME="??_7LoadingBar@ui@cocos2d@@6BLayoutParameterProtocol@12@@" PURGE="-1" COMMENT="" />
    <EXPORT ORDINAL="3415" NAME="??_7LoadingBar@ui@cocos2d@@6BProtectedNode@2@@" PURGE="-1" COMMENT="" />
    <EXPORT ORDINAL="3416" NAME="??_7LoadingBarReader@cocostudio@@6BNodeReaderProtocol@1@@" PURGE="-1" COMMENT="" />
    <EXPORT ORDINAL="3417" NAME="??_7LoadingBarReader@cocostudio@@6BRef@cocos2d@@@" PURGE="-1" COMMENT="" />
    <EXPORT ORDINAL="3418" NAME="??_7LoadingBarReader@cocostudio@@6BWidgetReaderProtocol@1@@" PURGE="-1" COMMENT="" />
    <EXPORT ORDINAL="3419" NAME="??_7Manifest@extension@cocos2d@@6B@" PURGE="-1" COMMENT="" />
    <EXPORT ORDINAL="3420" NAME="??_7Material@cocos2d@@6B@" PURGE="-1" COMMENT="" />
    <EXPORT ORDINAL="3421" NAME="??_7MemPool@tinyxml2@@6B@" PURGE="-1" COMMENT="" />
    <EXPORT ORDINAL="3422" NAME="??_7Menu@cocos2d@@6B@" PURGE="-1" COMMENT="" />
    <EXPORT ORDINAL="3423" NAME="??_7MenuItem@cocos2d@@6B@" PURGE="-1" COMMENT="" />
    <EXPORT ORDINAL="3424" NAME="??_7MenuItemAtlasFont@cocos2d@@6B@" PURGE="-1" COMMENT="" />
    <EXPORT ORDINAL="3425" NAME="??_7MenuItemFont@cocos2d@@6B@" PURGE="-1" COMMENT="" />
    <EXPORT ORDINAL="3426" NAME="??_7MenuItemImage@cocos2d@@6B@" PURGE="-1" COMMENT="" />
    <EXPORT ORDINAL="3427" NAME="??_7MenuItemImageLoader@cocosbuilder@@6B@" PURGE="-1" COMMENT="" />
    <EXPORT ORDINAL="3428" NAME="??_7MenuItemLabel@cocos2d@@6B@" PURGE="-1" COMMENT="" />
    <EXPORT ORDINAL="3429" NAME="??_7MenuItemLoader@cocosbuilder@@6B@" PURGE="-1" COMMENT="" />
    <EXPORT ORDINAL="3430" NAME="??_7MenuItemSprite@cocos2d@@6B@" PURGE="-1" COMMENT="" />
    <EXPORT ORDINAL="3431" NAME="??_7MenuItemToggle@cocos2d@@6B@" PURGE="-1" COMMENT="" />
    <EXPORT ORDINAL="3432" NAME="??_7MenuLoader@cocosbuilder@@6B@" PURGE="-1" COMMENT="" />
    <EXPORT ORDINAL="3433" NAME="??_7Mesh@cocos2d@@6B@" PURGE="-1" COMMENT="" />
    <EXPORT ORDINAL="3434" NAME="??_7MeshCommand@cocos2d@@6B@" PURGE="-1" COMMENT="" />
    <EXPORT ORDINAL="3435" NAME="??_7MeshIndexData@cocos2d@@6B@" PURGE="-1" COMMENT="" />
    <EXPORT ORDINAL="3436" NAME="??_7MeshSkin@cocos2d@@6B@" PURGE="-1" COMMENT="" />
    <EXPORT ORDINAL="3437" NAME="??_7MeshVertexData@cocos2d@@6B@" PURGE="-1" COMMENT="" />
    <EXPORT ORDINAL="3438" NAME="??_7MotionStreak3D@cocos2d@@6BNode@1@@" PURGE="-1" COMMENT="" />
    <EXPORT ORDINAL="3439" NAME="??_7MotionStreak3D@cocos2d@@6BTextureProtocol@1@@" PURGE="-1" COMMENT="" />
    <EXPORT ORDINAL="3440" NAME="??_7MotionStreak@cocos2d@@6BNode@1@@" PURGE="-1" COMMENT="" />
    <EXPORT ORDINAL="3441" NAME="??_7MotionStreak@cocos2d@@6BTextureProtocol@1@@" PURGE="-1" COMMENT="" />
    <EXPORT ORDINAL="3442" NAME="??_7MoveBy@cocos2d@@6BClonable@1@@" PURGE="-1" COMMENT="" />
    <EXPORT ORDINAL="3443" NAME="??_7MoveBy@cocos2d@@6BRef@1@@" PURGE="-1" COMMENT="" />
    <EXPORT ORDINAL="3444" NAME="??_7MoveTo@cocos2d@@6BClonable@1@@" PURGE="-1" COMMENT="" />
    <EXPORT ORDINAL="3445" NAME="??_7MoveTo@cocos2d@@6BRef@1@@" PURGE="-1" COMMENT="" />
    <EXPORT ORDINAL="3446" NAME="??_7MovementBoneData@cocostudio@@6B@" PURGE="-1" COMMENT="" />
    <EXPORT ORDINAL="3447" NAME="??_7MovementData@cocostudio@@6B@" PURGE="-1" COMMENT="" />
    <EXPORT ORDINAL="3448" NAME="??_7NavMesh@cocos2d@@6B@" PURGE="-1" COMMENT="" />
    <EXPORT ORDINAL="3449" NAME="??_7NavMeshAgent@cocos2d@@6B@" PURGE="-1" COMMENT="" />
    <EXPORT ORDINAL="3450" NAME="??_7NavMeshObstacle@cocos2d@@6B@" PURGE="-1" COMMENT="" />
    <EXPORT ORDINAL="3451" NAME="??_7NinePatchImageParser@cocos2d@@6B@" PURGE="-1" COMMENT="" />
    <EXPORT ORDINAL="3452" NAME="??_7Node3DReader@cocostudio@@6BNodeReaderProtocol@1@@" PURGE="-1" COMMENT="" />
    <EXPORT ORDINAL="3453" NAME="??_7Node3DReader@cocostudio@@6BRef@cocos2d@@@" PURGE="-1" COMMENT="" />
    <EXPORT ORDINAL="3454" NAME="??_7Node@cocos2d@@6B@" PURGE="-1" COMMENT="" />
    <EXPORT ORDINAL="3455" NAME="??_7NodeGrid@cocos2d@@6B@" PURGE="-1" COMMENT="" />
    <EXPORT ORDINAL="3456" NAME="??_7NodeLoader@cocosbuilder@@6B@" PURGE="-1" COMMENT="" />
    <EXPORT ORDINAL="3457" NAME="??_7NodeLoaderLibrary@cocosbuilder@@6B@" PURGE="-1" COMMENT="" />
    <EXPORT ORDINAL="3458" NAME="??_7NodeLoaderListener@cocosbuilder@@6B@" PURGE="-1" COMMENT="" />
    <EXPORT ORDINAL="3459" NAME="??_7NodeReader@cocostudio@@6BNodeReaderProtocol@1@@" PURGE="-1" COMMENT="" />
    <EXPORT ORDINAL="3460" NAME="??_7NodeReader@cocostudio@@6BRef@cocos2d@@@" PURGE="-1" COMMENT="" />
    <EXPORT ORDINAL="3461" NAME="??_7NodeReaderProtocol@cocostudio@@6B@" PURGE="-1" COMMENT="" />
    <EXPORT ORDINAL="3462" NAME="??_7NotificationObserver@cocos2d@@6B@" PURGE="-1" COMMENT="" />
    <EXPORT ORDINAL="3463" NAME="??_7ObjectFactory@cocos2d@@6B@" PURGE="-1" COMMENT="" />
    <EXPORT ORDINAL="3464" NAME="??_7OrbitCamera@cocos2d@@6BClonable@1@@" PURGE="-1" COMMENT="" />
    <EXPORT ORDINAL="3465" NAME="??_7OrbitCamera@cocos2d@@6BRef@1@@" PURGE="-1" COMMENT="" />
    <EXPORT ORDINAL="3466" NAME="??_7PUAbstractNode@cocos2d@@6B@" PURGE="-1" COMMENT="" />
    <EXPORT ORDINAL="3467" NAME="??_7PUAffector@cocos2d@@6B@" PURGE="-1" COMMENT="" />
    <EXPORT ORDINAL="3468" NAME="??_7PUAlignAffector@cocos2d@@6B@" PURGE="-1" COMMENT="" />
    <EXPORT ORDINAL="3469" NAME="??_7PUAtomAbstractNode@cocos2d@@6B@" PURGE="-1" COMMENT="" />
    <EXPORT ORDINAL="3470" NAME="??_7PUBaseCollider@cocos2d@@6B@" PURGE="-1" COMMENT="" />
    <EXPORT ORDINAL="3471" NAME="??_7PUBaseForceAffector@cocos2d@@6B@" PURGE="-1" COMMENT="" />
    <EXPORT ORDINAL="3472" NAME="??_7PUBeamRender@cocos2d@@6BPUListener@1@@" PURGE="-1" COMMENT="" />
    <EXPORT ORDINAL="3473" NAME="??_7PUBeamRender@cocos2d@@6BPURender@1@@" PURGE="-1" COMMENT="" />
    <EXPORT ORDINAL="3474" NAME="??_7PUBehaviour@cocos2d@@6B@" PURGE="-1" COMMENT="" />
    <EXPORT ORDINAL="3475" NAME="??_7PUBoxCollider@cocos2d@@6B@" PURGE="-1" COMMENT="" />
    <EXPORT ORDINAL="3476" NAME="??_7PUCircleEmitter@cocos2d@@6B@" PURGE="-1" COMMENT="" />
    <EXPORT ORDINAL="3477" NAME="??_7PUCollisionAvoidanceAffector@cocos2d@@6B@" PURGE="-1" COMMENT="" />
    <EXPORT ORDINAL="3478" NAME="??_7PUColorAffector@cocos2d@@6B@" PURGE="-1" COMMENT="" />
    <EXPORT ORDINAL="3479" NAME="??_7PUDoAffectorEventHandler@cocos2d@@6B@" PURGE="-1" COMMENT="" />
    <EXPORT ORDINAL="3480" NAME="??_7PUDoEnableComponentEventHandler@cocos2d@@6B@" PURGE="-1" COMMENT="" />
    <EXPORT ORDINAL="3481" NAME="??_7PUDoExpireEventHandler@cocos2d@@6B@" PURGE="-1" COMMENT="" />
    <EXPORT ORDINAL="3482" NAME="??_7PUDoFreezeEventHandler@cocos2d@@6B@" PURGE="-1" COMMENT="" />
    <EXPORT ORDINAL="3483" NAME="??_7PUDoPlacementParticleEventHandler@cocos2d@@6BPUEventHandler@1@@" PURGE="-1" COMMENT="" />
    <EXPORT ORDINAL="3484" NAME="??_7PUDoPlacementParticleEventHandler@cocos2d@@6BPUListener@1@@" PURGE="-1" COMMENT="" />
    <EXPORT ORDINAL="3485" NAME="??_7PUDoScaleEventHandler@cocos2d@@6B@" PURGE="-1" COMMENT="" />
    <EXPORT ORDINAL="3486" NAME="??_7PUDoStopSystemEventHandler@cocos2d@@6B@" PURGE="-1" COMMENT="" />
    <EXPORT ORDINAL="3487" NAME="??_7PUDynamicAttribute@cocos2d@@6B@" PURGE="-1" COMMENT="" />
    <EXPORT ORDINAL="3488" NAME="??_7PUDynamicAttributeCurved@cocos2d@@6B@" PURGE="-1" COMMENT="" />
    <EXPORT ORDINAL="3489" NAME="??_7PUDynamicAttributeFixed@cocos2d@@6B@" PURGE="-1" COMMENT="" />
    <EXPORT ORDINAL="3490" NAME="??_7PUDynamicAttributeOscillate@cocos2d@@6B@" PURGE="-1" COMMENT="" />
    <EXPORT ORDINAL="3491" NAME="??_7PUDynamicAttributeRandom@cocos2d@@6B@" PURGE="-1" COMMENT="" />
    <EXPORT ORDINAL="3492" NAME="??_7PUEmitter@cocos2d@@6B@" PURGE="-1" COMMENT="" />
    <EXPORT ORDINAL="3493" NAME="??_7PUEventHandler@cocos2d@@6B@" PURGE="-1" COMMENT="" />
    <EXPORT ORDINAL="3494" NAME="??_7PUFlockCenteringAffector@cocos2d@@6B@" PURGE="-1" COMMENT="" />
    <EXPORT ORDINAL="3495" NAME="??_7PUForceFieldAffector@cocos2d@@6B@" PURGE="-1" COMMENT="" />
    <EXPORT ORDINAL="3496" NAME="??_7PUGeometryRotator@cocos2d@@6B@" PURGE="-1" COMMENT="" />
    <EXPORT ORDINAL="3497" NAME="??_7PUGravityAffector@cocos2d@@6B@" PURGE="-1" COMMENT="" />
    <EXPORT ORDINAL="3498" NAME="??_7PUJetAffector@cocos2d@@6B@" PURGE="-1" COMMENT="" />
    <EXPORT ORDINAL="3499" NAME="??_7PULineAffector@cocos2d@@6B@" PURGE="-1" COMMENT="" />
    <EXPORT ORDINAL="3500" NAME="??_7PULineEmitter@cocos2d@@6B@" PURGE="-1" COMMENT="" />
    <EXPORT ORDINAL="3501" NAME="??_7PULinearForceAffector@cocos2d@@6B@" PURGE="-1" COMMENT="" />
    <EXPORT ORDINAL="3502" NAME="??_7PUListener@cocos2d@@6B@" PURGE="-1" COMMENT="" />
    <EXPORT ORDINAL="3503" NAME="??_7PUMaterial@cocos2d@@6B@" PURGE="-1" COMMENT="" />
    <EXPORT ORDINAL="3504" NAME="??_7PUMeshSurfaceEmitter@cocos2d@@6B@" PURGE="-1" COMMENT="" />
    <EXPORT ORDINAL="3505" NAME="??_7PUObjectAbstractNode@cocos2d@@6B@" PURGE="-1" COMMENT="" />
    <EXPORT ORDINAL="3506" NAME="??_7PUObserver@cocos2d@@6B@" PURGE="-1" COMMENT="" />
    <EXPORT ORDINAL="3507" NAME="??_7PUOnClearObserver@cocos2d@@6B@" PURGE="-1" COMMENT="" />
    <EXPORT ORDINAL="3508" NAME="??_7PUOnCollisionObserver@cocos2d@@6B@" PURGE="-1" COMMENT="" />
    <EXPORT ORDINAL="3509" NAME="??_7PUOnCountObserver@cocos2d@@6B@" PURGE="-1" COMMENT="" />
    <EXPORT ORDINAL="3510" NAME="??_7PUOnEmissionObserver@cocos2d@@6B@" PURGE="-1" COMMENT="" />
    <EXPORT ORDINAL="3511" NAME="??_7PUOnEventFlagObserver@cocos2d@@6B@" PURGE="-1" COMMENT="" />
    <EXPORT ORDINAL="3512" NAME="??_7PUOnExpireObserver@cocos2d@@6B@" PURGE="-1" COMMENT="" />
    <EXPORT ORDINAL="3513" NAME="??_7PUOnPositionObserver@cocos2d@@6B@" PURGE="-1" COMMENT="" />
    <EXPORT ORDINAL="3514" NAME="??_7PUOnQuotaObserver@cocos2d@@6B@" PURGE="-1" COMMENT="" />
    <EXPORT ORDINAL="3515" NAME="??_7PUOnRandomObserver@cocos2d@@6B@" PURGE="-1" COMMENT="" />
    <EXPORT ORDINAL="3516" NAME="??_7PUOnTimeObserver@cocos2d@@6B@" PURGE="-1" COMMENT="" />
    <EXPORT ORDINAL="3517" NAME="??_7PUOnVelocityObserver@cocos2d@@6B@" PURGE="-1" COMMENT="" />
    <EXPORT ORDINAL="3518" NAME="??_7PUParticle3D@cocos2d@@6B@" PURGE="-1" COMMENT="" />
    <EXPORT ORDINAL="3519" NAME="??_7PUParticle3DBoxRender@cocos2d@@6B@" PURGE="-1" COMMENT="" />
    <EXPORT ORDINAL="3520" NAME="??_7PUParticle3DEntityRender@cocos2d@@6B@" PURGE="-1" COMMENT="" />
    <EXPORT ORDINAL="3521" NAME="??_7PUParticle3DInterParticleCollider@cocos2d@@6B@" PURGE="-1" COMMENT="" />
    <EXPORT ORDINAL="3522" NAME="??_7PUParticle3DModelRender@cocos2d@@6B@" PURGE="-1" COMMENT="" />
    <EXPORT ORDINAL="3523" NAME="??_7PUParticle3DQuadRender@cocos2d@@6B@" PURGE="-1" COMMENT="" />
    <EXPORT ORDINAL="3524" NAME="??_7PUParticleFollower@cocos2d@@6B@" PURGE="-1" COMMENT="" />
    <EXPORT ORDINAL="3525" NAME="??_7PUParticleSystem3D@cocos2d@@6BBlendProtocol@1@@" PURGE="-1" COMMENT="" />
    <EXPORT ORDINAL="3526" NAME="??_7PUParticleSystem3D@cocos2d@@6BNode@1@@" PURGE="-1" COMMENT="" />
    <EXPORT ORDINAL="3527" NAME="??_7PUPathFollower@cocos2d@@6B@" PURGE="-1" COMMENT="" />
    <EXPORT ORDINAL="3528" NAME="??_7PUPlaneCollider@cocos2d@@6B@" PURGE="-1" COMMENT="" />
    <EXPORT ORDINAL="3529" NAME="??_7PUPointEmitter@cocos2d@@6B@" PURGE="-1" COMMENT="" />
    <EXPORT ORDINAL="3530" NAME="??_7PUPositionEmitter@cocos2d@@6B@" PURGE="-1" COMMENT="" />
    <EXPORT ORDINAL="3531" NAME="??_7PUPropertyAbstractNode@cocos2d@@6B@" PURGE="-1" COMMENT="" />
    <EXPORT ORDINAL="3532" NAME="??_7PURandomiser@cocos2d@@6B@" PURGE="-1" COMMENT="" />
    <EXPORT ORDINAL="3533" NAME="??_7PURender@cocos2d@@6B@" PURGE="-1" COMMENT="" />
    <EXPORT ORDINAL="3534" NAME="??_7PURibbonTrailRender@cocos2d@@6BPUListener@1@@" PURGE="-1" COMMENT="" />
    <EXPORT ORDINAL="3535" NAME="??_7PURibbonTrailRender@cocos2d@@6BPURender@1@@" PURGE="-1" COMMENT="" />
    <EXPORT ORDINAL="3536" NAME="??_7PUScaleAffector@cocos2d@@6B@" PURGE="-1" COMMENT="" />
    <EXPORT ORDINAL="3537" NAME="??_7PUScaleVelocityAffector@cocos2d@@6B@" PURGE="-1" COMMENT="" />
    <EXPORT ORDINAL="3538" NAME="??_7PUScriptCompiler@cocos2d@@6B@" PURGE="-1" COMMENT="" />
    <EXPORT ORDINAL="3539" NAME="??_7PUSineForceAffector@cocos2d@@6B@" PURGE="-1" COMMENT="" />
    <EXPORT ORDINAL="3540" NAME="??_7PUSlaveBehaviour@cocos2d@@6B@" PURGE="-1" COMMENT="" />
    <EXPORT ORDINAL="3541" NAME="??_7PUSlaveEmitter@cocos2d@@6BPUEmitter@1@@" PURGE="-1" COMMENT="" />
    <EXPORT ORDINAL="3542" NAME="??_7PUSlaveEmitter@cocos2d@@6BPUListener@1@@" PURGE="-1" COMMENT="" />
    <EXPORT ORDINAL="3543" NAME="??_7PUSphereCollider@cocos2d@@6B@" PURGE="-1" COMMENT="" />
    <EXPORT ORDINAL="3544" NAME="??_7PUSphereRender@cocos2d@@6B@" PURGE="-1" COMMENT="" />
    <EXPORT ORDINAL="3545" NAME="??_7PUSphereSurfaceEmitter@cocos2d@@6B@" PURGE="-1" COMMENT="" />
    <EXPORT ORDINAL="3546" NAME="??_7PUTextureAnimator@cocos2d@@6B@" PURGE="-1" COMMENT="" />
    <EXPORT ORDINAL="3547" NAME="??_7PUTextureRotator@cocos2d@@6B@" PURGE="-1" COMMENT="" />
    <EXPORT ORDINAL="3548" NAME="??_7PUVelocityMatchingAffector@cocos2d@@6B@" PURGE="-1" COMMENT="" />
    <EXPORT ORDINAL="3549" NAME="??_7PUVortexAffector@cocos2d@@6B@" PURGE="-1" COMMENT="" />
    <EXPORT ORDINAL="3550" NAME="??_7PageTurn3D@cocos2d@@6BClonable@1@@" PURGE="-1" COMMENT="" />
    <EXPORT ORDINAL="3551" NAME="??_7PageTurn3D@cocos2d@@6BRef@1@@" PURGE="-1" COMMENT="" />
    <EXPORT ORDINAL="3552" NAME="??_7PageView@ui@cocos2d@@6B@" PURGE="-1" COMMENT="" />
    <EXPORT ORDINAL="3553" NAME="??_7PageView@ui@cocos2d@@6BLayoutParameterProtocol@12@@" PURGE="-1" COMMENT="" />
    <EXPORT ORDINAL="3554" NAME="??_7PageView@ui@cocos2d@@6BProtectedNode@2@@" PURGE="-1" COMMENT="" />
    <EXPORT ORDINAL="3555" NAME="??_7PageViewReader@cocostudio@@6BNodeReaderProtocol@1@@" PURGE="-1" COMMENT="" />
    <EXPORT ORDINAL="3556" NAME="??_7PageViewReader@cocostudio@@6BRef@cocos2d@@@" PURGE="-1" COMMENT="" />
    <EXPORT ORDINAL="3557" NAME="??_7PageViewReader@cocostudio@@6BWidgetReaderProtocol@1@@" PURGE="-1" COMMENT="" />
    <EXPORT ORDINAL="3558" NAME="??_7ParallaxNode@cocos2d@@6B@" PURGE="-1" COMMENT="" />
    <EXPORT ORDINAL="3559" NAME="??_7Particle3D@cocos2d@@6B@" PURGE="-1" COMMENT="" />
    <EXPORT ORDINAL="3560" NAME="??_7Particle3DAffector@cocos2d@@6B@" PURGE="-1" COMMENT="" />
    <EXPORT ORDINAL="3561" NAME="??_7Particle3DEmitter@cocos2d@@6B@" PURGE="-1" COMMENT="" />
    <EXPORT ORDINAL="3562" NAME="??_7Particle3DModelRender@cocos2d@@6B@" PURGE="-1" COMMENT="" />
    <EXPORT ORDINAL="3563" NAME="??_7Particle3DQuadRender@cocos2d@@6B@" PURGE="-1" COMMENT="" />
    <EXPORT ORDINAL="3564" NAME="??_7Particle3DReader@cocostudio@@6BNodeReaderProtocol@1@@" PURGE="-1" COMMENT="" />
    <EXPORT ORDINAL="3565" NAME="??_7Particle3DReader@cocostudio@@6BRef@cocos2d@@@" PURGE="-1" COMMENT="" />
    <EXPORT ORDINAL="3566" NAME="??_7Particle3DRender@cocos2d@@6B@" PURGE="-1" COMMENT="" />
    <EXPORT ORDINAL="3567" NAME="??_7ParticleBatchNode@cocos2d@@6BNode@1@@" PURGE="-1" COMMENT="" />
    <EXPORT ORDINAL="3568" NAME="??_7ParticleBatchNode@cocos2d@@6BTextureProtocol@1@@" PURGE="-1" COMMENT="" />
    <EXPORT ORDINAL="3569" NAME="??_7ParticleDisplayData@cocostudio@@6B@" PURGE="-1" COMMENT="" />
    <EXPORT ORDINAL="3570" NAME="??_7ParticleExplosion@cocos2d@@6BNode@1@@" PURGE="-1" COMMENT="" />
    <EXPORT ORDINAL="3571" NAME="??_7ParticleExplosion@cocos2d@@6BPlayableProtocol@1@@" PURGE="-1" COMMENT="" />
    <EXPORT ORDINAL="3572" NAME="??_7ParticleExplosion@cocos2d@@6BTextureProtocol@1@@" PURGE="-1" COMMENT="" />
    <EXPORT ORDINAL="3573" NAME="??_7ParticleFire@cocos2d@@6BNode@1@@" PURGE="-1" COMMENT="" />
    <EXPORT ORDINAL="3574" NAME="??_7ParticleFire@cocos2d@@6BPlayableProtocol@1@@" PURGE="-1" COMMENT="" />
    <EXPORT ORDINAL="3575" NAME="??_7ParticleFire@cocos2d@@6BTextureProtocol@1@@" PURGE="-1" COMMENT="" />
    <EXPORT ORDINAL="3576" NAME="??_7ParticleFireworks@cocos2d@@6BNode@1@@" PURGE="-1" COMMENT="" />
    <EXPORT ORDINAL="3577" NAME="??_7ParticleFireworks@cocos2d@@6BPlayableProtocol@1@@" PURGE="-1" COMMENT="" />
    <EXPORT ORDINAL="3578" NAME="??_7ParticleFireworks@cocos2d@@6BTextureProtocol@1@@" PURGE="-1" COMMENT="" />
    <EXPORT ORDINAL="3579" NAME="??_7ParticleFlower@cocos2d@@6BNode@1@@" PURGE="-1" COMMENT="" />
    <EXPORT ORDINAL="3580" NAME="??_7ParticleFlower@cocos2d@@6BPlayableProtocol@1@@" PURGE="-1" COMMENT="" />
    <EXPORT ORDINAL="3581" NAME="??_7ParticleFlower@cocos2d@@6BTextureProtocol@1@@" PURGE="-1" COMMENT="" />
    <EXPORT ORDINAL="3582" NAME="??_7ParticleGalaxy@cocos2d@@6BNode@1@@" PURGE="-1" COMMENT="" />
    <EXPORT ORDINAL="3583" NAME="??_7ParticleGalaxy@cocos2d@@6BPlayableProtocol@1@@" PURGE="-1" COMMENT="" />
    <EXPORT ORDINAL="3584" NAME="??_7ParticleGalaxy@cocos2d@@6BTextureProtocol@1@@" PURGE="-1" COMMENT="" />
    <EXPORT ORDINAL="3585" NAME="??_7ParticleMeteor@cocos2d@@6BNode@1@@" PURGE="-1" COMMENT="" />
    <EXPORT ORDINAL="3586" NAME="??_7ParticleMeteor@cocos2d@@6BPlayableProtocol@1@@" PURGE="-1" COMMENT="" />
    <EXPORT ORDINAL="3587" NAME="??_7ParticleMeteor@cocos2d@@6BTextureProtocol@1@@" PURGE="-1" COMMENT="" />
    <EXPORT ORDINAL="3588" NAME="??_7ParticleRain@cocos2d@@6BNode@1@@" PURGE="-1" COMMENT="" />
    <EXPORT ORDINAL="3589" NAME="??_7ParticleRain@cocos2d@@6BPlayableProtocol@1@@" PURGE="-1" COMMENT="" />
    <EXPORT ORDINAL="3590" NAME="??_7ParticleRain@cocos2d@@6BTextureProtocol@1@@" PURGE="-1" COMMENT="" />
    <EXPORT ORDINAL="3591" NAME="??_7ParticleReader@cocostudio@@6BNodeReaderProtocol@1@@" PURGE="-1" COMMENT="" />
    <EXPORT ORDINAL="3592" NAME="??_7ParticleReader@cocostudio@@6BRef@cocos2d@@@" PURGE="-1" COMMENT="" />
    <EXPORT ORDINAL="3593" NAME="??_7ParticleSmoke@cocos2d@@6BNode@1@@" PURGE="-1" COMMENT="" />
    <EXPORT ORDINAL="3594" NAME="??_7ParticleSmoke@cocos2d@@6BPlayableProtocol@1@@" PURGE="-1" COMMENT="" />
    <EXPORT ORDINAL="3595" NAME="??_7ParticleSmoke@cocos2d@@6BTextureProtocol@1@@" PURGE="-1" COMMENT="" />
    <EXPORT ORDINAL="3596" NAME="??_7ParticleSnow@cocos2d@@6BNode@1@@" PURGE="-1" COMMENT="" />
    <EXPORT ORDINAL="3597" NAME="??_7ParticleSnow@cocos2d@@6BPlayableProtocol@1@@" PURGE="-1" COMMENT="" />
    <EXPORT ORDINAL="3598" NAME="??_7ParticleSnow@cocos2d@@6BTextureProtocol@1@@" PURGE="-1" COMMENT="" />
    <EXPORT ORDINAL="3599" NAME="??_7ParticleSpiral@cocos2d@@6BNode@1@@" PURGE="-1" COMMENT="" />
    <EXPORT ORDINAL="3600" NAME="??_7ParticleSpiral@cocos2d@@6BPlayableProtocol@1@@" PURGE="-1" COMMENT="" />
    <EXPORT ORDINAL="3601" NAME="??_7ParticleSpiral@cocos2d@@6BTextureProtocol@1@@" PURGE="-1" COMMENT="" />
    <EXPORT ORDINAL="3602" NAME="??_7ParticleSun@cocos2d@@6BNode@1@@" PURGE="-1" COMMENT="" />
    <EXPORT ORDINAL="3603" NAME="??_7ParticleSun@cocos2d@@6BPlayableProtocol@1@@" PURGE="-1" COMMENT="" />
    <EXPORT ORDINAL="3604" NAME="??_7ParticleSun@cocos2d@@6BTextureProtocol@1@@" PURGE="-1" COMMENT="" />
    <EXPORT ORDINAL="3605" NAME="??_7ParticleSystem3D@cocos2d@@6BBlendProtocol@1@@" PURGE="-1" COMMENT="" />
    <EXPORT ORDINAL="3606" NAME="??_7ParticleSystem3D@cocos2d@@6BNode@1@@" PURGE="-1" COMMENT="" />
    <EXPORT ORDINAL="3607" NAME="??_7ParticleSystem@cocos2d@@6BNode@1@@" PURGE="-1" COMMENT="" />
    <EXPORT ORDINAL="3608" NAME="??_7ParticleSystem@cocos2d@@6BPlayableProtocol@1@@" PURGE="-1" COMMENT="" />
    <EXPORT ORDINAL="3609" NAME="??_7ParticleSystem@cocos2d@@6BTextureProtocol@1@@" PURGE="-1" COMMENT="" />
    <EXPORT ORDINAL="3610" NAME="??_7ParticleSystemQuad@cocos2d@@6BNode@1@@" PURGE="-1" COMMENT="" />
    <EXPORT ORDINAL="3611" NAME="??_7ParticleSystemQuad@cocos2d@@6BPlayableProtocol@1@@" PURGE="-1" COMMENT="" />
    <EXPORT ORDINAL="3612" NAME="??_7ParticleSystemQuad@cocos2d@@6BTextureProtocol@1@@" PURGE="-1" COMMENT="" />
    <EXPORT ORDINAL="3613" NAME="??_7ParticleSystemQuadLoader@cocosbuilder@@6B@" PURGE="-1" COMMENT="" />
    <EXPORT ORDINAL="3614" NAME="??_7Pass@cocos2d@@6B@" PURGE="-1" COMMENT="" />
    <EXPORT ORDINAL="3615" NAME="??_7Physics3D6DofConstraint@cocos2d@@6B@" PURGE="-1" COMMENT="" />
    <EXPORT ORDINAL="3616" NAME="??_7Physics3DCollider@cocos2d@@6B@" PURGE="-1" COMMENT="" />
    <EXPORT ORDINAL="3617" NAME="??_7Physics3DComponent@cocos2d@@6B@" PURGE="-1" COMMENT="" />
    <EXPORT ORDINAL="3618" NAME="??_7Physics3DConeTwistConstraint@cocos2d@@6B@" PURGE="-1" COMMENT="" />
    <EXPORT ORDINAL="3619" NAME="??_7Physics3DConstraint@cocos2d@@6B@" PURGE="-1" COMMENT="" />
    <EXPORT ORDINAL="3620" NAME="??_7Physics3DHingeConstraint@cocos2d@@6B@" PURGE="-1" COMMENT="" />
    <EXPORT ORDINAL="3621" NAME="??_7Physics3DObject@cocos2d@@6B@" PURGE="-1" COMMENT="" />
    <EXPORT ORDINAL="3622" NAME="??_7Physics3DPointToPointConstraint@cocos2d@@6B@" PURGE="-1" COMMENT="" />
    <EXPORT ORDINAL="3623" NAME="??_7Physics3DRigidBody@cocos2d@@6B@" PURGE="-1" COMMENT="" />
    <EXPORT ORDINAL="3624" NAME="??_7Physics3DShape@cocos2d@@6B@" PURGE="-1" COMMENT="" />
    <EXPORT ORDINAL="3625" NAME="??_7Physics3DSliderConstraint@cocos2d@@6B@" PURGE="-1" COMMENT="" />
    <EXPORT ORDINAL="3626" NAME="??_7Physics3DWorld@cocos2d@@6B@" PURGE="-1" COMMENT="" />
    <EXPORT ORDINAL="3627" NAME="??_7PhysicsBody@cocos2d@@6B@" PURGE="-1" COMMENT="" />
    <EXPORT ORDINAL="3628" NAME="??_7PhysicsContact@cocos2d@@6B@" PURGE="-1" COMMENT="" />
    <EXPORT ORDINAL="3629" NAME="??_7PhysicsDebugNode@extension@cocos2d@@6B@" PURGE="-1" COMMENT="" />
    <EXPORT ORDINAL="3630" NAME="??_7PhysicsJoint@cocos2d@@6B@" PURGE="-1" COMMENT="" />
    <EXPORT ORDINAL="3631" NAME="??_7PhysicsJointDistance@cocos2d@@6B@" PURGE="-1" COMMENT="" />
    <EXPORT ORDINAL="3632" NAME="??_7PhysicsJointFixed@cocos2d@@6B@" PURGE="-1" COMMENT="" />
    <EXPORT ORDINAL="3633" NAME="??_7PhysicsJointGear@cocos2d@@6B@" PURGE="-1" COMMENT="" />
    <EXPORT ORDINAL="3634" NAME="??_7PhysicsJointGroove@cocos2d@@6B@" PURGE="-1" COMMENT="" />
    <EXPORT ORDINAL="3635" NAME="??_7PhysicsJointLimit@cocos2d@@6B@" PURGE="-1" COMMENT="" />
    <EXPORT ORDINAL="3636" NAME="??_7PhysicsJointMotor@cocos2d@@6B@" PURGE="-1" COMMENT="" />
    <EXPORT ORDINAL="3637" NAME="??_7PhysicsJointPin@cocos2d@@6B@" PURGE="-1" COMMENT="" />
    <EXPORT ORDINAL="3638" NAME="??_7PhysicsJointRatchet@cocos2d@@6B@" PURGE="-1" COMMENT="" />
    <EXPORT ORDINAL="3639" NAME="??_7PhysicsJointRotaryLimit@cocos2d@@6B@" PURGE="-1" COMMENT="" />
    <EXPORT ORDINAL="3640" NAME="??_7PhysicsJointRotarySpring@cocos2d@@6B@" PURGE="-1" COMMENT="" />
    <EXPORT ORDINAL="3641" NAME="??_7PhysicsJointSpring@cocos2d@@6B@" PURGE="-1" COMMENT="" />
    <EXPORT ORDINAL="3642" NAME="??_7PhysicsShape@cocos2d@@6B@" PURGE="-1" COMMENT="" />
    <EXPORT ORDINAL="3643" NAME="??_7PhysicsShapeBox@cocos2d@@6B@" PURGE="-1" COMMENT="" />
    <EXPORT ORDINAL="3644" NAME="??_7PhysicsShapeCircle@cocos2d@@6B@" PURGE="-1" COMMENT="" />
    <EXPORT ORDINAL="3645" NAME="??_7PhysicsShapeEdgeBox@cocos2d@@6B@" PURGE="-1" COMMENT="" />
    <EXPORT ORDINAL="3646" NAME="??_7PhysicsShapeEdgeChain@cocos2d@@6B@" PURGE="-1" COMMENT="" />
    <EXPORT ORDINAL="3647" NAME="??_7PhysicsShapeEdgePolygon@cocos2d@@6B@" PURGE="-1" COMMENT="" />
    <EXPORT ORDINAL="3648" NAME="??_7PhysicsShapeEdgeSegment@cocos2d@@6B@" PURGE="-1" COMMENT="" />
    <EXPORT ORDINAL="3649" NAME="??_7PhysicsShapePolygon@cocos2d@@6B@" PURGE="-1" COMMENT="" />
    <EXPORT ORDINAL="3650" NAME="??_7PhysicsSprite3D@cocos2d@@6BBlendProtocol@1@@" PURGE="-1" COMMENT="" />
    <EXPORT ORDINAL="3651" NAME="??_7PhysicsSprite3D@cocos2d@@6BNode@1@@" PURGE="-1" COMMENT="" />
    <EXPORT ORDINAL="3652" NAME="??_7PhysicsSprite@extension@cocos2d@@6BNode@2@@" PURGE="-1" COMMENT="" />
    <EXPORT ORDINAL="3653" NAME="??_7PhysicsSprite@extension@cocos2d@@6BTextureProtocol@2@@" PURGE="-1" COMMENT="" />
    <EXPORT ORDINAL="3654" NAME="??_7PhysicsWorld@cocos2d@@6B@" PURGE="-1" COMMENT="" />
    <EXPORT ORDINAL="3655" NAME="??_7Place@cocos2d@@6BClonable@1@@" PURGE="-1" COMMENT="" />
    <EXPORT ORDINAL="3656" NAME="??_7Place@cocos2d@@6BRef@1@@" PURGE="-1" COMMENT="" />
    <EXPORT ORDINAL="3657" NAME="??_7PlayableFrame@timeline@cocostudio@@6B@" PURGE="-1" COMMENT="" />
    <EXPORT ORDINAL="3658" NAME="??_7PlayableProtocol@cocos2d@@6B@" PURGE="-1" COMMENT="" />
    <EXPORT ORDINAL="3659" NAME="??_7PointArray@cocos2d@@6BClonable@1@@" PURGE="-1" COMMENT="" />
    <EXPORT ORDINAL="3660" NAME="??_7PointArray@cocos2d@@6BRef@1@@" PURGE="-1" COMMENT="" />
    <EXPORT ORDINAL="3661" NAME="??_7PointLight@cocos2d@@6B@" PURGE="-1" COMMENT="" />
    <EXPORT ORDINAL="3662" NAME="??_7PositionFrame@timeline@cocostudio@@6B@" PURGE="-1" COMMENT="" />
    <EXPORT ORDINAL="3663" NAME="??_7PrettyPrinter@cocos2d@@6B@" PURGE="-1" COMMENT="" />
    <EXPORT ORDINAL="3664" NAME="??_7Primitive@cocos2d@@6B@" PURGE="-1" COMMENT="" />
    <EXPORT ORDINAL="3665" NAME="??_7PrimitiveCommand@cocos2d@@6B@" PURGE="-1" COMMENT="" />
    <EXPORT ORDINAL="3666" NAME="??_7ProcessBase@cocostudio@@6B@" PURGE="-1" COMMENT="" />
    <EXPORT ORDINAL="3667" NAME="??_7Profiler@cocos2d@@6B@" PURGE="-1" COMMENT="" />
    <EXPORT ORDINAL="3668" NAME="??_7ProgressFromTo@cocos2d@@6BClonable@1@@" PURGE="-1" COMMENT="" />
    <EXPORT ORDINAL="3669" NAME="??_7ProgressFromTo@cocos2d@@6BRef@1@@" PURGE="-1" COMMENT="" />
    <EXPORT ORDINAL="3670" NAME="??_7ProgressTimer@cocos2d@@6B@" PURGE="-1" COMMENT="" />
    <EXPORT ORDINAL="3671" NAME="??_7ProgressTo@cocos2d@@6BClonable@1@@" PURGE="-1" COMMENT="" />
    <EXPORT ORDINAL="3672" NAME="??_7ProgressTo@cocos2d@@6BRef@1@@" PURGE="-1" COMMENT="" />
    <EXPORT ORDINAL="3673" NAME="??_7ProjectNodeReader@cocostudio@@6BNodeReaderProtocol@1@@" PURGE="-1" COMMENT="" />
    <EXPORT ORDINAL="3674" NAME="??_7ProjectNodeReader@cocostudio@@6BRef@cocos2d@@@" PURGE="-1" COMMENT="" />
    <EXPORT ORDINAL="3675" NAME="??_7ProtectedNode@cocos2d@@6B@" PURGE="-1" COMMENT="" />
    <EXPORT ORDINAL="3676" NAME="??_7QuadCommand@cocos2d@@6B@" PURGE="-1" COMMENT="" />
    <EXPORT ORDINAL="3677" NAME="??_7RadioButton@ui@cocos2d@@6BLayoutParameterProtocol@12@@" PURGE="-1" COMMENT="" />
    <EXPORT ORDINAL="3678" NAME="??_7RadioButton@ui@cocos2d@@6BProtectedNode@2@@" PURGE="-1" COMMENT="" />
    <EXPORT ORDINAL="3679" NAME="??_7RadioButtonGroup@ui@cocos2d@@6BLayoutParameterProtocol@12@@" PURGE="-1" COMMENT="" />
    <EXPORT ORDINAL="3680" NAME="??_7RadioButtonGroup@ui@cocos2d@@6BProtectedNode@2@@" PURGE="-1" COMMENT="" />
    <EXPORT ORDINAL="3681" NAME="??_7Ref@cocos2d@@6B@" PURGE="-1" COMMENT="" />
    <EXPORT ORDINAL="3682" NAME="??_7RelativeBox@ui@cocos2d@@6B@" PURGE="-1" COMMENT="" />
    <EXPORT ORDINAL="3683" NAME="??_7RelativeBox@ui@cocos2d@@6BLayoutParameterProtocol@12@@" PURGE="-1" COMMENT="" />
    <EXPORT ORDINAL="3684" NAME="??_7RelativeBox@ui@cocos2d@@6BProtectedNode@2@@" PURGE="-1" COMMENT="" />
    <EXPORT ORDINAL="3685" NAME="??_7RelativeLayoutManager@ui@cocos2d@@6B@" PURGE="-1" COMMENT="" />
    <EXPORT ORDINAL="3686" NAME="??_7RelativeLayoutParameter@ui@cocos2d@@6B@" PURGE="-1" COMMENT="" />
    <EXPORT ORDINAL="3687" NAME="??_7RemoveSelf@cocos2d@@6BClonable@1@@" PURGE="-1" COMMENT="" />
    <EXPORT ORDINAL="3688" NAME="??_7RemoveSelf@cocos2d@@6BRef@1@@" PURGE="-1" COMMENT="" />
    <EXPORT ORDINAL="3689" NAME="??_7RenderCommand@cocos2d@@6B@" PURGE="-1" COMMENT="" />
    <EXPORT ORDINAL="3690" NAME="??_7RenderState@cocos2d@@6B@" PURGE="-1" COMMENT="" />
    <EXPORT ORDINAL="3691" NAME="??_7RenderTarget@experimental@cocos2d@@6B@" PURGE="-1" COMMENT="" />
    <EXPORT ORDINAL="3692" NAME="??_7RenderTargetBase@experimental@cocos2d@@6B@" PURGE="-1" COMMENT="" />
    <EXPORT ORDINAL="3693" NAME="??_7RenderTargetDepthStencil@experimental@cocos2d@@6B@" PURGE="-1" COMMENT="" />
    <EXPORT ORDINAL="3694" NAME="??_7RenderTargetRenderBuffer@experimental@cocos2d@@6B@" PURGE="-1" COMMENT="" />
    <EXPORT ORDINAL="3695" NAME="??_7RenderTexture@cocos2d@@6B@" PURGE="-1" COMMENT="" />
    <EXPORT ORDINAL="3696" NAME="??_7Repeat@cocos2d@@6BClonable@1@@" PURGE="-1" COMMENT="" />
    <EXPORT ORDINAL="3697" NAME="??_7Repeat@cocos2d@@6BRef@1@@" PURGE="-1" COMMENT="" />
    <EXPORT ORDINAL="3698" NAME="??_7RepeatForever@cocos2d@@6BClonable@1@@" PURGE="-1" COMMENT="" />
    <EXPORT ORDINAL="3699" NAME="??_7RepeatForever@cocos2d@@6BRef@1@@" PURGE="-1" COMMENT="" />
    <EXPORT ORDINAL="3700" NAME="??_7ResizeBy@cocos2d@@6BClonable@1@@" PURGE="-1" COMMENT="" />
    <EXPORT ORDINAL="3701" NAME="??_7ResizeBy@cocos2d@@6BRef@1@@" PURGE="-1" COMMENT="" />
    <EXPORT ORDINAL="3702" NAME="??_7ResizeTo@cocos2d@@6BClonable@1@@" PURGE="-1" COMMENT="" />
    <EXPORT ORDINAL="3703" NAME="??_7ResizeTo@cocos2d@@6BRef@1@@" PURGE="-1" COMMENT="" />
    <EXPORT ORDINAL="3704" NAME="??_7ReuseGrid@cocos2d@@6BClonable@1@@" PURGE="-1" COMMENT="" />
    <EXPORT ORDINAL="3705" NAME="??_7ReuseGrid@cocos2d@@6BRef@1@@" PURGE="-1" COMMENT="" />
    <EXPORT ORDINAL="3706" NAME="??_7ReverseTime@cocos2d@@6BClonable@1@@" PURGE="-1" COMMENT="" />
    <EXPORT ORDINAL="3707" NAME="??_7ReverseTime@cocos2d@@6BRef@1@@" PURGE="-1" COMMENT="" />
    <EXPORT ORDINAL="3708" NAME="??_7RichElement@ui@cocos2d@@6B@" PURGE="-1" COMMENT="" />
    <EXPORT ORDINAL="3709" NAME="??_7RichElementCustomNode@ui@cocos2d@@6B@" PURGE="-1" COMMENT="" />
    <EXPORT ORDINAL="3710" NAME="??_7RichElementImage@ui@cocos2d@@6B@" PURGE="-1" COMMENT="" />
    <EXPORT ORDINAL="3711" NAME="??_7RichElementNewLine@ui@cocos2d@@6B@" PURGE="-1" COMMENT="" />
    <EXPORT ORDINAL="3712" NAME="??_7RichElementText@ui@cocos2d@@6B@" PURGE="-1" COMMENT="" />
    <EXPORT ORDINAL="3713" NAME="??_7RichText@ui@cocos2d@@6BLayoutParameterProtocol@12@@" PURGE="-1" COMMENT="" />
    <EXPORT ORDINAL="3714" NAME="??_7RichText@ui@cocos2d@@6BProtectedNode@2@@" PURGE="-1" COMMENT="" />
    <EXPORT ORDINAL="3715" NAME="??_7Ripple3D@cocos2d@@6BClonable@1@@" PURGE="-1" COMMENT="" />
    <EXPORT ORDINAL="3716" NAME="??_7Ripple3D@cocos2d@@6BRef@1@@" PURGE="-1" COMMENT="" />
    <EXPORT ORDINAL="3717" NAME="??_7RotateBy@cocos2d@@6BClonable@1@@" PURGE="-1" COMMENT="" />
    <EXPORT ORDINAL="3718" NAME="??_7RotateBy@cocos2d@@6BRef@1@@" PURGE="-1" COMMENT="" />
    <EXPORT ORDINAL="3719" NAME="??_7RotateTo@cocos2d@@6BClonable@1@@" PURGE="-1" COMMENT="" />
    <EXPORT ORDINAL="3720" NAME="??_7RotateTo@cocos2d@@6BRef@1@@" PURGE="-1" COMMENT="" />
    <EXPORT ORDINAL="3721" NAME="??_7RotationFrame@timeline@cocostudio@@6B@" PURGE="-1" COMMENT="" />
    <EXPORT ORDINAL="3722" NAME="??_7RotationSkewFrame@timeline@cocostudio@@6B@" PURGE="-1" COMMENT="" />
    <EXPORT ORDINAL="3723" NAME="??_7SAXDelegator@cocos2d@@6B@" PURGE="-1" COMMENT="" />
    <EXPORT ORDINAL="3724" NAME="??_7Scale9Sprite@ui@cocos2d@@6BNode@2@@" PURGE="-1" COMMENT="" />
    <EXPORT ORDINAL="3725" NAME="??_7Scale9Sprite@ui@cocos2d@@6BTextureProtocol@2@@" PURGE="-1" COMMENT="" />
    <EXPORT ORDINAL="3726" NAME="??_7Scale9SpriteLoader@cocosbuilder@@6B@" PURGE="-1" COMMENT="" />
    <EXPORT ORDINAL="3727" NAME="??_7ScaleBy@cocos2d@@6BClonable@1@@" PURGE="-1" COMMENT="" />
    <EXPORT ORDINAL="3728" NAME="??_7ScaleBy@cocos2d@@6BRef@1@@" PURGE="-1" COMMENT="" />
    <EXPORT ORDINAL="3729" NAME="??_7ScaleFrame@timeline@cocostudio@@6B@" PURGE="-1" COMMENT="" />
    <EXPORT ORDINAL="3730" NAME="??_7ScaleTo@cocos2d@@6BClonable@1@@" PURGE="-1" COMMENT="" />
    <EXPORT ORDINAL="3731" NAME="??_7ScaleTo@cocos2d@@6BRef@1@@" PURGE="-1" COMMENT="" />
    <EXPORT ORDINAL="3732" NAME="??_7Scene@cocos2d@@6B@" PURGE="-1" COMMENT="" />
    <EXPORT ORDINAL="3733" NAME="??_7SceneReader@cocostudio@@6B@" PURGE="-1" COMMENT="" />
    <EXPORT ORDINAL="3734" NAME="??_7Scheduler@cocos2d@@6B@" PURGE="-1" COMMENT="" />
    <EXPORT ORDINAL="3735" NAME="??_7ScriptEngineProtocol@cocos2d@@6B@" PURGE="-1" COMMENT="" />
    <EXPORT ORDINAL="3736" NAME="??_7ScrollView@extension@cocos2d@@6BActionTweenDelegate@2@@" PURGE="-1" COMMENT="" />
    <EXPORT ORDINAL="3737" NAME="??_7ScrollView@extension@cocos2d@@6BLayer@2@@" PURGE="-1" COMMENT="" />
    <EXPORT ORDINAL="3738" NAME="??_7ScrollView@ui@cocos2d@@6B@" PURGE="-1" COMMENT="" />
    <EXPORT ORDINAL="3739" NAME="??_7ScrollView@ui@cocos2d@@6BLayoutParameterProtocol@12@@" PURGE="-1" COMMENT="" />
    <EXPORT ORDINAL="3740" NAME="??_7ScrollView@ui@cocos2d@@6BProtectedNode@2@@" PURGE="-1" COMMENT="" />
    <EXPORT ORDINAL="3741" NAME="??_7ScrollViewBar@ui@cocos2d@@6B@" PURGE="-1" COMMENT="" />
    <EXPORT ORDINAL="3742" NAME="??_7ScrollViewDelegate@extension@cocos2d@@6B@" PURGE="-1" COMMENT="" />
    <EXPORT ORDINAL="3743" NAME="??_7ScrollViewLoader@cocosbuilder@@6B@" PURGE="-1" COMMENT="" />
    <EXPORT ORDINAL="3744" NAME="??_7ScrollViewReader@cocostudio@@6BNodeReaderProtocol@1@@" PURGE="-1" COMMENT="" />
    <EXPORT ORDINAL="3745" NAME="??_7ScrollViewReader@cocostudio@@6BRef@cocos2d@@@" PURGE="-1" COMMENT="" />
    <EXPORT ORDINAL="3746" NAME="??_7ScrollViewReader@cocostudio@@6BWidgetReaderProtocol@1@@" PURGE="-1" COMMENT="" />
    <EXPORT ORDINAL="3747" NAME="??_7Sequence@cocos2d@@6BClonable@1@@" PURGE="-1" COMMENT="" />
    <EXPORT ORDINAL="3748" NAME="??_7Sequence@cocos2d@@6BRef@1@@" PURGE="-1" COMMENT="" />
    <EXPORT ORDINAL="3749" NAME="??_7Shaky3D@cocos2d@@6BClonable@1@@" PURGE="-1" COMMENT="" />
    <EXPORT ORDINAL="3750" NAME="??_7Shaky3D@cocos2d@@6BRef@1@@" PURGE="-1" COMMENT="" />
    <EXPORT ORDINAL="3751" NAME="??_7ShakyTiles3D@cocos2d@@6BClonable@1@@" PURGE="-1" COMMENT="" />
    <EXPORT ORDINAL="3752" NAME="??_7ShakyTiles3D@cocos2d@@6BRef@1@@" PURGE="-1" COMMENT="" />
    <EXPORT ORDINAL="3753" NAME="??_7ShatteredTiles3D@cocos2d@@6BClonable@1@@" PURGE="-1" COMMENT="" />
    <EXPORT ORDINAL="3754" NAME="??_7ShatteredTiles3D@cocos2d@@6BRef@1@@" PURGE="-1" COMMENT="" />
    <EXPORT ORDINAL="3755" NAME="??_7Show@cocos2d@@6BClonable@1@@" PURGE="-1" COMMENT="" />
    <EXPORT ORDINAL="3756" NAME="??_7Show@cocos2d@@6BRef@1@@" PURGE="-1" COMMENT="" />
    <EXPORT ORDINAL="3757" NAME="??_7ShuffleTiles@cocos2d@@6BClonable@1@@" PURGE="-1" COMMENT="" />
    <EXPORT ORDINAL="3758" NAME="??_7ShuffleTiles@cocos2d@@6BRef@1@@" PURGE="-1" COMMENT="" />
    <EXPORT ORDINAL="3759" NAME="??_7SimpleAudioEngine@CocosDenshion@@6B@" PURGE="-1" COMMENT="" />
    <EXPORT ORDINAL="3760" NAME="??_7SingleNodeReader@cocostudio@@6BNodeReaderProtocol@1@@" PURGE="-1" COMMENT="" />
    <EXPORT ORDINAL="3761" NAME="??_7SingleNodeReader@cocostudio@@6BRef@cocos2d@@@" PURGE="-1" COMMENT="" />
    <EXPORT ORDINAL="3762" NAME="??_7Skeleton3D@cocos2d@@6B@" PURGE="-1" COMMENT="" />
    <EXPORT ORDINAL="3763" NAME="??_7SkeletonNode@timeline@cocostudio@@6BBlendProtocol@cocos2d@@@" PURGE="-1" COMMENT="" />
    <EXPORT ORDINAL="3764" NAME="??_7SkeletonNode@timeline@cocostudio@@6BNode@cocos2d@@@" PURGE="-1" COMMENT="" />
    <EXPORT ORDINAL="3765" NAME="??_7SkewBy@cocos2d@@6BClonable@1@@" PURGE="-1" COMMENT="" />
    <EXPORT ORDINAL="3766" NAME="??_7SkewBy@cocos2d@@6BRef@1@@" PURGE="-1" COMMENT="" />
    <EXPORT ORDINAL="3767" NAME="??_7SkewFrame@timeline@cocostudio@@6B@" PURGE="-1" COMMENT="" />
    <EXPORT ORDINAL="3768" NAME="??_7SkewTo@cocos2d@@6BClonable@1@@" PURGE="-1" COMMENT="" />
    <EXPORT ORDINAL="3769" NAME="??_7SkewTo@cocos2d@@6BRef@1@@" PURGE="-1" COMMENT="" />
    <EXPORT ORDINAL="3770" NAME="??_7Skin@cocostudio@@6BNode@cocos2d@@@" PURGE="-1" COMMENT="" />
    <EXPORT ORDINAL="3771" NAME="??_7Skin@cocostudio@@6BTextureProtocol@cocos2d@@@" PURGE="-1" COMMENT="" />
    <EXPORT ORDINAL="3772" NAME="??_7Skybox@cocos2d@@6B@" PURGE="-1" COMMENT="" />
    <EXPORT ORDINAL="3773" NAME="??_7Slider@ui@cocos2d@@6BLayoutParameterProtocol@12@@" PURGE="-1" COMMENT="" />
    <EXPORT ORDINAL="3774" NAME="??_7Slider@ui@cocos2d@@6BProtectedNode@2@@" PURGE="-1" COMMENT="" />
    <EXPORT ORDINAL="3775" NAME="??_7SliderReader@cocostudio@@6BNodeReaderProtocol@1@@" PURGE="-1" COMMENT="" />
    <EXPORT ORDINAL="3776" NAME="??_7SliderReader@cocostudio@@6BRef@cocos2d@@@" PURGE="-1" COMMENT="" />
    <EXPORT ORDINAL="3777" NAME="??_7SliderReader@cocostudio@@6BWidgetReaderProtocol@1@@" PURGE="-1" COMMENT="" />
    <EXPORT ORDINAL="3778" NAME="??_7Spawn@cocos2d@@6BClonable@1@@" PURGE="-1" COMMENT="" />
    <EXPORT ORDINAL="3779" NAME="??_7Spawn@cocos2d@@6BRef@1@@" PURGE="-1" COMMENT="" />
    <EXPORT ORDINAL="3780" NAME="??_7Speed@cocos2d@@6BClonable@1@@" PURGE="-1" COMMENT="" />
    <EXPORT ORDINAL="3781" NAME="??_7Speed@cocos2d@@6BRef@1@@" PURGE="-1" COMMENT="" />
    <EXPORT ORDINAL="3782" NAME="??_7SplitCols@cocos2d@@6BClonable@1@@" PURGE="-1" COMMENT="" />
    <EXPORT ORDINAL="3783" NAME="??_7SplitCols@cocos2d@@6BRef@1@@" PURGE="-1" COMMENT="" />
    <EXPORT ORDINAL="3784" NAME="??_7SplitRows@cocos2d@@6BClonable@1@@" PURGE="-1" COMMENT="" />
    <EXPORT ORDINAL="3785" NAME="??_7SplitRows@cocos2d@@6BRef@1@@" PURGE="-1" COMMENT="" />
    <EXPORT ORDINAL="3786" NAME="??_7SpotLight@cocos2d@@6B@" PURGE="-1" COMMENT="" />
    <EXPORT ORDINAL="3787" NAME="??_7Sprite3D@cocos2d@@6BBlendProtocol@1@@" PURGE="-1" COMMENT="" />
    <EXPORT ORDINAL="3788" NAME="??_7Sprite3D@cocos2d@@6BNode@1@@" PURGE="-1" COMMENT="" />
    <EXPORT ORDINAL="3789" NAME="??_7Sprite3DMaterial@cocos2d@@6B@" PURGE="-1" COMMENT="" />
    <EXPORT ORDINAL="3790" NAME="??_7Sprite3DReader@cocostudio@@6BNodeReaderProtocol@1@@" PURGE="-1" COMMENT="" />
    <EXPORT ORDINAL="3791" NAME="??_7Sprite3DReader@cocostudio@@6BRef@cocos2d@@@" PURGE="-1" COMMENT="" />
    <EXPORT ORDINAL="3792" NAME="??_7Sprite@cocos2d@@6BNode@1@@" PURGE="-1" COMMENT="" />
    <EXPORT ORDINAL="3793" NAME="??_7Sprite@cocos2d@@6BTextureProtocol@1@@" PURGE="-1" COMMENT="" />
    <EXPORT ORDINAL="3794" NAME="??_7SpriteBatchNode@cocos2d@@6BNode@1@@" PURGE="-1" COMMENT="" />
    <EXPORT ORDINAL="3795" NAME="??_7SpriteBatchNode@cocos2d@@6BTextureProtocol@1@@" PURGE="-1" COMMENT="" />
    <EXPORT ORDINAL="3796" NAME="??_7SpriteDisplayData@cocostudio@@6B@" PURGE="-1" COMMENT="" />
    <EXPORT ORDINAL="3797" NAME="??_7SpriteFrame@cocos2d@@6BClonable@1@@" PURGE="-1" COMMENT="" />
    <EXPORT ORDINAL="3798" NAME="??_7SpriteFrame@cocos2d@@6BRef@1@@" PURGE="-1" COMMENT="" />
    <EXPORT ORDINAL="3799" NAME="??_7SpriteFrameCache@cocos2d@@6B@" PURGE="-1" COMMENT="" />
    <EXPORT ORDINAL="3800" NAME="??_7SpriteLoader@cocosbuilder@@6B@" PURGE="-1" COMMENT="" />
    <EXPORT ORDINAL="3801" NAME="??_7SpriteReader@cocostudio@@6BNodeReaderProtocol@1@@" PURGE="-1" COMMENT="" />
    <EXPORT ORDINAL="3802" NAME="??_7SpriteReader@cocostudio@@6BRef@cocos2d@@@" PURGE="-1" COMMENT="" />
    <EXPORT ORDINAL="3803" NAME="??_7StateBlock@RenderState@cocos2d@@6B@" PURGE="-1" COMMENT="" />
    <EXPORT ORDINAL="3804" NAME="??_7StopGrid@cocos2d@@6BClonable@1@@" PURGE="-1" COMMENT="" />
    <EXPORT ORDINAL="3805" NAME="??_7StopGrid@cocos2d@@6BRef@1@@" PURGE="-1" COMMENT="" />
    <EXPORT ORDINAL="3806" NAME="??_7TMXLayer@cocos2d@@6BNode@1@@" PURGE="-1" COMMENT="" />
    <EXPORT ORDINAL="3807" NAME="??_7TMXLayer@cocos2d@@6BTextureProtocol@1@@" PURGE="-1" COMMENT="" />
    <EXPORT ORDINAL="3808" NAME="??_7TMXLayer@experimental@cocos2d@@6B@" PURGE="-1" COMMENT="" />
    <EXPORT ORDINAL="3809" NAME="??_7TMXLayerInfo@cocos2d@@6B@" PURGE="-1" COMMENT="" />
    <EXPORT ORDINAL="3810" NAME="??_7TMXMapInfo@cocos2d@@6BRef@1@@" PURGE="-1" COMMENT="" />
    <EXPORT ORDINAL="3811" NAME="??_7TMXMapInfo@cocos2d@@6BSAXDelegator@1@@" PURGE="-1" COMMENT="" />
    <EXPORT ORDINAL="3812" NAME="??_7TMXObjectGroup@cocos2d@@6B@" PURGE="-1" COMMENT="" />
    <EXPORT ORDINAL="3813" NAME="??_7TMXTiledMap@cocos2d@@6B@" PURGE="-1" COMMENT="" />
    <EXPORT ORDINAL="3814" NAME="??_7TMXTiledMap@experimental@cocos2d@@6B@" PURGE="-1" COMMENT="" />
    <EXPORT ORDINAL="3815" NAME="??_7TMXTilesetInfo@cocos2d@@6B@" PURGE="-1" COMMENT="" />
    <EXPORT ORDINAL="3816" NAME="??_7TabControl@ui@cocos2d@@6BLayoutParameterProtocol@12@@" PURGE="-1" COMMENT="" />
    <EXPORT ORDINAL="3817" NAME="??_7TabControl@ui@cocos2d@@6BProtectedNode@2@@" PURGE="-1" COMMENT="" />
    <EXPORT ORDINAL="3818" NAME="??_7TabHeader@ui@cocos2d@@6BLayoutParameterProtocol@12@@" PURGE="-1" COMMENT="" />
    <EXPORT ORDINAL="3819" NAME="??_7TabHeader@ui@cocos2d@@6BProtectedNode@2@@" PURGE="-1" COMMENT="" />
    <EXPORT ORDINAL="3820" NAME="??_7TableView@extension@cocos2d@@6B@" PURGE="-1" COMMENT="" />
    <EXPORT ORDINAL="3821" NAME="??_7TableView@extension@cocos2d@@6BActionTweenDelegate@2@@" PURGE="-1" COMMENT="" />
    <EXPORT ORDINAL="3822" NAME="??_7TableView@extension@cocos2d@@6BLayer@2@@" PURGE="-1" COMMENT="" />
    <EXPORT ORDINAL="3823" NAME="??_7TableViewCell@extension@cocos2d@@6B@" PURGE="-1" COMMENT="" />
    <EXPORT ORDINAL="3824" NAME="??_7TableViewDataSource@extension@cocos2d@@6B@" PURGE="-1" COMMENT="" />
    <EXPORT ORDINAL="3825" NAME="??_7TableViewDelegate@extension@cocos2d@@6B@" PURGE="-1" COMMENT="" />
    <EXPORT ORDINAL="3826" NAME="??_7TargetedAction@cocos2d@@6BClonable@1@@" PURGE="-1" COMMENT="" />
    <EXPORT ORDINAL="3827" NAME="??_7TargetedAction@cocos2d@@6BRef@1@@" PURGE="-1" COMMENT="" />
    <EXPORT ORDINAL="3828" NAME="??_7Technique@cocos2d@@6B@" PURGE="-1" COMMENT="" />
    <EXPORT ORDINAL="3829" NAME="??_7Terrain@cocos2d@@6B@" PURGE="-1" COMMENT="" />
    <EXPORT ORDINAL="3830" NAME="??_7Text@ui@cocos2d@@6BLayoutParameterProtocol@12@@" PURGE="-1" COMMENT="" />
    <EXPORT ORDINAL="3831" NAME="??_7Text@ui@cocos2d@@6BProtectedNode@2@@" PURGE="-1" COMMENT="" />
    <EXPORT ORDINAL="3832" NAME="??_7TextAtlas@ui@cocos2d@@6BLayoutParameterProtocol@12@@" PURGE="-1" COMMENT="" />
    <EXPORT ORDINAL="3833" NAME="??_7TextAtlas@ui@cocos2d@@6BProtectedNode@2@@" PURGE="-1" COMMENT="" />
    <EXPORT ORDINAL="3834" NAME="??_7TextAtlasReader@cocostudio@@6BNodeReaderProtocol@1@@" PURGE="-1" COMMENT="" />
    <EXPORT ORDINAL="3835" NAME="??_7TextAtlasReader@cocostudio@@6BRef@cocos2d@@@" PURGE="-1" COMMENT="" />
    <EXPORT ORDINAL="3836" NAME="??_7TextAtlasReader@cocostudio@@6BWidgetReaderProtocol@1@@" PURGE="-1" COMMENT="" />
    <EXPORT ORDINAL="3837" NAME="??_7TextBMFont@ui@cocos2d@@6BLayoutParameterProtocol@12@@" PURGE="-1" COMMENT="" />
    <EXPORT ORDINAL="3838" NAME="??_7TextBMFont@ui@cocos2d@@6BProtectedNode@2@@" PURGE="-1" COMMENT="" />
    <EXPORT ORDINAL="3839" NAME="??_7TextBMFontReader@cocostudio@@6BNodeReaderProtocol@1@@" PURGE="-1" COMMENT="" />
    <EXPORT ORDINAL="3840" NAME="??_7TextBMFontReader@cocostudio@@6BRef@cocos2d@@@" PURGE="-1" COMMENT="" />
    <EXPORT ORDINAL="3841" NAME="??_7TextBMFontReader@cocostudio@@6BWidgetReaderProtocol@1@@" PURGE="-1" COMMENT="" />
    <EXPORT ORDINAL="3842" NAME="??_7TextField@ui@cocos2d@@6BLayoutParameterProtocol@12@@" PURGE="-1" COMMENT="" />
    <EXPORT ORDINAL="3843" NAME="??_7TextField@ui@cocos2d@@6BProtectedNode@2@@" PURGE="-1" COMMENT="" />
    <EXPORT ORDINAL="3844" NAME="??_7TextFieldDelegate@cocos2d@@6B@" PURGE="-1" COMMENT="" />
    <EXPORT ORDINAL="3845" NAME="??_7TextFieldReader@cocostudio@@6BNodeReaderProtocol@1@@" PURGE="-1" COMMENT="" />
    <EXPORT ORDINAL="3846" NAME="??_7TextFieldReader@cocostudio@@6BRef@cocos2d@@@" PURGE="-1" COMMENT="" />
    <EXPORT ORDINAL="3847" NAME="??_7TextFieldReader@cocostudio@@6BWidgetReaderProtocol@1@@" PURGE="-1" COMMENT="" />
    <EXPORT ORDINAL="3848" NAME="??_7TextFieldTTF@cocos2d@@6B@" PURGE="-1" COMMENT="" />
    <EXPORT ORDINAL="3849" NAME="??_7TextFieldTTF@cocos2d@@6BBlendProtocol@1@@" PURGE="-1" COMMENT="" />
    <EXPORT ORDINAL="3850" NAME="??_7TextFieldTTF@cocos2d@@6BLabelProtocol@1@@" PURGE="-1" COMMENT="" />
    <EXPORT ORDINAL="3851" NAME="??_7TextFieldTTF@cocos2d@@6BNode@1@@" PURGE="-1" COMMENT="" />
    <EXPORT ORDINAL="3852" NAME="??_7TextReader@cocostudio@@6BNodeReaderProtocol@1@@" PURGE="-1" COMMENT="" />
    <EXPORT ORDINAL="3853" NAME="??_7TextReader@cocostudio@@6BRef@cocos2d@@@" PURGE="-1" COMMENT="" />
    <EXPORT ORDINAL="3854" NAME="??_7TextReader@cocostudio@@6BWidgetReaderProtocol@1@@" PURGE="-1" COMMENT="" />
    <EXPORT ORDINAL="3855" NAME="??_7Texture2D@cocos2d@@6B@" PURGE="-1" COMMENT="" />
    <EXPORT ORDINAL="3856" NAME="??_7TextureAtlas@cocos2d@@6B@" PURGE="-1" COMMENT="" />
    <EXPORT ORDINAL="3857" NAME="??_7TextureCache@cocos2d@@6B@" PURGE="-1" COMMENT="" />
    <EXPORT ORDINAL="3858" NAME="??_7TextureCube@cocos2d@@6B@" PURGE="-1" COMMENT="" />
    <EXPORT ORDINAL="3859" NAME="??_7TextureData@cocostudio@@6B@" PURGE="-1" COMMENT="" />
    <EXPORT ORDINAL="3860" NAME="??_7TextureFrame@timeline@cocostudio@@6B@" PURGE="-1" COMMENT="" />
    <EXPORT ORDINAL="3861" NAME="??_7TextureProtocol@cocos2d@@6B@" PURGE="-1" COMMENT="" />
    <EXPORT ORDINAL="3862" NAME="??_7TileMapAtlas@cocos2d@@6BNode@1@@" PURGE="-1" COMMENT="" />
    <EXPORT ORDINAL="3863" NAME="??_7TileMapAtlas@cocos2d@@6BTextureProtocol@1@@" PURGE="-1" COMMENT="" />
    <EXPORT ORDINAL="3864" NAME="??_7TiledGrid3D@cocos2d@@6B@" PURGE="-1" COMMENT="" />
    <EXPORT ORDINAL="3865" NAME="??_7TiledGrid3DAction@cocos2d@@6BClonable@1@@" PURGE="-1" COMMENT="" />
    <EXPORT ORDINAL="3866" NAME="??_7TiledGrid3DAction@cocos2d@@6BRef@1@@" PURGE="-1" COMMENT="" />
    <EXPORT ORDINAL="3867" NAME="??_7Timeline@timeline@cocostudio@@6B@" PURGE="-1" COMMENT="" />
    <EXPORT ORDINAL="3868" NAME="??_7Timer@cocos2d@@6B@" PURGE="-1" COMMENT="" />
    <EXPORT ORDINAL="3869" NAME="??_7TimerScriptHandler@cocos2d@@6B@" PURGE="-1" COMMENT="" />
    <EXPORT ORDINAL="3870" NAME="??_7TimerTargetCallback@cocos2d@@6B@" PURGE="-1" COMMENT="" />
    <EXPORT ORDINAL="3871" NAME="??_7TimerTargetSelector@cocos2d@@6B@" PURGE="-1" COMMENT="" />
    <EXPORT ORDINAL="3872" NAME="??_7TintBy@cocos2d@@6BClonable@1@@" PURGE="-1" COMMENT="" />
    <EXPORT ORDINAL="3873" NAME="??_7TintBy@cocos2d@@6BRef@1@@" PURGE="-1" COMMENT="" />
    <EXPORT ORDINAL="3874" NAME="??_7TintTo@cocos2d@@6BClonable@1@@" PURGE="-1" COMMENT="" />
    <EXPORT ORDINAL="3875" NAME="??_7TintTo@cocos2d@@6BRef@1@@" PURGE="-1" COMMENT="" />
    <EXPORT ORDINAL="3876" NAME="??_7ToggleVisibility@cocos2d@@6BClonable@1@@" PURGE="-1" COMMENT="" />
    <EXPORT ORDINAL="3877" NAME="??_7ToggleVisibility@cocos2d@@6BRef@1@@" PURGE="-1" COMMENT="" />
    <EXPORT ORDINAL="3878" NAME="??_7Touch@cocos2d@@6B@" PURGE="-1" COMMENT="" />
    <EXPORT ORDINAL="3879" NAME="??_7TransitionCrossFade@cocos2d@@6B@" PURGE="-1" COMMENT="" />
    <EXPORT ORDINAL="3880" NAME="??_7TransitionEaseScene@cocos2d@@6B@" PURGE="-1" COMMENT="" />
    <EXPORT ORDINAL="3881" NAME="??_7TransitionFade@cocos2d@@6B@" PURGE="-1" COMMENT="" />
    <EXPORT ORDINAL="3882" NAME="??_7TransitionFadeBL@cocos2d@@6BTransitionEaseScene@1@@" PURGE="-1" COMMENT="" />
    <EXPORT ORDINAL="3883" NAME="??_7TransitionFadeBL@cocos2d@@6BTransitionScene@1@@" PURGE="-1" COMMENT="" />
    <EXPORT ORDINAL="3884" NAME="??_7TransitionFadeDown@cocos2d@@6BTransitionEaseScene@1@@" PURGE="-1" COMMENT="" />
    <EXPORT ORDINAL="3885" NAME="??_7TransitionFadeDown@cocos2d@@6BTransitionScene@1@@" PURGE="-1" COMMENT="" />
    <EXPORT ORDINAL="3886" NAME="??_7TransitionFadeTR@cocos2d@@6BTransitionEaseScene@1@@" PURGE="-1" COMMENT="" />
    <EXPORT ORDINAL="3887" NAME="??_7TransitionFadeTR@cocos2d@@6BTransitionScene@1@@" PURGE="-1" COMMENT="" />
    <EXPORT ORDINAL="3888" NAME="??_7TransitionFadeUp@cocos2d@@6BTransitionEaseScene@1@@" PURGE="-1" COMMENT="" />
    <EXPORT ORDINAL="3889" NAME="??_7TransitionFadeUp@cocos2d@@6BTransitionScene@1@@" PURGE="-1" COMMENT="" />
    <EXPORT ORDINAL="3890" NAME="??_7TransitionFlipAngular@cocos2d@@6B@" PURGE="-1" COMMENT="" />
    <EXPORT ORDINAL="3891" NAME="??_7TransitionFlipX@cocos2d@@6B@" PURGE="-1" COMMENT="" />
    <EXPORT ORDINAL="3892" NAME="??_7TransitionFlipY@cocos2d@@6B@" PURGE="-1" COMMENT="" />
    <EXPORT ORDINAL="3893" NAME="??_7TransitionJumpZoom@cocos2d@@6B@" PURGE="-1" COMMENT="" />
    <EXPORT ORDINAL="3894" NAME="??_7TransitionMoveInB@cocos2d@@6BTransitionEaseScene@1@@" PURGE="-1" COMMENT="" />
    <EXPORT ORDINAL="3895" NAME="??_7TransitionMoveInB@cocos2d@@6BTransitionScene@1@@" PURGE="-1" COMMENT="" />
    <EXPORT ORDINAL="3896" NAME="??_7TransitionMoveInL@cocos2d@@6BTransitionEaseScene@1@@" PURGE="-1" COMMENT="" />
    <EXPORT ORDINAL="3897" NAME="??_7TransitionMoveInL@cocos2d@@6BTransitionScene@1@@" PURGE="-1" COMMENT="" />
    <EXPORT ORDINAL="3898" NAME="??_7TransitionMoveInR@cocos2d@@6BTransitionEaseScene@1@@" PURGE="-1" COMMENT="" />
    <EXPORT ORDINAL="3899" NAME="??_7TransitionMoveInR@cocos2d@@6BTransitionScene@1@@" PURGE="-1" COMMENT="" />
    <EXPORT ORDINAL="3900" NAME="??_7TransitionMoveInT@cocos2d@@6BTransitionEaseScene@1@@" PURGE="-1" COMMENT="" />
    <EXPORT ORDINAL="3901" NAME="??_7TransitionMoveInT@cocos2d@@6BTransitionScene@1@@" PURGE="-1" COMMENT="" />
    <EXPORT ORDINAL="3902" NAME="??_7TransitionPageTurn@cocos2d@@6B@" PURGE="-1" COMMENT="" />
    <EXPORT ORDINAL="3903" NAME="??_7TransitionProgress@cocos2d@@6B@" PURGE="-1" COMMENT="" />
    <EXPORT ORDINAL="3904" NAME="??_7TransitionProgressHorizontal@cocos2d@@6B@" PURGE="-1" COMMENT="" />
    <EXPORT ORDINAL="3905" NAME="??_7TransitionProgressInOut@cocos2d@@6B@" PURGE="-1" COMMENT="" />
    <EXPORT ORDINAL="3906" NAME="??_7TransitionProgressOutIn@cocos2d@@6B@" PURGE="-1" COMMENT="" />
    <EXPORT ORDINAL="3907" NAME="??_7TransitionProgressRadialCCW@cocos2d@@6B@" PURGE="-1" COMMENT="" />
    <EXPORT ORDINAL="3908" NAME="??_7TransitionProgressRadialCW@cocos2d@@6B@" PURGE="-1" COMMENT="" />
    <EXPORT ORDINAL="3909" NAME="??_7TransitionProgressVertical@cocos2d@@6B@" PURGE="-1" COMMENT="" />
    <EXPORT ORDINAL="3910" NAME="??_7TransitionRotoZoom@cocos2d@@6B@" PURGE="-1" COMMENT="" />
    <EXPORT ORDINAL="3911" NAME="??_7TransitionScene@cocos2d@@6B@" PURGE="-1" COMMENT="" />
    <EXPORT ORDINAL="3912" NAME="??_7TransitionSceneOriented@cocos2d@@6B@" PURGE="-1" COMMENT="" />
    <EXPORT ORDINAL="3913" NAME="??_7TransitionShrinkGrow@cocos2d@@6BTransitionEaseScene@1@@" PURGE="-1" COMMENT="" />
    <EXPORT ORDINAL="3914" NAME="??_7TransitionShrinkGrow@cocos2d@@6BTransitionScene@1@@" PURGE="-1" COMMENT="" />
    <EXPORT ORDINAL="3915" NAME="??_7TransitionSlideInB@cocos2d@@6BTransitionEaseScene@1@@" PURGE="-1" COMMENT="" />
    <EXPORT ORDINAL="3916" NAME="??_7TransitionSlideInB@cocos2d@@6BTransitionScene@1@@" PURGE="-1" COMMENT="" />
    <EXPORT ORDINAL="3917" NAME="??_7TransitionSlideInL@cocos2d@@6BTransitionEaseScene@1@@" PURGE="-1" COMMENT="" />
    <EXPORT ORDINAL="3918" NAME="??_7TransitionSlideInL@cocos2d@@6BTransitionScene@1@@" PURGE="-1" COMMENT="" />
    <EXPORT ORDINAL="3919" NAME="??_7TransitionSlideInR@cocos2d@@6BTransitionEaseScene@1@@" PURGE="-1" COMMENT="" />
    <EXPORT ORDINAL="3920" NAME="??_7TransitionSlideInR@cocos2d@@6BTransitionScene@1@@" PURGE="-1" COMMENT="" />
    <EXPORT ORDINAL="3921" NAME="??_7TransitionSlideInT@cocos2d@@6BTransitionEaseScene@1@@" PURGE="-1" COMMENT="" />
    <EXPORT ORDINAL="3922" NAME="??_7TransitionSlideInT@cocos2d@@6BTransitionScene@1@@" PURGE="-1" COMMENT="" />
    <EXPORT ORDINAL="3923" NAME="??_7TransitionSplitCols@cocos2d@@6BTransitionEaseScene@1@@" PURGE="-1" COMMENT="" />
    <EXPORT ORDINAL="3924" NAME="??_7TransitionSplitCols@cocos2d@@6BTransitionScene@1@@" PURGE="-1" COMMENT="" />
    <EXPORT ORDINAL="3925" NAME="??_7TransitionSplitRows@cocos2d@@6BTransitionEaseScene@1@@" PURGE="-1" COMMENT="" />
    <EXPORT ORDINAL="3926" NAME="??_7TransitionSplitRows@cocos2d@@6BTransitionScene@1@@" PURGE="-1" COMMENT="" />
    <EXPORT ORDINAL="3927" NAME="??_7TransitionTurnOffTiles@cocos2d@@6BTransitionEaseScene@1@@" PURGE="-1" COMMENT="" />
    <EXPORT ORDINAL="3928" NAME="??_7TransitionTurnOffTiles@cocos2d@@6BTransitionScene@1@@" PURGE="-1" COMMENT="" />
    <EXPORT ORDINAL="3929" NAME="??_7TransitionZoomFlipAngular@cocos2d@@6B@" PURGE="-1" COMMENT="" />
    <EXPORT ORDINAL="3930" NAME="??_7TransitionZoomFlipX@cocos2d@@6B@" PURGE="-1" COMMENT="" />
    <EXPORT ORDINAL="3931" NAME="??_7TransitionZoomFlipY@cocos2d@@6B@" PURGE="-1" COMMENT="" />
    <EXPORT ORDINAL="3932" NAME="??_7TrianglesCommand@cocos2d@@6B@" PURGE="-1" COMMENT="" />
    <EXPORT ORDINAL="3933" NAME="??_7TriggerMng@cocostudio@@6B@" PURGE="-1" COMMENT="" />
    <EXPORT ORDINAL="3934" NAME="??_7TriggerObj@cocostudio@@6B@" PURGE="-1" COMMENT="" />
    <EXPORT ORDINAL="3935" NAME="??_7TurnOffTiles@cocos2d@@6BClonable@1@@" PURGE="-1" COMMENT="" />
    <EXPORT ORDINAL="3936" NAME="??_7TurnOffTiles@cocos2d@@6BRef@1@@" PURGE="-1" COMMENT="" />
    <EXPORT ORDINAL="3937" NAME="??_7Tween@cocostudio@@6B@" PURGE="-1" COMMENT="" />
    <EXPORT ORDINAL="3938" NAME="??_7Twirl@cocos2d@@6BClonable@1@@" PURGE="-1" COMMENT="" />
    <EXPORT ORDINAL="3939" NAME="??_7Twirl@cocos2d@@6BRef@1@@" PURGE="-1" COMMENT="" />
    <EXPORT ORDINAL="3940" NAME="??_7UICCTextField@ui@cocos2d@@6BBlendProtocol@2@@" PURGE="-1" COMMENT="" />
    <EXPORT ORDINAL="3941" NAME="??_7UICCTextField@ui@cocos2d@@6BLabelProtocol@2@@" PURGE="-1" COMMENT="" />
    <EXPORT ORDINAL="3942" NAME="??_7UICCTextField@ui@cocos2d@@6BNode@2@@" PURGE="-1" COMMENT="" />
    <EXPORT ORDINAL="3943" NAME="??_7UICCTextField@ui@cocos2d@@6BTextFieldDelegate@2@@" PURGE="-1" COMMENT="" />
    <EXPORT ORDINAL="3944" NAME="??_7UICCTextField@ui@cocos2d@@6BTextFieldTTF@2@@" PURGE="-1" COMMENT="" />
    <EXPORT ORDINAL="3945" NAME="??_7UserCameraReader@cocostudio@@6BNodeReaderProtocol@1@@" PURGE="-1" COMMENT="" />
    <EXPORT ORDINAL="3946" NAME="??_7UserCameraReader@cocostudio@@6BRef@cocos2d@@@" PURGE="-1" COMMENT="" />
    <EXPORT ORDINAL="3947" NAME="??_7UserDefault@cocos2d@@6B@" PURGE="-1" COMMENT="" />
    <EXPORT ORDINAL="3948" NAME="??_7VBox@ui@cocos2d@@6B@" PURGE="-1" COMMENT="" />
    <EXPORT ORDINAL="3949" NAME="??_7VBox@ui@cocos2d@@6BLayoutParameterProtocol@12@@" PURGE="-1" COMMENT="" />
    <EXPORT ORDINAL="3950" NAME="??_7VBox@ui@cocos2d@@6BProtectedNode@2@@" PURGE="-1" COMMENT="" />
    <EXPORT ORDINAL="3951" NAME="??_7VRGenericHeadTracker@cocos2d@@6B@" PURGE="-1" COMMENT="" />
    <EXPORT ORDINAL="3952" NAME="??_7VRGenericRenderer@cocos2d@@6B@" PURGE="-1" COMMENT="" />
    <EXPORT ORDINAL="3953" NAME="??_7VRIHeadTracker@cocos2d@@6B@" PURGE="-1" COMMENT="" />
    <EXPORT ORDINAL="3954" NAME="??_7VRIRenderer@cocos2d@@6B@" PURGE="-1" COMMENT="" />
    <EXPORT ORDINAL="3955" NAME="??_7VertexAttribBinding@cocos2d@@6B@" PURGE="-1" COMMENT="" />
    <EXPORT ORDINAL="3956" NAME="??_7VertexBuffer@cocos2d@@6B@" PURGE="-1" COMMENT="" />
    <EXPORT ORDINAL="3957" NAME="??_7VertexData@cocos2d@@6B@" PURGE="-1" COMMENT="" />
    <EXPORT ORDINAL="3958" NAME="??_7VideoPlayer@ui@experimental@cocos2d@@6BLayoutParameterProtocol@13@@" PURGE="-1" COMMENT="" />
    <EXPORT ORDINAL="3959" NAME="??_7VideoPlayer@ui@experimental@cocos2d@@6BProtectedNode@3@@" PURGE="-1" COMMENT="" />
    <EXPORT ORDINAL="3960" NAME="??_7VisibleFrame@timeline@cocostudio@@6B@" PURGE="-1" COMMENT="" />
    <EXPORT ORDINAL="3961" NAME="??_7Waves3D@cocos2d@@6BClonable@1@@" PURGE="-1" COMMENT="" />
    <EXPORT ORDINAL="3962" NAME="??_7Waves3D@cocos2d@@6BRef@1@@" PURGE="-1" COMMENT="" />
    <EXPORT ORDINAL="3963" NAME="??_7Waves@cocos2d@@6BClonable@1@@" PURGE="-1" COMMENT="" />
    <EXPORT ORDINAL="3964" NAME="??_7Waves@cocos2d@@6BRef@1@@" PURGE="-1" COMMENT="" />
    <EXPORT ORDINAL="3965" NAME="??_7WavesTiles3D@cocos2d@@6BClonable@1@@" PURGE="-1" COMMENT="" />
    <EXPORT ORDINAL="3966" NAME="??_7WavesTiles3D@cocos2d@@6BRef@1@@" PURGE="-1" COMMENT="" />
    <EXPORT ORDINAL="3967" NAME="??_7Widget@ui@cocos2d@@6BLayoutParameterProtocol@12@@" PURGE="-1" COMMENT="" />
    <EXPORT ORDINAL="3968" NAME="??_7Widget@ui@cocos2d@@6BProtectedNode@2@@" PURGE="-1" COMMENT="" />
    <EXPORT ORDINAL="3969" NAME="??_7WidgetCallBackHandlerProtocol@cocostudio@@6B@" PURGE="-1" COMMENT="" />
    <EXPORT ORDINAL="3970" NAME="??_7WidgetPropertiesReader0250@cocostudio@@6B@" PURGE="-1" COMMENT="" />
    <EXPORT ORDINAL="3971" NAME="??_7WidgetPropertiesReader0300@cocostudio@@6B@" PURGE="-1" COMMENT="" />
    <EXPORT ORDINAL="3972" NAME="??_7WidgetPropertiesReader@cocostudio@@6B@" PURGE="-1" COMMENT="" />
    <EXPORT ORDINAL="3973" NAME="??_7WidgetReader@cocostudio@@6BNodeReaderProtocol@1@@" PURGE="-1" COMMENT="" />
    <EXPORT ORDINAL="3974" NAME="??_7WidgetReader@cocostudio@@6BRef@cocos2d@@@" PURGE="-1" COMMENT="" />
    <EXPORT ORDINAL="3975" NAME="??_7WidgetReader@cocostudio@@6BWidgetReaderProtocol@1@@" PURGE="-1" COMMENT="" />
    <EXPORT ORDINAL="3976" NAME="??_7WidgetReaderProtocol@cocostudio@@6B@" PURGE="-1" COMMENT="" />
    <EXPORT ORDINAL="3977" NAME="??_7XMLAttribute@tinyxml2@@6B@" PURGE="-1" COMMENT="" />
    <EXPORT ORDINAL="3978" NAME="??_7XMLComment@tinyxml2@@6B@" PURGE="-1" COMMENT="" />
    <EXPORT ORDINAL="3979" NAME="??_7XMLDeclaration@tinyxml2@@6B@" PURGE="-1" COMMENT="" />
    <EXPORT ORDINAL="3980" NAME="??_7XMLDocument@tinyxml2@@6B@" PURGE="-1" COMMENT="" />
    <EXPORT ORDINAL="3981" NAME="??_7XMLElement@tinyxml2@@6B@" PURGE="-1" COMMENT="" />
    <EXPORT ORDINAL="3982" NAME="??_7XMLNode@tinyxml2@@6B@" PURGE="-1" COMMENT="" />
    <EXPORT ORDINAL="3983" NAME="??_7XMLPrinter@tinyxml2@@6B@" PURGE="-1" COMMENT="" />
    <EXPORT ORDINAL="3984" NAME="??_7XMLText@tinyxml2@@6B@" PURGE="-1" COMMENT="" />
    <EXPORT ORDINAL="3985" NAME="??_7XMLUnknown@tinyxml2@@6B@" PURGE="-1" COMMENT="" />
    <EXPORT ORDINAL="3986" NAME="??_7XMLVisitor@tinyxml2@@6B@" PURGE="-1" COMMENT="" />
    <EXPORT ORDINAL="3987" NAME="??_7ZOrderFrame@timeline@cocostudio@@6B@" PURGE="-1" COMMENT="" />
    <EXPORT ORDINAL="3988" NAME="??_7ZipFile@cocos2d@@6B@" PURGE="-1" COMMENT="" />
    <EXPORT ORDINAL="3989" NAME="??_7__Array@cocos2d@@6BClonable@1@@" PURGE="-1" COMMENT="" />
    <EXPORT ORDINAL="3990" NAME="??_7__Array@cocos2d@@6BRef@1@@" PURGE="-1" COMMENT="" />
    <EXPORT ORDINAL="3991" NAME="??_7__Bool@cocos2d@@6BClonable@1@@" PURGE="-1" COMMENT="" />
    <EXPORT ORDINAL="3992" NAME="??_7__Bool@cocos2d@@6BRef@1@@" PURGE="-1" COMMENT="" />
    <EXPORT ORDINAL="3993" NAME="??_7__CCCallFuncND@cocos2d@@6BClonable@1@@" PURGE="-1" COMMENT="" />
    <EXPORT ORDINAL="3994" NAME="??_7__CCCallFuncND@cocos2d@@6BRef@1@@" PURGE="-1" COMMENT="" />
    <EXPORT ORDINAL="3995" NAME="??_7__CCCallFuncO@cocos2d@@6BClonable@1@@" PURGE="-1" COMMENT="" />
    <EXPORT ORDINAL="3996" NAME="??_7__CCCallFuncO@cocos2d@@6BRef@1@@" PURGE="-1" COMMENT="" />
    <EXPORT ORDINAL="3997" NAME="??_7__Dictionary@cocos2d@@6BClonable@1@@" PURGE="-1" COMMENT="" />
    <EXPORT ORDINAL="3998" NAME="??_7__Dictionary@cocos2d@@6BRef@1@@" PURGE="-1" COMMENT="" />
    <EXPORT ORDINAL="3999" NAME="??_7__Double@cocos2d@@6BClonable@1@@" PURGE="-1" COMMENT="" />
    <EXPORT ORDINAL="4000" NAME="??_7__Double@cocos2d@@6BRef@1@@" PURGE="-1" COMMENT="" />
    <EXPORT ORDINAL="4001" NAME="??_7__Float@cocos2d@@6BClonable@1@@" PURGE="-1" COMMENT="" />
    <EXPORT ORDINAL="4002" NAME="??_7__Float@cocos2d@@6BRef@1@@" PURGE="-1" COMMENT="" />
    <EXPORT ORDINAL="4003" NAME="??_7__Integer@cocos2d@@6BClonable@1@@" PURGE="-1" COMMENT="" />
    <EXPORT ORDINAL="4004" NAME="??_7__Integer@cocos2d@@6BRef@1@@" PURGE="-1" COMMENT="" />
    <EXPORT ORDINAL="4005" NAME="??_7__LayerRGBA@cocos2d@@6BLayer@1@@" PURGE="-1" COMMENT="" />
    <EXPORT ORDINAL="4006" NAME="??_7__LayerRGBA@cocos2d@@6B__RGBAProtocol@1@@" PURGE="-1" COMMENT="" />
    <EXPORT ORDINAL="4007" NAME="??_7__NodeRGBA@cocos2d@@6BNode@1@@" PURGE="-1" COMMENT="" />
    <EXPORT ORDINAL="4008" NAME="??_7__NodeRGBA@cocos2d@@6B__RGBAProtocol@1@@" PURGE="-1" COMMENT="" />
    <EXPORT ORDINAL="4009" NAME="??_7__NotificationCenter@cocos2d@@6B@" PURGE="-1" COMMENT="" />
    <EXPORT ORDINAL="4010" NAME="??_7__RGBAProtocol@cocos2d@@6B@" PURGE="-1" COMMENT="" />
    <EXPORT ORDINAL="4011" NAME="??_7__Set@cocos2d@@6B@" PURGE="-1" COMMENT="" />
    <EXPORT ORDINAL="4012" NAME="??_7__String@cocos2d@@6BClonable@1@@" PURGE="-1" COMMENT="" />
    <EXPORT ORDINAL="4013" NAME="??_7__String@cocos2d@@6BRef@1@@" PURGE="-1" COMMENT="" />
    <EXPORT ORDINAL="4014" NAME="??_FAssetsManager@extension@cocos2d@@QAEXXZ" PURGE="0" COMMENT="" />
    <EXPORT ORDINAL="4015" NAME="??_FDrawNode@cocos2d@@QAEXXZ" PURGE="0" COMMENT="" />
    <EXPORT ORDINAL="4016" NAME="??_FFontFreeType@cocos2d@@QAEXXZ" PURGE="0" COMMENT="" />
    <EXPORT ORDINAL="4017" NAME="??_FGLViewImpl@cocos2d@@QAEXXZ" PURGE="0" COMMENT="" />
    <EXPORT ORDINAL="4018" NAME="??_FLabel@cocos2d@@QAEXXZ" PURGE="0" COMMENT="" />
    <EXPORT ORDINAL="4019" NAME="??_FManifest@extension@cocos2d@@QAEXXZ" PURGE="0" COMMENT="" />
    <EXPORT ORDINAL="4020" NAME="??_FPrettyPrinter@cocos2d@@QAEXXZ" PURGE="0" COMMENT="" />
    <EXPORT ORDINAL="4021" NAME="??_FXMLDocument@tinyxml2@@QAEXXZ" PURGE="0" COMMENT="" />
    <EXPORT ORDINAL="4022" NAME="??_FXMLPrinter@tinyxml2@@QAEXXZ" PURGE="0" COMMENT="" />
    <EXPORT ORDINAL="4023" NAME="?ADDITIVE@BlendFunc@cocos2d@@2U12@B" PURGE="-1" COMMENT="" />
    <EXPORT ORDINAL="4024" NAME="?ALPHA_NON_PREMULTIPLIED@BlendFunc@cocos2d@@2U12@B" PURGE="-1" COMMENT="" />
    <EXPORT ORDINAL="4025" NAME="?ALPHA_PREMULTIPLIED@BlendFunc@cocos2d@@2U12@B" PURGE="-1" COMMENT="" />
    <EXPORT ORDINAL="4026" NAME="?ANCHOR_BOTTOM_LEFT@Vec2@cocos2d@@2V12@B" PURGE="-1" COMMENT="" />
    <EXPORT ORDINAL="4027" NAME="?ANCHOR_BOTTOM_RIGHT@Vec2@cocos2d@@2V12@B" PURGE="-1" COMMENT="" />
    <EXPORT ORDINAL="4028" NAME="?ANCHOR_MIDDLE@Vec2@cocos2d@@2V12@B" PURGE="-1" COMMENT="" />
    <EXPORT ORDINAL="4029" NAME="?ANCHOR_MIDDLE_BOTTOM@Vec2@cocos2d@@2V12@B" PURGE="-1" COMMENT="" />
    <EXPORT ORDINAL="4030" NAME="?ANCHOR_MIDDLE_LEFT@Vec2@cocos2d@@2V12@B" PURGE="-1" COMMENT="" />
    <EXPORT ORDINAL="4031" NAME="?ANCHOR_MIDDLE_RIGHT@Vec2@cocos2d@@2V12@B" PURGE="-1" COMMENT="" />
    <EXPORT ORDINAL="4032" NAME="?ANCHOR_MIDDLE_TOP@Vec2@cocos2d@@2V12@B" PURGE="-1" COMMENT="" />
    <EXPORT ORDINAL="4033" NAME="?ANCHOR_TOP_LEFT@Vec2@cocos2d@@2V12@B" PURGE="-1" COMMENT="" />
    <EXPORT ORDINAL="4034" NAME="?ANCHOR_TOP_RIGHT@Vec2@cocos2d@@2V12@B" PURGE="-1" COMMENT="" />
    <EXPORT ORDINAL="4035" NAME="?ATTRIBUTE_NAME_BINORMAL@GLProgram@cocos2d@@2PBDB" PURGE="-1" COMMENT="" />
    <EXPORT ORDINAL="4036" NAME="?ATTRIBUTE_NAME_BLEND_INDEX@GLProgram@cocos2d@@2PBDB" PURGE="-1" COMMENT="" />
    <EXPORT ORDINAL="4037" NAME="?ATTRIBUTE_NAME_BLEND_WEIGHT@GLProgram@cocos2d@@2PBDB" PURGE="-1" COMMENT="" />
    <EXPORT ORDINAL="4038" NAME="?ATTRIBUTE_NAME_COLOR@GLProgram@cocos2d@@2PBDB" PURGE="-1" COMMENT="" />
    <EXPORT ORDINAL="4039" NAME="?ATTRIBUTE_NAME_NORMAL@GLProgram@cocos2d@@2PBDB" PURGE="-1" COMMENT="" />
    <EXPORT ORDINAL="4040" NAME="?ATTRIBUTE_NAME_POSITION@GLProgram@cocos2d@@2PBDB" PURGE="-1" COMMENT="" />
    <EXPORT ORDINAL="4041" NAME="?ATTRIBUTE_NAME_TANGENT@GLProgram@cocos2d@@2PBDB" PURGE="-1" COMMENT="" />
    <EXPORT ORDINAL="4042" NAME="?ATTRIBUTE_NAME_TEX_COORD1@GLProgram@cocos2d@@2PBDB" PURGE="-1" COMMENT="" />
    <EXPORT ORDINAL="4043" NAME="?ATTRIBUTE_NAME_TEX_COORD2@GLProgram@cocos2d@@2PBDB" PURGE="-1" COMMENT="" />
    <EXPORT ORDINAL="4044" NAME="?ATTRIBUTE_NAME_TEX_COORD3@GLProgram@cocos2d@@2PBDB" PURGE="-1" COMMENT="" />
    <EXPORT ORDINAL="4045" NAME="?ATTRIBUTE_NAME_TEX_COORD@GLProgram@cocos2d@@2PBDB" PURGE="-1" COMMENT="" />
    <EXPORT ORDINAL="4046" NAME="?Accept@XMLComment@tinyxml2@@UBE_NPAVXMLVisitor@2@@Z" PURGE="4" COMMENT="" />
    <EXPORT ORDINAL="4047" NAME="?Accept@XMLDeclaration@tinyxml2@@UBE_NPAVXMLVisitor@2@@Z" PURGE="4" COMMENT="" />
    <EXPORT ORDINAL="4048" NAME="?Accept@XMLDocument@tinyxml2@@UBE_NPAVXMLVisitor@2@@Z" PURGE="4" COMMENT="" />
    <EXPORT ORDINAL="4049" NAME="?Accept@XMLElement@tinyxml2@@UBE_NPAVXMLVisitor@2@@Z" PURGE="4" COMMENT="" />
    <EXPORT ORDINAL="4050" NAME="?Accept@XMLText@tinyxml2@@UBE_NPAVXMLVisitor@2@@Z" PURGE="4" COMMENT="" />
    <EXPORT ORDINAL="4051" NAME="?Accept@XMLUnknown@tinyxml2@@UBE_NPAVXMLVisitor@2@@Z" PURGE="4" COMMENT="" />
    <EXPORT ORDINAL="4052" NAME="?AffineTransformConcat@cocos2d@@YA?AUAffineTransform@1@ABU21@0@Z" PURGE="0" COMMENT="" />
    <EXPORT ORDINAL="4053" NAME="?AffineTransformEqualToTransform@cocos2d@@YA_NABUAffineTransform@1@0@Z" PURGE="0" COMMENT="" />
    <EXPORT ORDINAL="4054" NAME="?AffineTransformIdentity@cocos2d@@3UAffineTransform@1@B" PURGE="-1" COMMENT="" />
    <EXPORT ORDINAL="4055" NAME="?AffineTransformInvert@cocos2d@@YA?AUAffineTransform@1@ABU21@@Z" PURGE="0" COMMENT="" />
    <EXPORT ORDINAL="4056" NAME="?AffineTransformMakeIdentity@cocos2d@@YA?AUAffineTransform@1@XZ" PURGE="0" COMMENT="" />
    <EXPORT ORDINAL="4057" NAME="?AffineTransformRotate@cocos2d@@YA?AUAffineTransform@1@ABU21@M@Z" PURGE="0" COMMENT="" />
    <EXPORT ORDINAL="4058" NAME="?AffineTransformScale@cocos2d@@YA?AUAffineTransform@1@ABU21@MM@Z" PURGE="0" COMMENT="" />
    <EXPORT ORDINAL="4059" NAME="?AffineTransformTranslate@cocos2d@@YA?AUAffineTransform@1@ABU21@MM@Z" PURGE="0" COMMENT="" />
    <EXPORT ORDINAL="4060" NAME="?Alloc@?$MemPoolT@$0CE@@tinyxml2@@UAEPAXXZ" PURGE="0" COMMENT="" />
    <EXPORT ORDINAL="4061" NAME="?Alloc@?$MemPoolT@$0CM@@tinyxml2@@UAEPAXXZ" PURGE="0" COMMENT="" />
    <EXPORT ORDINAL="4062" NAME="?Alloc@?$MemPoolT@$0DA@@tinyxml2@@UAEPAXXZ" PURGE="0" COMMENT="" />
    <EXPORT ORDINAL="4063" NAME="?Alloc@?$MemPoolT@$0DE@@tinyxml2@@UAEPAXXZ" PURGE="0" COMMENT="" />
    <EXPORT ORDINAL="4064" NAME="?AnimationAllName@InnerActionFrame@timeline@cocostudio@@2V?$basic_string@DU?$char_traits@D@std@@V?$allocator@D@2@@std@@B" PURGE="-1" COMMENT="" />
    <EXPORT ORDINAL="4065" NAME="?Attribute@XMLElement@tinyxml2@@QBEPBDPBD0@Z" PURGE="8" COMMENT="" />
    <EXPORT ORDINAL="4066" NAME="?BATCH_TRIAGCOMMAND_RESERVED_SIZE@Renderer@cocos2d@@2HB" PURGE="-1" COMMENT="" />
    <EXPORT ORDINAL="4067" NAME="?BLACK@Color3B@cocos2d@@2U12@B" PURGE="-1" COMMENT="" />
    <EXPORT ORDINAL="4068" NAME="?BLACK@Color4B@cocos2d@@2U12@B" PURGE="-1" COMMENT="" />
    <EXPORT ORDINAL="4069" NAME="?BLACK@Color4F@cocos2d@@2U12@B" PURGE="-1" COMMENT="" />
    <EXPORT ORDINAL="4070" NAME="?BLUE@Color3B@cocos2d@@2U12@B" PURGE="-1" COMMENT="" />
    <EXPORT ORDINAL="4071" NAME="?BLUE@Color4B@cocos2d@@2U12@B" PURGE="-1" COMMENT="" />
    <EXPORT ORDINAL="4072" NAME="?BLUE@Color4F@cocos2d@@2U12@B" PURGE="-1" COMMENT="" />
    <EXPORT ORDINAL="4073" NAME="?BoolAttribute@XMLElement@tinyxml2@@QBE_NPBD@Z" PURGE="4" COMMENT="" />
    <EXPORT ORDINAL="4074" NAME="?BoolValue@XMLAttribute@tinyxml2@@QBE_NXZ" PURGE="0" COMMENT="" />
    <EXPORT ORDINAL="4075" NAME="?CC_INVALID_INDEX@cocos2d@@3JB" PURGE="-1" COMMENT="" />
    <EXPORT ORDINAL="4076" NAME="?CData@XMLText@tinyxml2@@QBE_NXZ" PURGE="0" COMMENT="" />
    <EXPORT ORDINAL="4077" NAME="?CGAffineToGL@cocos2d@@YAXABUAffineTransform@1@PAM@Z" PURGE="0" COMMENT="" />
    <EXPORT ORDINAL="4078" NAME="?CMD_PURGE_FONTATLAS@FontAtlas@cocos2d@@2PBDB" PURGE="-1" COMMENT="" />
    <EXPORT ORDINAL="4079" NAME="?CMD_RESET_FONTATLAS@FontAtlas@cocos2d@@2PBDB" PURGE="-1" COMMENT="" />
    <EXPORT ORDINAL="4080" NAME="?COMPONENT_NAME@ComAttribute@cocostudio@@2V?$basic_string@DU?$char_traits@D@std@@V?$allocator@D@2@@std@@B" PURGE="-1" COMMENT="" />
    <EXPORT ORDINAL="4081" NAME="?COMPONENT_NAME@ComAudio@cocostudio@@2V?$basic_string@DU?$char_traits@D@std@@V?$allocator@D@2@@std@@B" PURGE="-1" COMMENT="" />
    <EXPORT ORDINAL="4082" NAME="?COMPONENT_NAME@ComController@cocostudio@@2V?$basic_string@DU?$char_traits@D@std@@V?$allocator@D@2@@std@@B" PURGE="-1" COMMENT="" />
    <EXPORT ORDINAL="4083" NAME="?COMPONENT_NAME@ComExtensionData@cocostudio@@2V?$basic_string@DU?$char_traits@D@std@@V?$allocator@D@2@@std@@B" PURGE="-1" COMMENT="" />
    <EXPORT ORDINAL="4084" NAME="?COMPONENT_NAME@ComRender@cocostudio@@2V?$basic_string@DU?$char_traits@D@std@@V?$allocator@D@2@@std@@B" PURGE="-1" COMMENT="" />
    <EXPORT ORDINAL="4085" NAME="?COMPONENT_NAME@PhysicsBody@cocos2d@@2V?$basic_string@DU?$char_traits@D@std@@V?$allocator@D@2@@std@@B" PURGE="-1" COMMENT="" />
    <EXPORT ORDINAL="4086" NAME="?CONFIG_FILE_LOADED@Configuration@cocos2d@@2PBDB" PURGE="-1" COMMENT="" />
    <EXPORT ORDINAL="4087" NAME="?CStr@XMLPrinter@tinyxml2@@QBEPBDXZ" PURGE="0" COMMENT="" />
    <EXPORT ORDINAL="4088" NAME="?CStrSize@XMLPrinter@tinyxml2@@QBEHXZ" PURGE="0" COMMENT="" />
    <EXPORT ORDINAL="4089" NAME="?CacheTextureHeight@FontAtlas@cocos2d@@2HB" PURGE="-1" COMMENT="" />
    <EXPORT ORDINAL="4090" NAME="?CacheTextureWidth@FontAtlas@cocos2d@@2HB" PURGE="-1" COMMENT="" />
    <EXPORT ORDINAL="4091" NAME="?Capacity@?$DynArray@D$0BE@@tinyxml2@@QBEHXZ" PURGE="0" COMMENT="" />
    <EXPORT ORDINAL="4092" NAME="?CloseElement@XMLPrinter@tinyxml2@@QAEXXZ" PURGE="0" COMMENT="" />
    <EXPORT ORDINAL="4093" NAME="?ClosingType@XMLElement@tinyxml2@@QBEHXZ" PURGE="0" COMMENT="" />
    <EXPORT ORDINAL="4094" NAME="?CocosGUIVersion@ui@cocos2d@@YAPBDXZ" PURGE="0" COMMENT="" />
    <EXPORT ORDINAL="4095" NAME="?CollapseWhitespace@StrPair@tinyxml2@@AAEXXZ" PURGE="0" COMMENT="" />
    <EXPORT ORDINAL="4096" NAME="?ConvertUTF32ToUTF8@XMLUtil@tinyxml2@@SAXKPADPAH@Z" PURGE="0" COMMENT="" />
    <EXPORT ORDINAL="4097" NAME="?DEBUGDRAW_ALL@PhysicsWorld@cocos2d@@2HB" PURGE="-1" COMMENT="" />
    <EXPORT ORDINAL="4098" NAME="?DEBUGDRAW_CONTACT@PhysicsWorld@cocos2d@@2HB" PURGE="-1" COMMENT="" />
    <EXPORT ORDINAL="4099" NAME="?DEBUGDRAW_JOINT@PhysicsWorld@cocos2d@@2HB" PURGE="-1" COMMENT="" />
    <EXPORT ORDINAL="4100" NAME="?DEBUGDRAW_NONE@PhysicsWorld@cocos2d@@2HB" PURGE="-1" COMMENT="" />
    <EXPORT ORDINAL="4101" NAME="?DEBUGDRAW_SHAPE@PhysicsWorld@cocos2d@@2HB" PURGE="-1" COMMENT="" />
    <EXPORT ORDINAL="4102" NAME="?DEFAULT_ACCELERATION@PUJetAffector@cocos2d@@2MB" PURGE="-1" COMMENT="" />
    <EXPORT ORDINAL="4103" NAME="?DEFAULT_ADJUSTMENT@PUParticle3DInterParticleCollider@cocos2d@@2MB" PURGE="-1" COMMENT="" />
    <EXPORT ORDINAL="4104" NAME="?DEFAULT_AMPLITUDE@PUForceFieldAffector@cocos2d@@2NB" PURGE="-1" COMMENT="" />
    <EXPORT ORDINAL="4105" NAME="?DEFAULT_ANGLE@PUCircleEmitter@cocos2d@@2MB" PURGE="-1" COMMENT="" />
    <EXPORT ORDINAL="4106" NAME="?DEFAULT_ANGLE@PUEmitter@cocos2d@@2MB" PURGE="-1" COMMENT="" />
    <EXPORT ORDINAL="4107" NAME="?DEFAULT_ANIMATION_TYPE@PUTextureAnimator@cocos2d@@2W4TextureAnimationType@12@B" PURGE="-1" COMMENT="" />
    <EXPORT ORDINAL="4108" NAME="?DEFAULT_AUTO_DIRECTION@PUEmitter@cocos2d@@2_NB" PURGE="-1" COMMENT="" />
    <EXPORT ORDINAL="4109" NAME="?DEFAULT_BOUNCYNESS@PUBaseCollider@cocos2d@@2MB" PURGE="-1" COMMENT="" />
    <EXPORT ORDINAL="4110" NAME="?DEFAULT_CAPACITY@SpriteBatchNode@cocos2d@@0HB" PURGE="-1" COMMENT="" />
    <EXPORT ORDINAL="4111" NAME="?DEFAULT_COLLISION_RESPONSE@PUParticle3DInterParticleCollider@cocos2d@@2W4InterParticleCollisionResponse@12@B" PURGE="-1" COMMENT="" />
    <EXPORT ORDINAL="4112" NAME="?DEFAULT_COLLISION_TYPE@PUBaseCollider@cocos2d@@2W4CollisionType@12@B" PURGE="-1" COMMENT="" />
    <EXPORT ORDINAL="4113" NAME="?DEFAULT_COLOR_OPERATION@PUColorAffector@cocos2d@@2W4ColorOperation@12@B" PURGE="-1" COMMENT="" />
    <EXPORT ORDINAL="4114" NAME="?DEFAULT_COLOUR@PUEmitter@cocos2d@@2VVec4@2@B" PURGE="-1" COMMENT="" />
    <EXPORT ORDINAL="4115" NAME="?DEFAULT_COLOUR_CHANGE@PURibbonTrailRender@cocos2d@@2VVec4@2@B" PURGE="-1" COMMENT="" />
    <EXPORT ORDINAL="4116" NAME="?DEFAULT_COMPARE@PUOnCountObserver@cocos2d@@2W4PUComparisionOperator@2@B" PURGE="-1" COMMENT="" />
    <EXPORT ORDINAL="4117" NAME="?DEFAULT_DELTA@PUForceFieldAffector@cocos2d@@2MB" PURGE="-1" COMMENT="" />
    <EXPORT ORDINAL="4118" NAME="?DEFAULT_DEPTH@CCPUBoxEmitter@cocos2d@@2MB" PURGE="-1" COMMENT="" />
    <EXPORT ORDINAL="4119" NAME="?DEFAULT_DEPTH@PUBoxCollider@cocos2d@@2MB" PURGE="-1" COMMENT="" />
    <EXPORT ORDINAL="4120" NAME="?DEFAULT_DEPTH@PUEmitter@cocos2d@@2MB" PURGE="-1" COMMENT="" />
    <EXPORT ORDINAL="4121" NAME="?DEFAULT_DEPTH@PUParticleSystem3D@cocos2d@@2MB" PURGE="-1" COMMENT="" />
    <EXPORT ORDINAL="4122" NAME="?DEFAULT_DEVIATION@PUBeamRender@cocos2d@@2MB" PURGE="-1" COMMENT="" />
    <EXPORT ORDINAL="4123" NAME="?DEFAULT_DIMENSIONS@PUEmitter@cocos2d@@2MB" PURGE="-1" COMMENT="" />
    <EXPORT ORDINAL="4124" NAME="?DEFAULT_DIRECTION@PUEmitter@cocos2d@@2VVec3@2@B" PURGE="-1" COMMENT="" />
    <EXPORT ORDINAL="4125" NAME="?DEFAULT_DISTRIBUTION@PUMeshSurfaceEmitter@cocos2d@@2W4MeshSurfaceDistribution@MeshInfo@2@B" PURGE="-1" COMMENT="" />
    <EXPORT ORDINAL="4126" NAME="?DEFAULT_DRIFT@PULineAffector@cocos2d@@2MB" PURGE="-1" COMMENT="" />
    <EXPORT ORDINAL="4127" NAME="?DEFAULT_DURATION@PUEmitter@cocos2d@@2MB" PURGE="-1" COMMENT="" />
    <EXPORT ORDINAL="4128" NAME="?DEFAULT_EMISSION_RATE@PUEmitter@cocos2d@@2MB" PURGE="-1" COMMENT="" />
    <EXPORT ORDINAL="4129" NAME="?DEFAULT_EMITTED_EMITTER_QUOTA@PUParticleSystem3D@cocos2d@@2IB" PURGE="-1" COMMENT="" />
    <EXPORT ORDINAL="4130" NAME="?DEFAULT_EMITTED_SYSTEM_QUOTA@PUParticleSystem3D@cocos2d@@2IB" PURGE="-1" COMMENT="" />
    <EXPORT ORDINAL="4131" NAME="?DEFAULT_ENABLED@PUEmitter@cocos2d@@2_NB" PURGE="-1" COMMENT="" />
    <EXPORT ORDINAL="4132" NAME="?DEFAULT_ENABLED@PUObserver@cocos2d@@2_NB" PURGE="-1" COMMENT="" />
    <EXPORT ORDINAL="4133" NAME="?DEFAULT_END@PULineAffector@cocos2d@@2VVec3@2@B" PURGE="-1" COMMENT="" />
    <EXPORT ORDINAL="4134" NAME="?DEFAULT_END@PULineEmitter@cocos2d@@2VVec3@2@B" PURGE="-1" COMMENT="" />
    <EXPORT ORDINAL="4135" NAME="?DEFAULT_END_COLOUR_RANGE@PUEmitter@cocos2d@@2VVec4@2@B" PURGE="-1" COMMENT="" />
    <EXPORT ORDINAL="4136" NAME="?DEFAULT_END_TEXTURE_COORDS@PUEmitter@cocos2d@@2GB" PURGE="-1" COMMENT="" />
    <EXPORT ORDINAL="4137" NAME="?DEFAULT_EVENT_FLAG@PUOnEventFlagObserver@cocos2d@@2IB" PURGE="-1" COMMENT="" />
    <EXPORT ORDINAL="4138" NAME="?DEFAULT_FORCE@PUForceFieldAffector@cocos2d@@2MB" PURGE="-1" COMMENT="" />
    <EXPORT ORDINAL="4139" NAME="?DEFAULT_FORCEFIELDSIZE@PUForceFieldAffector@cocos2d@@2IB" PURGE="-1" COMMENT="" />
    <EXPORT ORDINAL="4140" NAME="?DEFAULT_FORCEFIELD_TYPE@PUForceFieldAffector@cocos2d@@2W4ForceFieldType@PUForceField@2@B" PURGE="-1" COMMENT="" />
    <EXPORT ORDINAL="4141" NAME="?DEFAULT_FORCE_APPL@PUBaseForceAffector@cocos2d@@2W4ForceApplication@12@B" PURGE="-1" COMMENT="" />
    <EXPORT ORDINAL="4142" NAME="?DEFAULT_FORCE_EMISSION@PUEmitter@cocos2d@@2_NB" PURGE="-1" COMMENT="" />
    <EXPORT ORDINAL="4143" NAME="?DEFAULT_FORCE_VECTOR@PUBaseForceAffector@cocos2d@@2VVec3@2@B" PURGE="-1" COMMENT="" />
    <EXPORT ORDINAL="4144" NAME="?DEFAULT_FREQUENCY@PUForceFieldAffector@cocos2d@@2NB" PURGE="-1" COMMENT="" />
    <EXPORT ORDINAL="4145" NAME="?DEFAULT_FREQ_MAX@PUSineForceAffector@cocos2d@@2MB" PURGE="-1" COMMENT="" />
    <EXPORT ORDINAL="4146" NAME="?DEFAULT_FREQ_MIN@PUSineForceAffector@cocos2d@@2MB" PURGE="-1" COMMENT="" />
    <EXPORT ORDINAL="4147" NAME="?DEFAULT_FRICTION@PUBaseCollider@cocos2d@@2MB" PURGE="-1" COMMENT="" />
    <EXPORT ORDINAL="4148" NAME="?DEFAULT_GRAVITY@PUGravityAffector@cocos2d@@2MB" PURGE="-1" COMMENT="" />
    <EXPORT ORDINAL="4149" NAME="?DEFAULT_HEIGHT@CCPUBoxEmitter@cocos2d@@2MB" PURGE="-1" COMMENT="" />
    <EXPORT ORDINAL="4150" NAME="?DEFAULT_HEIGHT@PUBoxCollider@cocos2d@@2MB" PURGE="-1" COMMENT="" />
    <EXPORT ORDINAL="4151" NAME="?DEFAULT_HEIGHT@PUEmitter@cocos2d@@2MB" PURGE="-1" COMMENT="" />
    <EXPORT ORDINAL="4152" NAME="?DEFAULT_HEIGHT@PUParticleSystem3D@cocos2d@@2MB" PURGE="-1" COMMENT="" />
    <EXPORT ORDINAL="4153" NAME="?DEFAULT_INITIAL_COLOUR@PURibbonTrailRender@cocos2d@@2VVec4@2@B" PURGE="-1" COMMENT="" />
    <EXPORT ORDINAL="4154" NAME="?DEFAULT_INTERSECTION_TYPE@PUBaseCollider@cocos2d@@2W4IntersectionType@12@B" PURGE="-1" COMMENT="" />
    <EXPORT ORDINAL="4155" NAME="?DEFAULT_INTERVAL@PUObserver@cocos2d@@2MB" PURGE="-1" COMMENT="" />
    <EXPORT ORDINAL="4156" NAME="?DEFAULT_KEEP_LOCAL@PUEmitter@cocos2d@@2_NB" PURGE="-1" COMMENT="" />
    <EXPORT ORDINAL="4157" NAME="?DEFAULT_LENGTH@PURibbonTrailRender@cocos2d@@2MB" PURGE="-1" COMMENT="" />
    <EXPORT ORDINAL="4158" NAME="?DEFAULT_MASS@PUEmitter@cocos2d@@2MB" PURGE="-1" COMMENT="" />
    <EXPORT ORDINAL="4159" NAME="?DEFAULT_MASS@PUParticle3D@cocos2d@@2MA" PURGE="-1" COMMENT="" />
    <EXPORT ORDINAL="4160" NAME="?DEFAULT_MAX_DEVIATION@PULineAffector@cocos2d@@2MB" PURGE="-1" COMMENT="" />
    <EXPORT ORDINAL="4161" NAME="?DEFAULT_MAX_DEVIATION@PULineEmitter@cocos2d@@2MB" PURGE="-1" COMMENT="" />
    <EXPORT ORDINAL="4162" NAME="?DEFAULT_MAX_DEVIATION@PURandomiser@cocos2d@@2VVec3@2@B" PURGE="-1" COMMENT="" />
    <EXPORT ORDINAL="4163" NAME="?DEFAULT_MAX_DISTANCE@PUParticleFollower@cocos2d@@2MB" PURGE="-1" COMMENT="" />
    <EXPORT ORDINAL="4164" NAME="?DEFAULT_MAX_ELEMENTS@PUBeamRender@cocos2d@@2IB" PURGE="-1" COMMENT="" />
    <EXPORT ORDINAL="4165" NAME="?DEFAULT_MAX_ELEMENTS@PURibbonTrailRender@cocos2d@@2IB" PURGE="-1" COMMENT="" />
    <EXPORT ORDINAL="4166" NAME="?DEFAULT_MAX_INCREMENT@PULineEmitter@cocos2d@@2MB" PURGE="-1" COMMENT="" />
    <EXPORT ORDINAL="4167" NAME="?DEFAULT_MAX_VELOCITY@PUParticleSystem3D@cocos2d@@2MB" PURGE="-1" COMMENT="" />
    <EXPORT ORDINAL="4168" NAME="?DEFAULT_MIN_DISTANCE@PUParticleFollower@cocos2d@@2MB" PURGE="-1" COMMENT="" />
    <EXPORT ORDINAL="4169" NAME="?DEFAULT_MIN_INCREMENT@PULineEmitter@cocos2d@@2MB" PURGE="-1" COMMENT="" />
    <EXPORT ORDINAL="4170" NAME="?DEFAULT_MOVEMENT@PUForceFieldAffector@cocos2d@@2VVec3@2@B" PURGE="-1" COMMENT="" />
    <EXPORT ORDINAL="4171" NAME="?DEFAULT_MOVEMENT_FREQUENCY@PUForceFieldAffector@cocos2d@@2MB" PURGE="-1" COMMENT="" />
    <EXPORT ORDINAL="4172" NAME="?DEFAULT_NORMAL@PUCircleEmitter@cocos2d@@2VVec3@2@B" PURGE="-1" COMMENT="" />
    <EXPORT ORDINAL="4173" NAME="?DEFAULT_NORMAL@PUPlaneCollider@cocos2d@@2VVec3@2@B" PURGE="-1" COMMENT="" />
    <EXPORT ORDINAL="4174" NAME="?DEFAULT_NUMBER_OF_PARTICLES@PUDoPlacementParticleEventHandler@cocos2d@@2IB" PURGE="-1" COMMENT="" />
    <EXPORT ORDINAL="4175" NAME="?DEFAULT_NUMBER_OF_SEGMENTS@PUBeamRender@cocos2d@@2IB" PURGE="-1" COMMENT="" />
    <EXPORT ORDINAL="4176" NAME="?DEFAULT_OCTAVES@PUForceFieldAffector@cocos2d@@2GB" PURGE="-1" COMMENT="" />
    <EXPORT ORDINAL="4177" NAME="?DEFAULT_ORIENTATION@PUEmitter@cocos2d@@2VQuaternion@2@B" PURGE="-1" COMMENT="" />
    <EXPORT ORDINAL="4178" NAME="?DEFAULT_ORIENTATION_RANGE_END@PUEmitter@cocos2d@@2VQuaternion@2@B" PURGE="-1" COMMENT="" />
    <EXPORT ORDINAL="4179" NAME="?DEFAULT_ORIENTATION_RANGE_START@PUEmitter@cocos2d@@2VQuaternion@2@B" PURGE="-1" COMMENT="" />
    <EXPORT ORDINAL="4180" NAME="?DEFAULT_PARTICLE_QUOTA@PUParticleSystem3D@cocos2d@@2IB" PURGE="-1" COMMENT="" />
    <EXPORT ORDINAL="4181" NAME="?DEFAULT_PARTICLE_TYPE@PUObserver@cocos2d@@2W4ParticleType@PUParticle3D@2@B" PURGE="-1" COMMENT="" />
    <EXPORT ORDINAL="4182" NAME="?DEFAULT_PERSISTENCE@PUForceFieldAffector@cocos2d@@2NB" PURGE="-1" COMMENT="" />
    <EXPORT ORDINAL="4183" NAME="?DEFAULT_POSITION@PUEmitter@cocos2d@@2VVec3@2@B" PURGE="-1" COMMENT="" />
    <EXPORT ORDINAL="4184" NAME="?DEFAULT_POSITION_THRESHOLD@PUOnPositionObserver@cocos2d@@2VVec3@2@B" PURGE="-1" COMMENT="" />
    <EXPORT ORDINAL="4185" NAME="?DEFAULT_PRE_POST@PUDoAffectorEventHandler@cocos2d@@2_NB" PURGE="-1" COMMENT="" />
    <EXPORT ORDINAL="4186" NAME="?DEFAULT_RADIUS@PUCircleEmitter@cocos2d@@2MB" PURGE="-1" COMMENT="" />
    <EXPORT ORDINAL="4187" NAME="?DEFAULT_RADIUS@PUCollisionAvoidanceAffector@cocos2d@@2MB" PURGE="-1" COMMENT="" />
    <EXPORT ORDINAL="4188" NAME="?DEFAULT_RADIUS@PUSphereCollider@cocos2d@@2MB" PURGE="-1" COMMENT="" />
    <EXPORT ORDINAL="4189" NAME="?DEFAULT_RADIUS@PUSphereSurfaceEmitter@cocos2d@@2MB" PURGE="-1" COMMENT="" />
    <EXPORT ORDINAL="4190" NAME="?DEFAULT_RADIUS@PUVelocityMatchingAffector@cocos2d@@2MB" PURGE="-1" COMMENT="" />
    <EXPORT ORDINAL="4191" NAME="?DEFAULT_RANDOM@PUCircleEmitter@cocos2d@@2_NB" PURGE="-1" COMMENT="" />
    <EXPORT ORDINAL="4192" NAME="?DEFAULT_RANDOMIZE@PUPositionEmitter@cocos2d@@2_NB" PURGE="-1" COMMENT="" />
    <EXPORT ORDINAL="4193" NAME="?DEFAULT_RANDOM_DIRECTION@PURandomiser@cocos2d@@2_NB" PURGE="-1" COMMENT="" />
    <EXPORT ORDINAL="4194" NAME="?DEFAULT_RANDOM_INITIAL_COLOUR@PURibbonTrailRender@cocos2d@@2_NB" PURGE="-1" COMMENT="" />
    <EXPORT ORDINAL="4195" NAME="?DEFAULT_REPEAT_DELAY@PUEmitter@cocos2d@@2MB" PURGE="-1" COMMENT="" />
    <EXPORT ORDINAL="4196" NAME="?DEFAULT_RESIZE@PUAlignAffector@cocos2d@@2_NB" PURGE="-1" COMMENT="" />
    <EXPORT ORDINAL="4197" NAME="?DEFAULT_ROTATION@PUTextureRotator@cocos2d@@2MB" PURGE="-1" COMMENT="" />
    <EXPORT ORDINAL="4198" NAME="?DEFAULT_ROTATION_AXIS@PUGeometryRotator@cocos2d@@2VVec3@2@B" PURGE="-1" COMMENT="" />
    <EXPORT ORDINAL="4199" NAME="?DEFAULT_ROTATION_SPEED@PUGeometryRotator@cocos2d@@2MB" PURGE="-1" COMMENT="" />
    <EXPORT ORDINAL="4200" NAME="?DEFAULT_ROTATION_SPEED@PUTextureRotator@cocos2d@@2MB" PURGE="-1" COMMENT="" />
    <EXPORT ORDINAL="4201" NAME="?DEFAULT_ROTATION_SPEED@PUVortexAffector@cocos2d@@2MB" PURGE="-1" COMMENT="" />
    <EXPORT ORDINAL="4202" NAME="?DEFAULT_ROTATION_VECTOR@PUVortexAffector@cocos2d@@2VVec3@2@B" PURGE="-1" COMMENT="" />
    <EXPORT ORDINAL="4203" NAME="?DEFAULT_SCALE@PUMeshSurfaceEmitter@cocos2d@@2VVec3@2@B" PURGE="-1" COMMENT="" />
    <EXPORT ORDINAL="4204" NAME="?DEFAULT_SCALE_FRACTION@PUDoScaleEventHandler@cocos2d@@2MB" PURGE="-1" COMMENT="" />
    <EXPORT ORDINAL="4205" NAME="?DEFAULT_SCALE_TYPE@PUDoScaleEventHandler@cocos2d@@2W4ScaleType@12@B" PURGE="-1" COMMENT="" />
    <EXPORT ORDINAL="4206" NAME="?DEFAULT_SINCE_START_SYSTEM@PUOnTimeObserver@cocos2d@@2_NB" PURGE="-1" COMMENT="" />
    <EXPORT ORDINAL="4207" NAME="?DEFAULT_START_COLOUR_RANGE@PUEmitter@cocos2d@@2VVec4@2@B" PURGE="-1" COMMENT="" />
    <EXPORT ORDINAL="4208" NAME="?DEFAULT_START_RANDOM@PUTextureAnimator@cocos2d@@2_NB" PURGE="-1" COMMENT="" />
    <EXPORT ORDINAL="4209" NAME="?DEFAULT_START_TEXTURE_COORDS@PUEmitter@cocos2d@@2GB" PURGE="-1" COMMENT="" />
    <EXPORT ORDINAL="4210" NAME="?DEFAULT_STEP@PUCircleEmitter@cocos2d@@2MB" PURGE="-1" COMMENT="" />
    <EXPORT ORDINAL="4211" NAME="?DEFAULT_TEXCOORDS_END@PUTextureAnimator@cocos2d@@2GB" PURGE="-1" COMMENT="" />
    <EXPORT ORDINAL="4212" NAME="?DEFAULT_TEXCOORDS_START@PUTextureAnimator@cocos2d@@2GB" PURGE="-1" COMMENT="" />
    <EXPORT ORDINAL="4213" NAME="?DEFAULT_TEXTURE_COORDS@PUEmitter@cocos2d@@2GB" PURGE="-1" COMMENT="" />
    <EXPORT ORDINAL="4214" NAME="?DEFAULT_TEXTURE_DIRECTION@PUBeamRender@cocos2d@@2W4TexCoordDirection@PUBillboardChain@2@B" PURGE="-1" COMMENT="" />
    <EXPORT ORDINAL="4215" NAME="?DEFAULT_THRESHOLD@PUOnCountObserver@cocos2d@@2IB" PURGE="-1" COMMENT="" />
    <EXPORT ORDINAL="4216" NAME="?DEFAULT_THRESHOLD@PUOnRandomObserver@cocos2d@@2MB" PURGE="-1" COMMENT="" />
    <EXPORT ORDINAL="4217" NAME="?DEFAULT_THRESHOLD@PUOnTimeObserver@cocos2d@@2MB" PURGE="-1" COMMENT="" />
    <EXPORT ORDINAL="4218" NAME="?DEFAULT_TIME_STEP@PULineAffector@cocos2d@@2MB" PURGE="-1" COMMENT="" />
    <EXPORT ORDINAL="4219" NAME="?DEFAULT_TIME_STEP@PURandomiser@cocos2d@@2MB" PURGE="-1" COMMENT="" />
    <EXPORT ORDINAL="4220" NAME="?DEFAULT_TIME_STEP@PUTextureAnimator@cocos2d@@2MB" PURGE="-1" COMMENT="" />
    <EXPORT ORDINAL="4221" NAME="?DEFAULT_TIME_TO_LIVE@PUEmitter@cocos2d@@2MB" PURGE="-1" COMMENT="" />
    <EXPORT ORDINAL="4222" NAME="?DEFAULT_TTL@PUParticle3D@cocos2d@@2MA" PURGE="-1" COMMENT="" />
    <EXPORT ORDINAL="4223" NAME="?DEFAULT_UNTIL_EVENT@PUObserver@cocos2d@@2_NB" PURGE="-1" COMMENT="" />
    <EXPORT ORDINAL="4224" NAME="?DEFAULT_UPDATE_INTERVAL@PUBeamRender@cocos2d@@2MB" PURGE="-1" COMMENT="" />
    <EXPORT ORDINAL="4225" NAME="?DEFAULT_USE_OWN@PUGeometryRotator@cocos2d@@2_NB" PURGE="-1" COMMENT="" />
    <EXPORT ORDINAL="4226" NAME="?DEFAULT_USE_OWN_SPEED@PUTextureRotator@cocos2d@@2_NB" PURGE="-1" COMMENT="" />
    <EXPORT ORDINAL="4227" NAME="?DEFAULT_USE_VERTEX_COLOURS@PUBeamRender@cocos2d@@2_NB" PURGE="-1" COMMENT="" />
    <EXPORT ORDINAL="4228" NAME="?DEFAULT_USE_VERTEX_COLOURS@PURibbonTrailRender@cocos2d@@2_NB" PURGE="-1" COMMENT="" />
    <EXPORT ORDINAL="4229" NAME="?DEFAULT_VELOCITY@PUEmitter@cocos2d@@2MB" PURGE="-1" COMMENT="" />
    <EXPORT ORDINAL="4230" NAME="?DEFAULT_VELOCITY_SCALE@PUScaleVelocityAffector@cocos2d@@2MB" PURGE="-1" COMMENT="" />
    <EXPORT ORDINAL="4231" NAME="?DEFAULT_VELOCITY_THRESHOLD@PUOnVelocityObserver@cocos2d@@2MB" PURGE="-1" COMMENT="" />
    <EXPORT ORDINAL="4232" NAME="?DEFAULT_WIDTH@CCPUBoxEmitter@cocos2d@@2MB" PURGE="-1" COMMENT="" />
    <EXPORT ORDINAL="4233" NAME="?DEFAULT_WIDTH@PUBoxCollider@cocos2d@@2MB" PURGE="-1" COMMENT="" />
    <EXPORT ORDINAL="4234" NAME="?DEFAULT_WIDTH@PUEmitter@cocos2d@@2MB" PURGE="-1" COMMENT="" />
    <EXPORT ORDINAL="4235" NAME="?DEFAULT_WIDTH@PUParticleSystem3D@cocos2d@@2MB" PURGE="-1" COMMENT="" />
    <EXPORT ORDINAL="4236" NAME="?DEFAULT_WIDTH@PURibbonTrailRender@cocos2d@@2MB" PURGE="-1" COMMENT="" />
    <EXPORT ORDINAL="4237" NAME="?DEFAULT_WORLDSIZE@PUForceFieldAffector@cocos2d@@2VVec3@2@B" PURGE="-1" COMMENT="" />
    <EXPORT ORDINAL="4238" NAME="?DEFAULT_XYZ_SCALE@PUScaleAffector@cocos2d@@2MB" PURGE="-1" COMMENT="" />
    <EXPORT ORDINAL="4239" NAME="?DEFAULT_X_SCALE@PUScaleAffector@cocos2d@@2MB" PURGE="-1" COMMENT="" />
    <EXPORT ORDINAL="4240" NAME="?DEFAULT_Y_SCALE@PUScaleAffector@cocos2d@@2MB" PURGE="-1" COMMENT="" />
    <EXPORT ORDINAL="4241" NAME="?DEFAULT_Z_SCALE@PUScaleAffector@cocos2d@@2MB" PURGE="-1" COMMENT="" />
    <EXPORT ORDINAL="4242" NAME="?DISABLE@BlendFunc@cocos2d@@2U12@B" PURGE="-1" COMMENT="" />
    <EXPORT ORDINAL="4243" NAME="?DeleteAttribute@XMLElement@tinyxml2@@QAEXPBD@Z" PURGE="4" COMMENT="" />
    <EXPORT ORDINAL="4244" NAME="?DeleteChild@XMLNode@tinyxml2@@QAEXPAV12@@Z" PURGE="4" COMMENT="" />
    <EXPORT ORDINAL="4245" NAME="?DeleteChildren@XMLNode@tinyxml2@@QAEXXZ" PURGE="0" COMMENT="" />
    <EXPORT ORDINAL="4246" NAME="?DeleteNode@XMLDocument@tinyxml2@@QAEXPAVXMLNode@2@@Z" PURGE="4" COMMENT="" />
    <EXPORT ORDINAL="4247" NAME="?DistanceMapSpread@FontFreeType@cocos2d@@2HB" PURGE="-1" COMMENT="" />
    <EXPORT ORDINAL="4248" NAME="?DoubleAttribute@XMLElement@tinyxml2@@QBENPBD@Z" PURGE="4" COMMENT="" />
    <EXPORT ORDINAL="4249" NAME="?DoubleValue@XMLAttribute@tinyxml2@@QBENXZ" PURGE="0" COMMENT="" />
    <EXPORT ORDINAL="4250" NAME="?ERROR_FILE_OP_FAILED@DownloadTask@network@cocos2d@@2HB" PURGE="-1" COMMENT="" />
    <EXPORT ORDINAL="4251" NAME="?ERROR_IMPL_INTERNAL@DownloadTask@network@cocos2d@@2HB" PURGE="-1" COMMENT="" />
    <EXPORT ORDINAL="4252" NAME="?ERROR_INVALID_PARAMS@DownloadTask@network@cocos2d@@2HB" PURGE="-1" COMMENT="" />
    <EXPORT ORDINAL="4253" NAME="?ERROR_NO_ERROR@DownloadTask@network@cocos2d@@2HB" PURGE="-1" COMMENT="" />
    <EXPORT ORDINAL="4254" NAME="?EVENT_AFTER_DRAW@Director@cocos2d@@2PBDB" PURGE="-1" COMMENT="" />
    <EXPORT ORDINAL="4255" NAME="?EVENT_AFTER_UPDATE@Director@cocos2d@@2PBDB" PURGE="-1" COMMENT="" />
    <EXPORT ORDINAL="4256" NAME="?EVENT_AFTER_VISIT@Director@cocos2d@@2PBDB" PURGE="-1" COMMENT="" />
    <EXPORT ORDINAL="4257" NAME="?EVENT_BEFORE_UPDATE@Director@cocos2d@@2PBDB" PURGE="-1" COMMENT="" />
    <EXPORT ORDINAL="4258" NAME="?EVENT_PROJECTION_CHANGED@Director@cocos2d@@2PBDB" PURGE="-1" COMMENT="" />
    <EXPORT ORDINAL="4259" NAME="?EVENT_RESET@Director@cocos2d@@2PBDB" PURGE="-1" COMMENT="" />
    <EXPORT ORDINAL="4260" NAME="?EVENT_WINDOW_FOCUSED@GLViewImpl@cocos2d@@2V?$basic_string@DU?$char_traits@D@std@@V?$allocator@D@2@@std@@B" PURGE="-1" COMMENT="" />
    <EXPORT ORDINAL="4261" NAME="?EVENT_WINDOW_RESIZED@GLViewImpl@cocos2d@@2V?$basic_string@DU?$char_traits@D@std@@V?$allocator@D@2@@std@@B" PURGE="-1" COMMENT="" />
    <EXPORT ORDINAL="4262" NAME="?EVENT_WINDOW_UNFOCUSED@GLViewImpl@cocos2d@@2V?$basic_string@DU?$char_traits@D@std@@V?$allocator@D@2@@std@@B" PURGE="-1" COMMENT="" />
    <EXPORT ORDINAL="4263" NAME="?Empty@StrPair@tinyxml2@@QBE_NXZ" PURGE="0" COMMENT="" />
    <EXPORT ORDINAL="4264" NAME="?EnsureCapacity@?$DynArray@D$0BE@@tinyxml2@@AAEXH@Z" PURGE="4" COMMENT="" />
    <EXPORT ORDINAL="4265" NAME="?EnsureCapacity@?$DynArray@PAUBlock@?$MemPoolT@$0CE@@tinyxml2@@$09@tinyxml2@@AAEXH@Z" PURGE="4" COMMENT="" />
    <EXPORT ORDINAL="4266" NAME="?EnsureCapacity@?$DynArray@PAUBlock@?$MemPoolT@$0CM@@tinyxml2@@$09@tinyxml2@@AAEXH@Z" PURGE="4" COMMENT="" />
    <EXPORT ORDINAL="4267" NAME="?EnsureCapacity@?$DynArray@PAUBlock@?$MemPoolT@$0DA@@tinyxml2@@$09@tinyxml2@@AAEXH@Z" PURGE="4" COMMENT="" />
    <EXPORT ORDINAL="4268" NAME="?EnsureCapacity@?$DynArray@PAUBlock@?$MemPoolT@$0DE@@tinyxml2@@$09@tinyxml2@@AAEXH@Z" PURGE="4" COMMENT="" />
    <EXPORT ORDINAL="4269" NAME="?EnsureCapacity@?$DynArray@PBD$09@tinyxml2@@AAEXH@Z" PURGE="4" COMMENT="" />
    <EXPORT ORDINAL="4270" NAME="?Error@XMLDocument@tinyxml2@@QBE_NXZ" PURGE="0" COMMENT="" />
    <EXPORT ORDINAL="4271" NAME="?ErrorID@XMLDocument@tinyxml2@@QBE?AW4XMLError@2@XZ" PURGE="0" COMMENT="" />
    <EXPORT ORDINAL="4272" NAME="?FAST_TMX_ORIENTATION_HEX@TMXLayer@experimental@cocos2d@@2HB" PURGE="-1" COMMENT="" />
    <EXPORT ORDINAL="4273" NAME="?FAST_TMX_ORIENTATION_ISO@TMXLayer@experimental@cocos2d@@2HB" PURGE="-1" COMMENT="" />
    <EXPORT ORDINAL="4274" NAME="?FAST_TMX_ORIENTATION_ORTHO@TMXLayer@experimental@cocos2d@@2HB" PURGE="-1" COMMENT="" />
    <EXPORT ORDINAL="4275" NAME="?FindAttribute@XMLElement@tinyxml2@@AAEPAVXMLAttribute@2@PBD@Z" PURGE="4" COMMENT="" />
    <EXPORT ORDINAL="4276" NAME="?FindAttribute@XMLElement@tinyxml2@@QBEPBVXMLAttribute@2@PBD@Z" PURGE="4" COMMENT="" />
    <EXPORT ORDINAL="4277" NAME="?FindOrCreateAttribute@XMLElement@tinyxml2@@AAEPAVXMLAttribute@2@PBD@Z" PURGE="4" COMMENT="" />
    <EXPORT ORDINAL="4278" NAME="?FirstAttribute@XMLElement@tinyxml2@@QBEPBVXMLAttribute@2@XZ" PURGE="0" COMMENT="" />
    <EXPORT ORDINAL="4279" NAME="?FirstChild@XMLConstHandle@tinyxml2@@QBE?BV12@XZ" PURGE="4" COMMENT="" />
    <EXPORT ORDINAL="4280" NAME="?FirstChild@XMLHandle@tinyxml2@@QAE?AV12@XZ" PURGE="4" COMMENT="" />
    <EXPORT ORDINAL="4281" NAME="?FirstChild@XMLNode@tinyxml2@@QAEPAV12@XZ" PURGE="0" COMMENT="" />
    <EXPORT ORDINAL="4282" NAME="?FirstChild@XMLNode@tinyxml2@@QBEPBV12@XZ" PURGE="0" COMMENT="" />
    <EXPORT ORDINAL="4283" NAME="?FirstChildElement@XMLConstHandle@tinyxml2@@QBE?BV12@PBD@Z" PURGE="8" COMMENT="" />
    <EXPORT ORDINAL="4284" NAME="?FirstChildElement@XMLHandle@tinyxml2@@QAE?AV12@PBD@Z" PURGE="8" COMMENT="" />
    <EXPORT ORDINAL="4285" NAME="?FirstChildElement@XMLNode@tinyxml2@@QAEPAVXMLElement@2@PBD@Z" PURGE="4" COMMENT="" />
    <EXPORT ORDINAL="4286" NAME="?FirstChildElement@XMLNode@tinyxml2@@QBEPBVXMLElement@2@PBD@Z" PURGE="4" COMMENT="" />
    <EXPORT ORDINAL="4287" NAME="?FloatAttribute@XMLElement@tinyxml2@@QBEMPBD@Z" PURGE="4" COMMENT="" />
    <EXPORT ORDINAL="4288" NAME="?FloatValue@XMLAttribute@tinyxml2@@QBEMXZ" PURGE="0" COMMENT="" />
    <EXPORT ORDINAL="4289" NAME="?Free@?$MemPoolT@$0CE@@tinyxml2@@UAEXPAX@Z" PURGE="4" COMMENT="" />
    <EXPORT ORDINAL="4290" NAME="?Free@?$MemPoolT@$0CM@@tinyxml2@@UAEXPAX@Z" PURGE="4" COMMENT="" />
    <EXPORT ORDINAL="4291" NAME="?Free@?$MemPoolT@$0DA@@tinyxml2@@UAEXPAX@Z" PURGE="4" COMMENT="" />
    <EXPORT ORDINAL="4292" NAME="?Free@?$MemPoolT@$0DE@@tinyxml2@@UAEXPAX@Z" PURGE="4" COMMENT="" />
    <EXPORT ORDINAL="4293" NAME="?GLToCGAffine@cocos2d@@YAXPBMPAUAffineTransform@1@@Z" PURGE="0" COMMENT="" />
    <EXPORT ORDINAL="4294" NAME="?GRAY@Color3B@cocos2d@@2U12@B" PURGE="-1" COMMENT="" />
    <EXPORT ORDINAL="4295" NAME="?GRAY@Color4B@cocos2d@@2U12@B" PURGE="-1" COMMENT="" />
    <EXPORT ORDINAL="4296" NAME="?GRAY@Color4F@cocos2d@@2U12@B" PURGE="-1" COMMENT="" />
    <EXPORT ORDINAL="4297" NAME="?GREEN@Color3B@cocos2d@@2U12@B" PURGE="-1" COMMENT="" />
    <EXPORT ORDINAL="4298" NAME="?GREEN@Color4B@cocos2d@@2U12@B" PURGE="-1" COMMENT="" />
    <EXPORT ORDINAL="4299" NAME="?GREEN@Color4F@cocos2d@@2U12@B" PURGE="-1" COMMENT="" />
    <EXPORT ORDINAL="4300" NAME="?GetAttribDescArray@stExpCocoObjectDesc@cocostudio@@QAEPAUstExpCocoAttribDesc@2@PAVCocoLoader@2@@Z" PURGE="4" COMMENT="" />
    <EXPORT ORDINAL="4301" NAME="?GetAttribNum@stExpCocoObjectDesc@cocostudio@@QAEHXZ" PURGE="0" COMMENT="" />
    <EXPORT ORDINAL="4302" NAME="?GetCharacterRef@XMLUtil@tinyxml2@@SAPBDPBDPADPAH@Z" PURGE="0" COMMENT="" />
    <EXPORT ORDINAL="4303" NAME="?GetChildArray@stExpCocoNode@cocostudio@@QAEPAU12@PAVCocoLoader@2@@Z" PURGE="4" COMMENT="" />
    <EXPORT ORDINAL="4304" NAME="?GetChildNum@stExpCocoNode@cocostudio@@QAEHXZ" PURGE="0" COMMENT="" />
    <EXPORT ORDINAL="4305" NAME="?GetCocoObjectDescArray@CocoLoader@cocostudio@@QAEPAUstExpCocoObjectDesc@2@XZ" PURGE="0" COMMENT="" />
    <EXPORT ORDINAL="4306" NAME="?GetDocument@XMLNode@tinyxml2@@QAEPAVXMLDocument@2@XZ" PURGE="0" COMMENT="" />
    <EXPORT ORDINAL="4307" NAME="?GetDocument@XMLNode@tinyxml2@@QBEPBVXMLDocument@2@XZ" PURGE="0" COMMENT="" />
    <EXPORT ORDINAL="4308" NAME="?GetErrorStr1@XMLDocument@tinyxml2@@QBEPBDXZ" PURGE="0" COMMENT="" />
    <EXPORT ORDINAL="4309" NAME="?GetErrorStr2@XMLDocument@tinyxml2@@QBEPBDXZ" PURGE="0" COMMENT="" />
    <EXPORT ORDINAL="4310" NAME="?GetFileHeader@CocoLoader@cocostudio@@QAEPAUstCocoFileHeader@2@XZ" PURGE="0" COMMENT="" />
    <EXPORT ORDINAL="4311" NAME="?GetMemoryAddr_AttribDesc@CocoLoader@cocostudio@@QAEPADXZ" PURGE="0" COMMENT="" />
    <EXPORT ORDINAL="4312" NAME="?GetMemoryAddr_CocoNode@CocoLoader@cocostudio@@QAEPADXZ" PURGE="0" COMMENT="" />
    <EXPORT ORDINAL="4313" NAME="?GetMemoryAddr_String@CocoLoader@cocostudio@@QAEPADXZ" PURGE="0" COMMENT="" />
    <EXPORT ORDINAL="4314" NAME="?GetName@stExpCocoAttribDesc@cocostudio@@QAEPADPAVCocoLoader@2@@Z" PURGE="4" COMMENT="" />
    <EXPORT ORDINAL="4315" NAME="?GetName@stExpCocoNode@cocostudio@@QAEPADPAVCocoLoader@2@@Z" PURGE="4" COMMENT="" />
    <EXPORT ORDINAL="4316" NAME="?GetName@stExpCocoObjectDesc@cocostudio@@QAEPADPAVCocoLoader@2@@Z" PURGE="4" COMMENT="" />
    <EXPORT ORDINAL="4317" NAME="?GetPointForAngle@Physics3DConeTwistConstraint@cocos2d@@QBE?AVVec3@2@MM@Z" PURGE="12" COMMENT="" />
    <EXPORT ORDINAL="4318" NAME="?GetRootCocoNode@CocoLoader@cocostudio@@QAEPAUstExpCocoNode@2@XZ" PURGE="0" COMMENT="" />
    <EXPORT ORDINAL="4319" NAME="?GetStr@StrPair@tinyxml2@@QAEPBDXZ" PURGE="0" COMMENT="" />
    <EXPORT ORDINAL="4320" NAME="?GetText@XMLElement@tinyxml2@@QBEPBDXZ" PURGE="0" COMMENT="" />
    <EXPORT ORDINAL="4321" NAME="?GetType@stExpCocoNode@cocostudio@@QAE?AW4Type@rapidjson@@PAVCocoLoader@2@@Z" PURGE="4" COMMENT="" />
    <EXPORT ORDINAL="4322" NAME="?GetValue@stExpCocoNode@cocostudio@@QAEPADPAVCocoLoader@2@@Z" PURGE="4" COMMENT="" />
    <EXPORT ORDINAL="4323" NAME="?HSVfromRGB@ControlUtils@extension@cocos2d@@SA?AUHSV@23@URGBA@23@@Z" PURGE="0" COMMENT="" />
    <EXPORT ORDINAL="4324" NAME="?HandleEvent@VideoPlayer@ui@experimental@cocos2d@@UAEXI@Z" PURGE="4" COMMENT="" />
    <EXPORT ORDINAL="4325" NAME="?HasBOM@XMLDocument@tinyxml2@@QBE_NXZ" PURGE="0" COMMENT="" />
    <EXPORT ORDINAL="4326" NAME="?IDENTITY@AffineTransform@cocos2d@@2U12@B" PURGE="-1" COMMENT="" />
    <EXPORT ORDINAL="4327" NAME="?IDENTITY@Mat4@cocos2d@@2V12@B" PURGE="-1" COMMENT="" />
    <EXPORT ORDINAL="4328" NAME="?INDEX_NOT_INITIALIZED@Sprite@cocos2d@@2HB" PURGE="-1" COMMENT="" />
    <EXPORT ORDINAL="4329" NAME="?INDEX_VBO_SIZE@Renderer@cocos2d@@2HB" PURGE="-1" COMMENT="" />
    <EXPORT ORDINAL="4330" NAME="?INVALID_AUDIO_ID@AudioEngine@experimental@cocos2d@@2HB" PURGE="-1" COMMENT="" />
    <EXPORT ORDINAL="4331" NAME="?INVALID_TAG@Action@cocos2d@@2HB" PURGE="-1" COMMENT="" />
    <EXPORT ORDINAL="4332" NAME="?INVALID_TAG@Node@cocos2d@@2HB" PURGE="-1" COMMENT="" />
    <EXPORT ORDINAL="4333" NAME="?Identify@XMLDocument@tinyxml2@@QAEPADPADPAPAVXMLNode@2@@Z" PURGE="8" COMMENT="" />
    <EXPORT ORDINAL="4334" NAME="?InitDocument@XMLDocument@tinyxml2@@AAEXXZ" PURGE="0" COMMENT="" />
    <EXPORT ORDINAL="4335" NAME="?InsertAfterChild@XMLNode@tinyxml2@@QAEPAV12@PAV12@0@Z" PURGE="8" COMMENT="" />
    <EXPORT ORDINAL="4336" NAME="?InsertEndChild@XMLNode@tinyxml2@@QAEPAV12@PAV12@@Z" PURGE="4" COMMENT="" />
    <EXPORT ORDINAL="4337" NAME="?InsertFirstChild@XMLNode@tinyxml2@@QAEPAV12@PAV12@@Z" PURGE="4" COMMENT="" />
    <EXPORT ORDINAL="4338" NAME="?Instance@PUMaterialCache@cocos2d@@SAPAV12@XZ" PURGE="0" COMMENT="" />
    <EXPORT ORDINAL="4339" NAME="?Instance@PUScriptCompiler@cocos2d@@SAPAV12@XZ" PURGE="0" COMMENT="" />
    <EXPORT ORDINAL="4340" NAME="?IntAttribute@XMLElement@tinyxml2@@QBEHPBD@Z" PURGE="4" COMMENT="" />
    <EXPORT ORDINAL="4341" NAME="?IntValue@XMLAttribute@tinyxml2@@QBEHXZ" PURGE="0" COMMENT="" />
    <EXPORT ORDINAL="4342" NAME="?IsAlpha@XMLUtil@tinyxml2@@SAHE@Z" PURGE="0" COMMENT="" />
    <EXPORT ORDINAL="4343" NAME="?IsAlphaNum@XMLUtil@tinyxml2@@SAHE@Z" PURGE="0" COMMENT="" />
    <EXPORT ORDINAL="4344" NAME="?IsAnimationInfoExists@ActionTimeline@timeline@cocostudio@@UAE_NABV?$basic_string@DU?$char_traits@D@std@@V?$allocator@D@2@@std@@@Z" PURGE="4" COMMENT="" />
    <EXPORT ORDINAL="4345" NAME="?IsUTF8Continuation@XMLUtil@tinyxml2@@SAHD@Z" PURGE="0" COMMENT="" />
    <EXPORT ORDINAL="4346" NAME="?IsWhiteSpace@XMLUtil@tinyxml2@@SA_ND@Z" PURGE="0" COMMENT="" />
    <EXPORT ORDINAL="4347" NAME="?ItemSize@?$MemPoolT@$0CE@@tinyxml2@@UBEHXZ" PURGE="0" COMMENT="" />
    <EXPORT ORDINAL="4348" NAME="?ItemSize@?$MemPoolT@$0CM@@tinyxml2@@UBEHXZ" PURGE="0" COMMENT="" />
    <EXPORT ORDINAL="4349" NAME="?ItemSize@?$MemPoolT@$0DA@@tinyxml2@@UBEHXZ" PURGE="0" COMMENT="" />
    <EXPORT ORDINAL="4350" NAME="?ItemSize@?$MemPoolT@$0DE@@tinyxml2@@UBEHXZ" PURGE="0" COMMENT="" />
    <EXPORT ORDINAL="4351" NAME="?KEY_ANCHOR_FONT_COLOR_STRING@RichText@ui@cocos2d@@2V?$basic_string@DU?$char_traits@D@std@@V?$allocator@D@2@@std@@B" PURGE="-1" COMMENT="" />
    <EXPORT ORDINAL="4352" NAME="?KEY_ANCHOR_TEXT_BOLD@RichText@ui@cocos2d@@2V?$basic_string@DU?$char_traits@D@std@@V?$allocator@D@2@@std@@B" PURGE="-1" COMMENT="" />
    <EXPORT ORDINAL="4353" NAME="?KEY_ANCHOR_TEXT_GLOW_COLOR@RichText@ui@cocos2d@@2V?$basic_string@DU?$char_traits@D@std@@V?$allocator@D@2@@std@@B" PURGE="-1" COMMENT="" />
    <EXPORT ORDINAL="4354" NAME="?KEY_ANCHOR_TEXT_ITALIC@RichText@ui@cocos2d@@2V?$basic_string@DU?$char_traits@D@std@@V?$allocator@D@2@@std@@B" PURGE="-1" COMMENT="" />
    <EXPORT ORDINAL="4355" NAME="?KEY_ANCHOR_TEXT_LINE@RichText@ui@cocos2d@@2V?$basic_string@DU?$char_traits@D@std@@V?$allocator@D@2@@std@@B" PURGE="-1" COMMENT="" />
    <EXPORT ORDINAL="4356" NAME="?KEY_ANCHOR_TEXT_OUTLINE_COLOR@RichText@ui@cocos2d@@2V?$basic_string@DU?$char_traits@D@std@@V?$allocator@D@2@@std@@B" PURGE="-1" COMMENT="" />
    <EXPORT ORDINAL="4357" NAME="?KEY_ANCHOR_TEXT_OUTLINE_SIZE@RichText@ui@cocos2d@@2V?$basic_string@DU?$char_traits@D@std@@V?$allocator@D@2@@std@@B" PURGE="-1" COMMENT="" />
    <EXPORT ORDINAL="4358" NAME="?KEY_ANCHOR_TEXT_SHADOW_BLUR_RADIUS@RichText@ui@cocos2d@@2V?$basic_string@DU?$char_traits@D@std@@V?$allocator@D@2@@std@@B" PURGE="-1" COMMENT="" />
    <EXPORT ORDINAL="4359" NAME="?KEY_ANCHOR_TEXT_SHADOW_COLOR@RichText@ui@cocos2d@@2V?$basic_string@DU?$char_traits@D@std@@V?$allocator@D@2@@std@@B" PURGE="-1" COMMENT="" />
    <EXPORT ORDINAL="4360" NAME="?KEY_ANCHOR_TEXT_SHADOW_OFFSET_HEIGHT@RichText@ui@cocos2d@@2V?$basic_string@DU?$char_traits@D@std@@V?$allocator@D@2@@std@@B" PURGE="-1" COMMENT="" />
    <EXPORT ORDINAL="4361" NAME="?KEY_ANCHOR_TEXT_SHADOW_OFFSET_WIDTH@RichText@ui@cocos2d@@2V?$basic_string@DU?$char_traits@D@std@@V?$allocator@D@2@@std@@B" PURGE="-1" COMMENT="" />
    <EXPORT ORDINAL="4362" NAME="?KEY_ANCHOR_TEXT_STYLE@RichText@ui@cocos2d@@2V?$basic_string@DU?$char_traits@D@std@@V?$allocator@D@2@@std@@B" PURGE="-1" COMMENT="" />
    <EXPORT ORDINAL="4363" NAME="?KEY_FONT_BIG@RichText@ui@cocos2d@@2V?$basic_string@DU?$char_traits@D@std@@V?$allocator@D@2@@std@@B" PURGE="-1" COMMENT="" />
    <EXPORT ORDINAL="4364" NAME="?KEY_FONT_COLOR_STRING@RichText@ui@cocos2d@@2V?$basic_string@DU?$char_traits@D@std@@V?$allocator@D@2@@std@@B" PURGE="-1" COMMENT="" />
    <EXPORT ORDINAL="4365" NAME="?KEY_FONT_FACE@RichText@ui@cocos2d@@2V?$basic_string@DU?$char_traits@D@std@@V?$allocator@D@2@@std@@B" PURGE="-1" COMMENT="" />
    <EXPORT ORDINAL="4366" NAME="?KEY_FONT_SIZE@RichText@ui@cocos2d@@2V?$basic_string@DU?$char_traits@D@std@@V?$allocator@D@2@@std@@B" PURGE="-1" COMMENT="" />
    <EXPORT ORDINAL="4367" NAME="?KEY_FONT_SMALL@RichText@ui@cocos2d@@2V?$basic_string@DU?$char_traits@D@std@@V?$allocator@D@2@@std@@B" PURGE="-1" COMMENT="" />
    <EXPORT ORDINAL="4368" NAME="?KEY_TEXT_BOLD@RichText@ui@cocos2d@@2V?$basic_string@DU?$char_traits@D@std@@V?$allocator@D@2@@std@@B" PURGE="-1" COMMENT="" />
    <EXPORT ORDINAL="4369" NAME="?KEY_TEXT_GLOW_COLOR@RichText@ui@cocos2d@@2V?$basic_string@DU?$char_traits@D@std@@V?$allocator@D@2@@std@@B" PURGE="-1" COMMENT="" />
    <EXPORT ORDINAL="4370" NAME="?KEY_TEXT_ITALIC@RichText@ui@cocos2d@@2V?$basic_string@DU?$char_traits@D@std@@V?$allocator@D@2@@std@@B" PURGE="-1" COMMENT="" />
    <EXPORT ORDINAL="4371" NAME="?KEY_TEXT_LINE@RichText@ui@cocos2d@@2V?$basic_string@DU?$char_traits@D@std@@V?$allocator@D@2@@std@@B" PURGE="-1" COMMENT="" />
    <EXPORT ORDINAL="4372" NAME="?KEY_TEXT_OUTLINE_COLOR@RichText@ui@cocos2d@@2V?$basic_string@DU?$char_traits@D@std@@V?$allocator@D@2@@std@@B" PURGE="-1" COMMENT="" />
    <EXPORT ORDINAL="4373" NAME="?KEY_TEXT_OUTLINE_SIZE@RichText@ui@cocos2d@@2V?$basic_string@DU?$char_traits@D@std@@V?$allocator@D@2@@std@@B" PURGE="-1" COMMENT="" />
    <EXPORT ORDINAL="4374" NAME="?KEY_TEXT_SHADOW_BLUR_RADIUS@RichText@ui@cocos2d@@2V?$basic_string@DU?$char_traits@D@std@@V?$allocator@D@2@@std@@B" PURGE="-1" COMMENT="" />
    <EXPORT ORDINAL="4375" NAME="?KEY_TEXT_SHADOW_COLOR@RichText@ui@cocos2d@@2V?$basic_string@DU?$char_traits@D@std@@V?$allocator@D@2@@std@@B" PURGE="-1" COMMENT="" />
    <EXPORT ORDINAL="4376" NAME="?KEY_TEXT_SHADOW_OFFSET_HEIGHT@RichText@ui@cocos2d@@2V?$basic_string@DU?$char_traits@D@std@@V?$allocator@D@2@@std@@B" PURGE="-1" COMMENT="" />
    <EXPORT ORDINAL="4377" NAME="?KEY_TEXT_SHADOW_OFFSET_WIDTH@RichText@ui@cocos2d@@2V?$basic_string@DU?$char_traits@D@std@@V?$allocator@D@2@@std@@B" PURGE="-1" COMMENT="" />
    <EXPORT ORDINAL="4378" NAME="?KEY_TEXT_STYLE@RichText@ui@cocos2d@@2V?$basic_string@DU?$char_traits@D@std@@V?$allocator@D@2@@std@@B" PURGE="-1" COMMENT="" />
    <EXPORT ORDINAL="4379" NAME="?KEY_URL@RichText@ui@cocos2d@@2V?$basic_string@DU?$char_traits@D@std@@V?$allocator@D@2@@std@@B" PURGE="-1" COMMENT="" />
    <EXPORT ORDINAL="4380" NAME="?KEY_VERTICAL_SPACE@RichText@ui@cocos2d@@2V?$basic_string@DU?$char_traits@D@std@@V?$allocator@D@2@@std@@B" PURGE="-1" COMMENT="" />
    <EXPORT ORDINAL="4381" NAME="?KEY_WRAP_MODE@RichText@ui@cocos2d@@2V?$basic_string@DU?$char_traits@D@std@@V?$allocator@D@2@@std@@B" PURGE="-1" COMMENT="" />
    <EXPORT ORDINAL="4382" NAME="?LISTENER_ID@EventListenerAcceleration@cocos2d@@2V?$basic_string@DU?$char_traits@D@std@@V?$allocator@D@2@@std@@B" PURGE="-1" COMMENT="" />
    <EXPORT ORDINAL="4383" NAME="?LISTENER_ID@EventListenerAssetsManagerEx@extension@cocos2d@@1V?$basic_string@DU?$char_traits@D@std@@V?$allocator@D@2@@std@@B" PURGE="-1" COMMENT="" />
    <EXPORT ORDINAL="4384" NAME="?LISTENER_ID@EventListenerController@cocos2d@@2V?$basic_string@DU?$char_traits@D@std@@V?$allocator@D@2@@std@@B" PURGE="-1" COMMENT="" />
    <EXPORT ORDINAL="4385" NAME="?LISTENER_ID@EventListenerFocus@cocos2d@@2V?$basic_string@DU?$char_traits@D@std@@V?$allocator@D@2@@std@@B" PURGE="-1" COMMENT="" />
    <EXPORT ORDINAL="4386" NAME="?LISTENER_ID@EventListenerKeyboard@cocos2d@@2V?$basic_string@DU?$char_traits@D@std@@V?$allocator@D@2@@std@@B" PURGE="-1" COMMENT="" />
    <EXPORT ORDINAL="4387" NAME="?LISTENER_ID@EventListenerMouse@cocos2d@@2V?$basic_string@DU?$char_traits@D@std@@V?$allocator@D@2@@std@@B" PURGE="-1" COMMENT="" />
    <EXPORT ORDINAL="4388" NAME="?LISTENER_ID@EventListenerTouchAllAtOnce@cocos2d@@2V?$basic_string@DU?$char_traits@D@std@@V?$allocator@D@2@@std@@B" PURGE="-1" COMMENT="" />
    <EXPORT ORDINAL="4389" NAME="?LISTENER_ID@EventListenerTouchOneByOne@cocos2d@@2V?$basic_string@DU?$char_traits@D@std@@V?$allocator@D@2@@std@@B" PURGE="-1" COMMENT="" />
    <EXPORT ORDINAL="4390" NAME="?LastChild@XMLConstHandle@tinyxml2@@QBE?BV12@XZ" PURGE="4" COMMENT="" />
    <EXPORT ORDINAL="4391" NAME="?LastChild@XMLHandle@tinyxml2@@QAE?AV12@XZ" PURGE="4" COMMENT="" />
    <EXPORT ORDINAL="4392" NAME="?LastChild@XMLNode@tinyxml2@@QAEPAV12@XZ" PURGE="0" COMMENT="" />
    <EXPORT ORDINAL="4393" NAME="?LastChild@XMLNode@tinyxml2@@QBEPBV12@XZ" PURGE="0" COMMENT="" />
    <EXPORT ORDINAL="4394" NAME="?LastChildElement@XMLConstHandle@tinyxml2@@QBE?BV12@PBD@Z" PURGE="8" COMMENT="" />
    <EXPORT ORDINAL="4395" NAME="?LastChildElement@XMLHandle@tinyxml2@@QAE?AV12@PBD@Z" PURGE="8" COMMENT="" />
    <EXPORT ORDINAL="4396" NAME="?LastChildElement@XMLNode@tinyxml2@@QAEPAVXMLElement@2@PBD@Z" PURGE="4" COMMENT="" />
    <EXPORT ORDINAL="4397" NAME="?LastChildElement@XMLNode@tinyxml2@@QBEPBVXMLElement@2@PBD@Z" PURGE="4" COMMENT="" />
    <EXPORT ORDINAL="4398" NAME="?LinkEndChild@XMLNode@tinyxml2@@QAEPAV12@PAV12@@Z" PURGE="4" COMMENT="" />
    <EXPORT ORDINAL="4399" NAME="?LoadFile@XMLDocument@tinyxml2@@QAE?AW4XMLError@2@PAU_iobuf@@@Z" PURGE="4" COMMENT="" />
    <EXPORT ORDINAL="4400" NAME="?LoadFile@XMLDocument@tinyxml2@@QAE?AW4XMLError@2@PBD@Z" PURGE="4" COMMENT="" />
    <EXPORT ORDINAL="4401" NAME="?LuaLog@cocos2d@@YAXPBD@Z" PURGE="0" COMMENT="" />
    <EXPORT ORDINAL="4402" NAME="?MAGENTA@Color3B@cocos2d@@2U12@B" PURGE="-1" COMMENT="" />
    <EXPORT ORDINAL="4403" NAME="?MAGENTA@Color4B@cocos2d@@2U12@B" PURGE="-1" COMMENT="" />
    <EXPORT ORDINAL="4404" NAME="?MAGENTA@Color4F@cocos2d@@2U12@B" PURGE="-1" COMMENT="" />
    <EXPORT ORDINAL="4405" NAME="?MANIFEST_ID@AssetsManagerEx@extension@cocos2d@@2V?$basic_string@DU?$char_traits@D@std@@V?$allocator@D@2@@std@@B" PURGE="-1" COMMENT="" />
    <EXPORT ORDINAL="4406" NAME="?MATERIAL_ID_DO_NOT_BATCH@Renderer@cocos2d@@2HB" PURGE="-1" COMMENT="" />
    <EXPORT ORDINAL="4407" NAME="?MAX_TOUCHES@EventTouch@cocos2d@@2HB" PURGE="-1" COMMENT="" />
    <EXPORT ORDINAL="4408" NAME="?MIPMAP_MAX@Image@cocos2d@@1HB" PURGE="-1" COMMENT="" />
    <EXPORT ORDINAL="4409" NAME="?Mem@?$DynArray@D$0BE@@tinyxml2@@QAEPADXZ" PURGE="0" COMMENT="" />
    <EXPORT ORDINAL="4410" NAME="?Mem@?$DynArray@D$0BE@@tinyxml2@@QBEPBDXZ" PURGE="0" COMMENT="" />
    <EXPORT ORDINAL="4411" NAME="?MessageBox@cocos2d@@YAXPBD0@Z" PURGE="0" COMMENT="" />
    <EXPORT ORDINAL="4412" NAME="?Name@XMLAttribute@tinyxml2@@QBEPBDXZ" PURGE="0" COMMENT="" />
    <EXPORT ORDINAL="4413" NAME="?Name@XMLElement@tinyxml2@@QBEPBDXZ" PURGE="0" COMMENT="" />
    <EXPORT ORDINAL="4414" NAME="?NewComment@XMLDocument@tinyxml2@@QAEPAVXMLComment@2@PBD@Z" PURGE="4" COMMENT="" />
    <EXPORT ORDINAL="4415" NAME="?NewDeclaration@XMLDocument@tinyxml2@@QAEPAVXMLDeclaration@2@PBD@Z" PURGE="4" COMMENT="" />
    <EXPORT ORDINAL="4416" NAME="?NewElement@XMLDocument@tinyxml2@@QAEPAVXMLElement@2@PBD@Z" PURGE="4" COMMENT="" />
    <EXPORT ORDINAL="4417" NAME="?NewText@XMLDocument@tinyxml2@@QAEPAVXMLText@2@PBD@Z" PURGE="4" COMMENT="" />
    <EXPORT ORDINAL="4418" NAME="?NewUnknown@XMLDocument@tinyxml2@@QAEPAVXMLUnknown@2@PBD@Z" PURGE="4" COMMENT="" />
    <EXPORT ORDINAL="4419" NAME="?Next@XMLAttribute@tinyxml2@@QBEPBV12@XZ" PURGE="0" COMMENT="" />
    <EXPORT ORDINAL="4420" NAME="?NextSibling@XMLConstHandle@tinyxml2@@QBE?BV12@XZ" PURGE="4" COMMENT="" />
    <EXPORT ORDINAL="4421" NAME="?NextSibling@XMLHandle@tinyxml2@@QAE?AV12@XZ" PURGE="4" COMMENT="" />
    <EXPORT ORDINAL="4422" NAME="?NextSibling@XMLNode@tinyxml2@@QAEPAV12@XZ" PURGE="0" COMMENT="" />
    <EXPORT ORDINAL="4423" NAME="?NextSibling@XMLNode@tinyxml2@@QBEPBV12@XZ" PURGE="0" COMMENT="" />
    <EXPORT ORDINAL="4424" NAME="?NextSiblingElement@XMLConstHandle@tinyxml2@@QBE?BV12@PBD@Z" PURGE="8" COMMENT="" />
    <EXPORT ORDINAL="4425" NAME="?NextSiblingElement@XMLHandle@tinyxml2@@QAE?AV12@PBD@Z" PURGE="8" COMMENT="" />
    <EXPORT ORDINAL="4426" NAME="?NextSiblingElement@XMLNode@tinyxml2@@QAEPAVXMLElement@2@PBD@Z" PURGE="4" COMMENT="" />
    <EXPORT ORDINAL="4427" NAME="?NextSiblingElement@XMLNode@tinyxml2@@QBEPBVXMLElement@2@PBD@Z" PURGE="4" COMMENT="" />
    <EXPORT ORDINAL="4428" NAME="?NoChildren@XMLNode@tinyxml2@@QBE_NXZ" PURGE="0" COMMENT="" />
    <EXPORT ORDINAL="4429" NAME="?Null@Data@cocos2d@@2V12@B" PURGE="-1" COMMENT="" />
    <EXPORT ORDINAL="4430" NAME="?Null@Value@cocos2d@@2V12@B" PURGE="-1" COMMENT="" />
    <EXPORT ORDINAL="4431" NAME="?ONE@Vec2@cocos2d@@2V12@B" PURGE="-1" COMMENT="" />
    <EXPORT ORDINAL="4432" NAME="?ONE@Vec3@cocos2d@@2V12@B" PURGE="-1" COMMENT="" />
    <EXPORT ORDINAL="4433" NAME="?ONE@Vec4@cocos2d@@2V12@B" PURGE="-1" COMMENT="" />
    <EXPORT ORDINAL="4434" NAME="?ORANGE@Color3B@cocos2d@@2U12@B" PURGE="-1" COMMENT="" />
    <EXPORT ORDINAL="4435" NAME="?ORANGE@Color4B@cocos2d@@2U12@B" PURGE="-1" COMMENT="" />
    <EXPORT ORDINAL="4436" NAME="?ORANGE@Color4F@cocos2d@@2U12@B" PURGE="-1" COMMENT="" />
    <EXPORT ORDINAL="4437" NAME="?OpenElement@XMLPrinter@tinyxml2@@QAEXPBD@Z" PURGE="4" COMMENT="" />
    <EXPORT ORDINAL="4438" NAME="?PHYSICS_INFINITY@cocos2d@@3MB" PURGE="-1" COMMENT="" />
    <EXPORT ORDINAL="4439" NAME="?PLAYABLE_EXTENTION@PlayableFrame@timeline@cocostudio@@2V?$basic_string@DU?$char_traits@D@std@@V?$allocator@D@2@@std@@B" PURGE="-1" COMMENT="" />
    <EXPORT ORDINAL="4440" NAME="?PNG_PREMULTIPLIED_ALPHA_ENABLED@Image@cocos2d@@1_NA" PURGE="-1" COMMENT="" />
    <EXPORT ORDINAL="4441" NAME="?POINT_MAX@PhysicsContactData@cocos2d@@2HB" PURGE="-1" COMMENT="" />
    <EXPORT ORDINAL="4442" NAME="?PRIORITY_NON_SYSTEM_MIN@Scheduler@cocos2d@@2HB" PURGE="-1" COMMENT="" />
    <EXPORT ORDINAL="4443" NAME="?PRIORITY_SYSTEM@Scheduler@cocos2d@@2HB" PURGE="-1" COMMENT="" />
    <EXPORT ORDINAL="4444" NAME="?PVRImagesHavePremultipliedAlpha@Texture2D@cocos2d@@SAX_N@Z" PURGE="0" COMMENT="" />
    <EXPORT ORDINAL="4445" NAME="?Parent@XMLNode@tinyxml2@@QAEPAV12@XZ" PURGE="0" COMMENT="" />
    <EXPORT ORDINAL="4446" NAME="?Parent@XMLNode@tinyxml2@@QBEPBV12@XZ" PURGE="0" COMMENT="" />
    <EXPORT ORDINAL="4447" NAME="?Parse@XMLDocument@tinyxml2@@QAE?AW4XMLError@2@PBDI@Z" PURGE="8" COMMENT="" />
    <EXPORT ORDINAL="4448" NAME="?ParseAttributes@XMLElement@tinyxml2@@AAEPADPAD@Z" PURGE="4" COMMENT="" />
    <EXPORT ORDINAL="4449" NAME="?ParseDeep@XMLAttribute@tinyxml2@@AAEPADPAD_N@Z" PURGE="8" COMMENT="" />
    <EXPORT ORDINAL="4450" NAME="?ParseDeep@XMLComment@tinyxml2@@UAEPADPADPAVStrPair@2@@Z" PURGE="8" COMMENT="" />
    <EXPORT ORDINAL="4451" NAME="?ParseDeep@XMLDeclaration@tinyxml2@@UAEPADPADPAVStrPair@2@@Z" PURGE="8" COMMENT="" />
    <EXPORT ORDINAL="4452" NAME="?ParseDeep@XMLElement@tinyxml2@@UAEPADPADPAVStrPair@2@@Z" PURGE="8" COMMENT="" />
    <EXPORT ORDINAL="4453" NAME="?ParseDeep@XMLNode@tinyxml2@@UAEPADPADPAVStrPair@2@@Z" PURGE="8" COMMENT="" />
    <EXPORT ORDINAL="4454" NAME="?ParseDeep@XMLText@tinyxml2@@UAEPADPADPAVStrPair@2@@Z" PURGE="8" COMMENT="" />
    <EXPORT ORDINAL="4455" NAME="?ParseDeep@XMLUnknown@tinyxml2@@UAEPADPADPAVStrPair@2@@Z" PURGE="8" COMMENT="" />
    <EXPORT ORDINAL="4456" NAME="?ParseName@StrPair@tinyxml2@@QAEPADPAD@Z" PURGE="4" COMMENT="" />
    <EXPORT ORDINAL="4457" NAME="?ParseText@StrPair@tinyxml2@@QAEPADPADPBDH@Z" PURGE="12" COMMENT="" />
    <EXPORT ORDINAL="4458" NAME="?PointApplyTransform@cocos2d@@YA?AVVec2@1@ABV21@ABVMat4@1@@Z" PURGE="0" COMMENT="" />
    <EXPORT ORDINAL="4459" NAME="?PointFromString@cocos2d@@YA?AVVec2@1@ABV?$basic_string@DU?$char_traits@D@std@@V?$allocator@D@2@@std@@@Z" PURGE="0" COMMENT="" />
    <EXPORT ORDINAL="4460" NAME="?Pop@?$DynArray@PBD$09@tinyxml2@@QAEPBDXZ" PURGE="0" COMMENT="" />
    <EXPORT ORDINAL="4461" NAME="?PreviousSibling@XMLConstHandle@tinyxml2@@QBE?BV12@XZ" PURGE="4" COMMENT="" />
    <EXPORT ORDINAL="4462" NAME="?PreviousSibling@XMLHandle@tinyxml2@@QAE?AV12@XZ" PURGE="4" COMMENT="" />
    <EXPORT ORDINAL="4463" NAME="?PreviousSibling@XMLNode@tinyxml2@@QAEPAV12@XZ" PURGE="0" COMMENT="" />
    <EXPORT ORDINAL="4464" NAME="?PreviousSibling@XMLNode@tinyxml2@@QBEPBV12@XZ" PURGE="0" COMMENT="" />
    <EXPORT ORDINAL="4465" NAME="?PreviousSiblingElement@XMLConstHandle@tinyxml2@@QBE?BV12@PBD@Z" PURGE="8" COMMENT="" />
    <EXPORT ORDINAL="4466" NAME="?PreviousSiblingElement@XMLHandle@tinyxml2@@QAE?AV12@PBD@Z" PURGE="8" COMMENT="" />
    <EXPORT ORDINAL="4467" NAME="?PreviousSiblingElement@XMLNode@tinyxml2@@QAEPAVXMLElement@2@PBD@Z" PURGE="4" COMMENT="" />
    <EXPORT ORDINAL="4468" NAME="?PreviousSiblingElement@XMLNode@tinyxml2@@QBEPBVXMLElement@2@PBD@Z" PURGE="4" COMMENT="" />
    <EXPORT ORDINAL="4469" NAME="?Print@XMLDocument@tinyxml2@@QAEXPAVXMLPrinter@2@@Z" PURGE="4" COMMENT="" />
    <EXPORT ORDINAL="4470" NAME="?Print@XMLPrinter@tinyxml2@@AAAXPBDZZ" PURGE="0" COMMENT="" />
    <EXPORT ORDINAL="4471" NAME="?PrintError@XMLDocument@tinyxml2@@QBEXXZ" PURGE="0" COMMENT="" />
    <EXPORT ORDINAL="4472" NAME="?PrintSpace@XMLPrinter@tinyxml2@@AAEXH@Z" PURGE="4" COMMENT="" />
    <EXPORT ORDINAL="4473" NAME="?PrintString@XMLPrinter@tinyxml2@@AAEXPBD_N@Z" PURGE="8" COMMENT="" />
    <EXPORT ORDINAL="4474" NAME="?ProcessEntities@XMLDocument@tinyxml2@@QBE_NXZ" PURGE="0" COMMENT="" />
    <EXPORT ORDINAL="4475" NAME="?ProfilingBeginTimingBlock@cocos2d@@YAXPBD@Z" PURGE="0" COMMENT="" />
    <EXPORT ORDINAL="4476" NAME="?ProfilingEndTimingBlock@cocos2d@@YAXPBD@Z" PURGE="0" COMMENT="" />
    <EXPORT ORDINAL="4477" NAME="?ProfilingResetTimingBlock@cocos2d@@YAXPBD@Z" PURGE="0" COMMENT="" />
    <EXPORT ORDINAL="4478" NAME="?Push@?$DynArray@D$0BE@@tinyxml2@@QAEXD@Z" PURGE="4" COMMENT="" />
    <EXPORT ORDINAL="4479" NAME="?Push@?$DynArray@PAUBlock@?$MemPoolT@$0CE@@tinyxml2@@$09@tinyxml2@@QAEXPAUBlock@?$MemPoolT@$0CE@@2@@Z" PURGE="4" COMMENT="" />
    <EXPORT ORDINAL="4480" NAME="?Push@?$DynArray@PAUBlock@?$MemPoolT@$0CM@@tinyxml2@@$09@tinyxml2@@QAEXPAUBlock@?$MemPoolT@$0CM@@2@@Z" PURGE="4" COMMENT="" />
    <EXPORT ORDINAL="4481" NAME="?Push@?$DynArray@PAUBlock@?$MemPoolT@$0DA@@tinyxml2@@$09@tinyxml2@@QAEXPAUBlock@?$MemPoolT@$0DA@@2@@Z" PURGE="4" COMMENT="" />
    <EXPORT ORDINAL="4482" NAME="?Push@?$DynArray@PAUBlock@?$MemPoolT@$0DE@@tinyxml2@@$09@tinyxml2@@QAEXPAUBlock@?$MemPoolT@$0DE@@2@@Z" PURGE="4" COMMENT="" />
    <EXPORT ORDINAL="4483" NAME="?Push@?$DynArray@PBD$09@tinyxml2@@QAEXPBD@Z" PURGE="4" COMMENT="" />
    <EXPORT ORDINAL="4484" NAME="?PushArr@?$DynArray@D$0BE@@tinyxml2@@QAEPADH@Z" PURGE="4" COMMENT="" />
    <EXPORT ORDINAL="4485" NAME="?PushAttribute@XMLPrinter@tinyxml2@@QAEXPBD0@Z" PURGE="8" COMMENT="" />
    <EXPORT ORDINAL="4486" NAME="?PushAttribute@XMLPrinter@tinyxml2@@QAEXPBDH@Z" PURGE="8" COMMENT="" />
    <EXPORT ORDINAL="4487" NAME="?PushAttribute@XMLPrinter@tinyxml2@@QAEXPBDI@Z" PURGE="8" COMMENT="" />
    <EXPORT ORDINAL="4488" NAME="?PushAttribute@XMLPrinter@tinyxml2@@QAEXPBDN@Z" PURGE="12" COMMENT="" />
    <EXPORT ORDINAL="4489" NAME="?PushAttribute@XMLPrinter@tinyxml2@@QAEXPBD_N@Z" PURGE="8" COMMENT="" />
    <EXPORT ORDINAL="4490" NAME="?PushComment@XMLPrinter@tinyxml2@@QAEXPBD@Z" PURGE="4" COMMENT="" />
    <EXPORT ORDINAL="4491" NAME="?PushDeclaration@XMLPrinter@tinyxml2@@QAEXPBD@Z" PURGE="4" COMMENT="" />
    <EXPORT ORDINAL="4492" NAME="?PushHeader@XMLPrinter@tinyxml2@@QAEX_N0@Z" PURGE="8" COMMENT="" />
    <EXPORT ORDINAL="4493" NAME="?PushText@XMLPrinter@tinyxml2@@QAEXH@Z" PURGE="4" COMMENT="" />
    <EXPORT ORDINAL="4494" NAME="?PushText@XMLPrinter@tinyxml2@@QAEXI@Z" PURGE="4" COMMENT="" />
    <EXPORT ORDINAL="4495" NAME="?PushText@XMLPrinter@tinyxml2@@QAEXM@Z" PURGE="4" COMMENT="" />
    <EXPORT ORDINAL="4496" NAME="?PushText@XMLPrinter@tinyxml2@@QAEXN@Z" PURGE="8" COMMENT="" />
    <EXPORT ORDINAL="4497" NAME="?PushText@XMLPrinter@tinyxml2@@QAEXPBD_N@Z" PURGE="8" COMMENT="" />
    <EXPORT ORDINAL="4498" NAME="?PushText@XMLPrinter@tinyxml2@@QAEX_N@Z" PURGE="4" COMMENT="" />
    <EXPORT ORDINAL="4499" NAME="?PushUnknown@XMLPrinter@tinyxml2@@QAEXPBD@Z" PURGE="4" COMMENT="" />
    <EXPORT ORDINAL="4500" NAME="?QueryBoolAttribute@XMLElement@tinyxml2@@QBE?AW4XMLError@2@PBDPA_N@Z" PURGE="8" COMMENT="" />
    <EXPORT ORDINAL="4501" NAME="?QueryBoolText@XMLElement@tinyxml2@@QBE?AW4XMLError@2@PA_N@Z" PURGE="4" COMMENT="" />
    <EXPORT ORDINAL="4502" NAME="?QueryBoolValue@XMLAttribute@tinyxml2@@QBE?AW4XMLError@2@PA_N@Z" PURGE="4" COMMENT="" />
    <EXPORT ORDINAL="4503" NAME="?QueryDoubleAttribute@XMLElement@tinyxml2@@QBE?AW4XMLError@2@PBDPAN@Z" PURGE="8" COMMENT="" />
    <EXPORT ORDINAL="4504" NAME="?QueryDoubleText@XMLElement@tinyxml2@@QBE?AW4XMLError@2@PAN@Z" PURGE="4" COMMENT="" />
    <EXPORT ORDINAL="4505" NAME="?QueryDoubleValue@XMLAttribute@tinyxml2@@QBE?AW4XMLError@2@PAN@Z" PURGE="4" COMMENT="" />
    <EXPORT ORDINAL="4506" NAME="?QueryFloatAttribute@XMLElement@tinyxml2@@QBE?AW4XMLError@2@PBDPAM@Z" PURGE="8" COMMENT="" />
    <EXPORT ORDINAL="4507" NAME="?QueryFloatText@XMLElement@tinyxml2@@QBE?AW4XMLError@2@PAM@Z" PURGE="4" COMMENT="" />
    <EXPORT ORDINAL="4508" NAME="?QueryFloatValue@XMLAttribute@tinyxml2@@QBE?AW4XMLError@2@PAM@Z" PURGE="4" COMMENT="" />
    <EXPORT ORDINAL="4509" NAME="?QueryIntAttribute@XMLElement@tinyxml2@@QBE?AW4XMLError@2@PBDPAH@Z" PURGE="8" COMMENT="" />
    <EXPORT ORDINAL="4510" NAME="?QueryIntText@XMLElement@tinyxml2@@QBE?AW4XMLError@2@PAH@Z" PURGE="4" COMMENT="" />
    <EXPORT ORDINAL="4511" NAME="?QueryIntValue@XMLAttribute@tinyxml2@@QBE?AW4XMLError@2@PAH@Z" PURGE="4" COMMENT="" />
    <EXPORT ORDINAL="4512" NAME="?QueryUnsignedAttribute@XMLElement@tinyxml2@@QBE?AW4XMLError@2@PBDPAI@Z" PURGE="8" COMMENT="" />
    <EXPORT ORDINAL="4513" NAME="?QueryUnsignedText@XMLElement@tinyxml2@@QBE?AW4XMLError@2@PAI@Z" PURGE="4" COMMENT="" />
    <EXPORT ORDINAL="4514" NAME="?QueryUnsignedValue@XMLAttribute@tinyxml2@@QBE?AW4XMLError@2@PAI@Z" PURGE="4" COMMENT="" />
    <EXPORT ORDINAL="4515" NAME="?RED@Color3B@cocos2d@@2U12@B" PURGE="-1" COMMENT="" />
    <EXPORT ORDINAL="4516" NAME="?RED@Color4B@cocos2d@@2U12@B" PURGE="-1" COMMENT="" />
    <EXPORT ORDINAL="4517" NAME="?RED@Color4F@cocos2d@@2U12@B" PURGE="-1" COMMENT="" />
    <EXPORT ORDINAL="4518" NAME="?RESPONSE_BUFFER_SIZE@HttpClient@network@cocos2d@@2HB" PURGE="-1" COMMENT="" />
    <EXPORT ORDINAL="4519" NAME="?RGBfromHSV@ControlUtils@extension@cocos2d@@SA?AURGBA@23@UHSV@23@@Z" PURGE="0" COMMENT="" />
    <EXPORT ORDINAL="4520" NAME="?ReadBOM@XMLUtil@tinyxml2@@SAPBDPBDPA_N@Z" PURGE="0" COMMENT="" />
    <EXPORT ORDINAL="4521" NAME="?ReadCocoBinBuff@CocoLoader@cocostudio@@QAE_NPAD@Z" PURGE="4" COMMENT="" />
    <EXPORT ORDINAL="4522" NAME="?RectApplyAffineTransform@cocos2d@@YA?AVRect@1@ABV21@ABUAffineTransform@1@@Z" PURGE="0" COMMENT="" />
    <EXPORT ORDINAL="4523" NAME="?RectApplyTransform@cocos2d@@YA?AVRect@1@ABV21@ABVMat4@1@@Z" PURGE="0" COMMENT="" />
    <EXPORT ORDINAL="4524" NAME="?RectFromString@cocos2d@@YA?AVRect@1@ABV?$basic_string@DU?$char_traits@D@std@@V?$allocator@D@2@@std@@@Z" PURGE="0" COMMENT="" />
    <EXPORT ORDINAL="4525" NAME="?RectUnion@ControlUtils@extension@cocos2d@@SA?AVRect@3@ABV43@0@Z" PURGE="0" COMMENT="" />
    <EXPORT ORDINAL="4526" NAME="?Repaint@VideoPlayer@ui@experimental@cocos2d@@UAEXXZ" PURGE="0" COMMENT="" />
    <EXPORT ORDINAL="4527" NAME="?Reset@StrPair@tinyxml2@@AAEXXZ" PURGE="0" COMMENT="" />
    <EXPORT ORDINAL="4528" NAME="?RootElement@XMLDocument@tinyxml2@@QAEPAVXMLElement@2@XZ" PURGE="0" COMMENT="" />
    <EXPORT ORDINAL="4529" NAME="?RootElement@XMLDocument@tinyxml2@@QBEPBVXMLElement@2@XZ" PURGE="0" COMMENT="" />
    <EXPORT ORDINAL="4530" NAME="?SHADER_3D_PARTICLE_COLOR@GLProgram@cocos2d@@2PBDB" PURGE="-1" COMMENT="" />
    <EXPORT ORDINAL="4531" NAME="?SHADER_3D_PARTICLE_TEXTURE@GLProgram@cocos2d@@2PBDB" PURGE="-1" COMMENT="" />
    <EXPORT ORDINAL="4532" NAME="?SHADER_3D_POSITION@GLProgram@cocos2d@@2PBDB" PURGE="-1" COMMENT="" />
    <EXPORT ORDINAL="4533" NAME="?SHADER_3D_POSITION_BUMPEDNORMAL_TEXTURE@GLProgram@cocos2d@@2PBDB" PURGE="-1" COMMENT="" />
    <EXPORT ORDINAL="4534" NAME="?SHADER_3D_POSITION_NORMAL@GLProgram@cocos2d@@2PBDB" PURGE="-1" COMMENT="" />
    <EXPORT ORDINAL="4535" NAME="?SHADER_3D_POSITION_NORMAL_TEXTURE@GLProgram@cocos2d@@2PBDB" PURGE="-1" COMMENT="" />
    <EXPORT ORDINAL="4536" NAME="?SHADER_3D_POSITION_TEXTURE@GLProgram@cocos2d@@2PBDB" PURGE="-1" COMMENT="" />
    <EXPORT ORDINAL="4537" NAME="?SHADER_3D_SKINPOSITION_BUMPEDNORMAL_TEXTURE@GLProgram@cocos2d@@2PBDB" PURGE="-1" COMMENT="" />
    <EXPORT ORDINAL="4538" NAME="?SHADER_3D_SKINPOSITION_NORMAL_TEXTURE@GLProgram@cocos2d@@2PBDB" PURGE="-1" COMMENT="" />
    <EXPORT ORDINAL="4539" NAME="?SHADER_3D_SKINPOSITION_TEXTURE@GLProgram@cocos2d@@2PBDB" PURGE="-1" COMMENT="" />
    <EXPORT ORDINAL="4540" NAME="?SHADER_3D_SKYBOX@GLProgram@cocos2d@@2PBDB" PURGE="-1" COMMENT="" />
    <EXPORT ORDINAL="4541" NAME="?SHADER_3D_TERRAIN@GLProgram@cocos2d@@2PBDB" PURGE="-1" COMMENT="" />
    <EXPORT ORDINAL="4542" NAME="?SHADER_CAMERA_CLEAR@GLProgram@cocos2d@@2PBDB" PURGE="-1" COMMENT="" />
    <EXPORT ORDINAL="4543" NAME="?SHADER_NAME_ETC1AS_POSITION_TEXTURE_COLOR@GLProgram@cocos2d@@2PBDB" PURGE="-1" COMMENT="" />
    <EXPORT ORDINAL="4544" NAME="?SHADER_NAME_ETC1AS_POSITION_TEXTURE_COLOR_NO_MVP@GLProgram@cocos2d@@2PBDB" PURGE="-1" COMMENT="" />
    <EXPORT ORDINAL="4545" NAME="?SHADER_NAME_ETC1AS_POSITION_TEXTURE_GRAY@GLProgram@cocos2d@@2PBDB" PURGE="-1" COMMENT="" />
    <EXPORT ORDINAL="4546" NAME="?SHADER_NAME_ETC1AS_POSITION_TEXTURE_GRAY_NO_MVP@GLProgram@cocos2d@@2PBDB" PURGE="-1" COMMENT="" />
    <EXPORT ORDINAL="4547" NAME="?SHADER_NAME_LABEL_DISTANCEFIELD_GLOW@GLProgram@cocos2d@@2PBDB" PURGE="-1" COMMENT="" />
    <EXPORT ORDINAL="4548" NAME="?SHADER_NAME_LABEL_DISTANCEFIELD_NORMAL@GLProgram@cocos2d@@2PBDB" PURGE="-1" COMMENT="" />
    <EXPORT ORDINAL="4549" NAME="?SHADER_NAME_LABEL_NORMAL@GLProgram@cocos2d@@2PBDB" PURGE="-1" COMMENT="" />
    <EXPORT ORDINAL="4550" NAME="?SHADER_NAME_LABEL_OUTLINE@GLProgram@cocos2d@@2PBDB" PURGE="-1" COMMENT="" />
    <EXPORT ORDINAL="4551" NAME="?SHADER_NAME_POSITION_COLOR@GLProgram@cocos2d@@2PBDB" PURGE="-1" COMMENT="" />
    <EXPORT ORDINAL="4552" NAME="?SHADER_NAME_POSITION_COLOR_NO_MVP@GLProgram@cocos2d@@2PBDB" PURGE="-1" COMMENT="" />
    <EXPORT ORDINAL="4553" NAME="?SHADER_NAME_POSITION_COLOR_TEXASPOINTSIZE@GLProgram@cocos2d@@2PBDB" PURGE="-1" COMMENT="" />
    <EXPORT ORDINAL="4554" NAME="?SHADER_NAME_POSITION_GRAYSCALE@GLProgram@cocos2d@@2PBDB" PURGE="-1" COMMENT="" />
    <EXPORT ORDINAL="4555" NAME="?SHADER_NAME_POSITION_LENGTH_TEXTURE_COLOR@GLProgram@cocos2d@@2PBDB" PURGE="-1" COMMENT="" />
    <EXPORT ORDINAL="4556" NAME="?SHADER_NAME_POSITION_TEXTURE@GLProgram@cocos2d@@2PBDB" PURGE="-1" COMMENT="" />
    <EXPORT ORDINAL="4557" NAME="?SHADER_NAME_POSITION_TEXTURE_A8_COLOR@GLProgram@cocos2d@@2PBDB" PURGE="-1" COMMENT="" />
    <EXPORT ORDINAL="4558" NAME="?SHADER_NAME_POSITION_TEXTURE_ALPHA_TEST@GLProgram@cocos2d@@2PBDB" PURGE="-1" COMMENT="" />
    <EXPORT ORDINAL="4559" NAME="?SHADER_NAME_POSITION_TEXTURE_ALPHA_TEST_NO_MV@GLProgram@cocos2d@@2PBDB" PURGE="-1" COMMENT="" />
    <EXPORT ORDINAL="4560" NAME="?SHADER_NAME_POSITION_TEXTURE_COLOR@GLProgram@cocos2d@@2PBDB" PURGE="-1" COMMENT="" />
    <EXPORT ORDINAL="4561" NAME="?SHADER_NAME_POSITION_TEXTURE_COLOR_NO_MVP@GLProgram@cocos2d@@2PBDB" PURGE="-1" COMMENT="" />
    <EXPORT ORDINAL="4562" NAME="?SHADER_NAME_POSITION_TEXTURE_U_COLOR@GLProgram@cocos2d@@2PBDB" PURGE="-1" COMMENT="" />
    <EXPORT ORDINAL="4563" NAME="?SHADER_NAME_POSITION_U_COLOR@GLProgram@cocos2d@@2PBDB" PURGE="-1" COMMENT="" />
    <EXPORT ORDINAL="4564" NAME="?START_ACT@PlayableFrame@timeline@cocostudio@@0V?$basic_string@DU?$char_traits@D@std@@V?$allocator@D@2@@std@@B" PURGE="-1" COMMENT="" />
    <EXPORT ORDINAL="4565" NAME="?STD_STRING_EMPTY@cocos2d@@3V?$basic_string@DU?$char_traits@D@std@@V?$allocator@D@2@@std@@B" PURGE="-1" COMMENT="" />
    <EXPORT ORDINAL="4566" NAME="?STOP_ACT@PlayableFrame@timeline@cocostudio@@0V?$basic_string@DU?$char_traits@D@std@@V?$allocator@D@2@@std@@B" PURGE="-1" COMMENT="" />
    <EXPORT ORDINAL="4567" NAME="?SaveFile@XMLDocument@tinyxml2@@QAE?AW4XMLError@2@PAU_iobuf@@_N@Z" PURGE="8" COMMENT="" />
    <EXPORT ORDINAL="4568" NAME="?SaveFile@XMLDocument@tinyxml2@@QAE?AW4XMLError@2@PBD_N@Z" PURGE="8" COMMENT="" />
    <EXPORT ORDINAL="4569" NAME="?SealElement@XMLPrinter@tinyxml2@@AAEXXZ" PURGE="0" COMMENT="" />
    <EXPORT ORDINAL="4570" NAME="?Set@StrPair@tinyxml2@@QAEXPAD0H@Z" PURGE="12" COMMENT="" />
    <EXPORT ORDINAL="4571" NAME="?SetAttribute@XMLAttribute@tinyxml2@@QAEXH@Z" PURGE="4" COMMENT="" />
    <EXPORT ORDINAL="4572" NAME="?SetAttribute@XMLAttribute@tinyxml2@@QAEXI@Z" PURGE="4" COMMENT="" />
    <EXPORT ORDINAL="4573" NAME="?SetAttribute@XMLAttribute@tinyxml2@@QAEXM@Z" PURGE="4" COMMENT="" />
    <EXPORT ORDINAL="4574" NAME="?SetAttribute@XMLAttribute@tinyxml2@@QAEXN@Z" PURGE="8" COMMENT="" />
    <EXPORT ORDINAL="4575" NAME="?SetAttribute@XMLAttribute@tinyxml2@@QAEXPBD@Z" PURGE="4" COMMENT="" />
    <EXPORT ORDINAL="4576" NAME="?SetAttribute@XMLAttribute@tinyxml2@@QAEX_N@Z" PURGE="4" COMMENT="" />
    <EXPORT ORDINAL="4577" NAME="?SetAttribute@XMLElement@tinyxml2@@QAEXPBD0@Z" PURGE="8" COMMENT="" />
    <EXPORT ORDINAL="4578" NAME="?SetAttribute@XMLElement@tinyxml2@@QAEXPBDH@Z" PURGE="8" COMMENT="" />
    <EXPORT ORDINAL="4579" NAME="?SetAttribute@XMLElement@tinyxml2@@QAEXPBDI@Z" PURGE="8" COMMENT="" />
    <EXPORT ORDINAL="4580" NAME="?SetAttribute@XMLElement@tinyxml2@@QAEXPBDN@Z" PURGE="12" COMMENT="" />
    <EXPORT ORDINAL="4581" NAME="?SetAttribute@XMLElement@tinyxml2@@QAEXPBD_N@Z" PURGE="8" COMMENT="" />
    <EXPORT ORDINAL="4582" NAME="?SetBOM@XMLDocument@tinyxml2@@QAEX_N@Z" PURGE="4" COMMENT="" />
    <EXPORT ORDINAL="4583" NAME="?SetCData@XMLText@tinyxml2@@QAEX_N@Z" PURGE="4" COMMENT="" />
    <EXPORT ORDINAL="4584" NAME="?SetError@XMLDocument@tinyxml2@@QAEXW4XMLError@2@PBD1@Z" PURGE="12" COMMENT="" />
    <EXPORT ORDINAL="4585" NAME="?SetInternedStr@StrPair@tinyxml2@@QAEXPBD@Z" PURGE="4" COMMENT="" />
    <EXPORT ORDINAL="4586" NAME="?SetName@XMLAttribute@tinyxml2@@AAEXPBD@Z" PURGE="4" COMMENT="" />
    <EXPORT ORDINAL="4587" NAME="?SetName@XMLElement@tinyxml2@@QAEXPBD_N@Z" PURGE="8" COMMENT="" />
    <EXPORT ORDINAL="4588" NAME="?SetStr@StrPair@tinyxml2@@QAEXPBDH@Z" PURGE="8" COMMENT="" />
    <EXPORT ORDINAL="4589" NAME="?SetTracked@?$MemPoolT@$0CE@@tinyxml2@@UAEXXZ" PURGE="0" COMMENT="" />
    <EXPORT ORDINAL="4590" NAME="?SetTracked@?$MemPoolT@$0CM@@tinyxml2@@UAEXXZ" PURGE="0" COMMENT="" />
    <EXPORT ORDINAL="4591" NAME="?SetTracked@?$MemPoolT@$0DA@@tinyxml2@@UAEXXZ" PURGE="0" COMMENT="" />
    <EXPORT ORDINAL="4592" NAME="?SetTracked@?$MemPoolT@$0DE@@tinyxml2@@UAEXXZ" PURGE="0" COMMENT="" />
    <EXPORT ORDINAL="4593" NAME="?SetValue@XMLNode@tinyxml2@@QAEXPBD_N@Z" PURGE="8" COMMENT="" />
    <EXPORT ORDINAL="4594" NAME="?ShallowClone@XMLComment@tinyxml2@@UBEPAVXMLNode@2@PAVXMLDocument@2@@Z" PURGE="4" COMMENT="" />
    <EXPORT ORDINAL="4595" NAME="?ShallowClone@XMLDeclaration@tinyxml2@@UBEPAVXMLNode@2@PAVXMLDocument@2@@Z" PURGE="4" COMMENT="" />
    <EXPORT ORDINAL="4596" NAME="?ShallowClone@XMLDocument@tinyxml2@@UBEPAVXMLNode@2@PAV12@@Z" PURGE="4" COMMENT="" />
    <EXPORT ORDINAL="4597" NAME="?ShallowClone@XMLElement@tinyxml2@@UBEPAVXMLNode@2@PAVXMLDocument@2@@Z" PURGE="4" COMMENT="" />
    <EXPORT ORDINAL="4598" NAME="?ShallowClone@XMLText@tinyxml2@@UBEPAVXMLNode@2@PAVXMLDocument@2@@Z" PURGE="4" COMMENT="" />
    <EXPORT ORDINAL="4599" NAME="?ShallowClone@XMLUnknown@tinyxml2@@UBEPAVXMLNode@2@PAVXMLDocument@2@@Z" PURGE="4" COMMENT="" />
    <EXPORT ORDINAL="4600" NAME="?ShallowEqual@XMLComment@tinyxml2@@UBE_NPBVXMLNode@2@@Z" PURGE="4" COMMENT="" />
    <EXPORT ORDINAL="4601" NAME="?ShallowEqual@XMLDeclaration@tinyxml2@@UBE_NPBVXMLNode@2@@Z" PURGE="4" COMMENT="" />
    <EXPORT ORDINAL="4602" NAME="?ShallowEqual@XMLDocument@tinyxml2@@UBE_NPBVXMLNode@2@@Z" PURGE="4" COMMENT="" />
    <EXPORT ORDINAL="4603" NAME="?ShallowEqual@XMLElement@tinyxml2@@UBE_NPBVXMLNode@2@@Z" PURGE="4" COMMENT="" />
    <EXPORT ORDINAL="4604" NAME="?ShallowEqual@XMLText@tinyxml2@@UBE_NPBVXMLNode@2@@Z" PURGE="4" COMMENT="" />
    <EXPORT ORDINAL="4605" NAME="?ShallowEqual@XMLUnknown@tinyxml2@@UBE_NPBVXMLNode@2@@Z" PURGE="4" COMMENT="" />
    <EXPORT ORDINAL="4606" NAME="?Size@?$DynArray@D$0BE@@tinyxml2@@QBEHXZ" PURGE="0" COMMENT="" />
    <EXPORT ORDINAL="4607" NAME="?Size@?$DynArray@PAUBlock@?$MemPoolT@$0CE@@tinyxml2@@$09@tinyxml2@@QBEHXZ" PURGE="0" COMMENT="" />
    <EXPORT ORDINAL="4608" NAME="?Size@?$DynArray@PAUBlock@?$MemPoolT@$0CM@@tinyxml2@@$09@tinyxml2@@QBEHXZ" PURGE="0" COMMENT="" />
    <EXPORT ORDINAL="4609" NAME="?Size@?$DynArray@PAUBlock@?$MemPoolT@$0DA@@tinyxml2@@$09@tinyxml2@@QBEHXZ" PURGE="0" COMMENT="" />
    <EXPORT ORDINAL="4610" NAME="?Size@?$DynArray@PAUBlock@?$MemPoolT@$0DE@@tinyxml2@@$09@tinyxml2@@QBEHXZ" PURGE="0" COMMENT="" />
    <EXPORT ORDINAL="4611" NAME="?SizeFromString@cocos2d@@YA?AVSize@1@ABV?$basic_string@DU?$char_traits@D@std@@V?$allocator@D@2@@std@@@Z" PURGE="0" COMMENT="" />
    <EXPORT ORDINAL="4612" NAME="?SkipWhiteSpace@XMLUtil@tinyxml2@@SAPADPAD@Z" PURGE="0" COMMENT="" />
    <EXPORT ORDINAL="4613" NAME="?SkipWhiteSpace@XMLUtil@tinyxml2@@SAPBDPBD@Z" PURGE="0" COMMENT="" />
    <EXPORT ORDINAL="4614" NAME="?StringEqual@XMLUtil@tinyxml2@@SA_NPBD0H@Z" PURGE="0" COMMENT="" />
    <EXPORT ORDINAL="4615" NAME="?StringUtf8ToWideChar@cocos2d@@YA?AV?$basic_string@_WU?$char_traits@_W@std@@V?$allocator@_W@2@@std@@ABV?$basic_string@DU?$char_traits@D@std@@V?$allocator@D@2@@3@@Z" PURGE="0" COMMENT="" />
    <EXPORT ORDINAL="4616" NAME="?StringWideCharToUtf8@cocos2d@@YA?AV?$basic_string@DU?$char_traits@D@std@@V?$allocator@D@2@@std@@ABV?$basic_string@_WU?$char_traits@_W@std@@V?$allocator@_W@2@@3@@Z" PURGE="0" COMMENT="" />
    <EXPORT ORDINAL="4617" NAME="?TAG_UNSET@Controller@cocos2d@@2HB" PURGE="-1" COMMENT="" />
    <EXPORT ORDINAL="4618" NAME="?TIME_UNKNOWN@AudioEngine@experimental@cocos2d@@2MB" PURGE="-1" COMMENT="" />
    <EXPORT ORDINAL="4619" NAME="?TMXLayerTag@TMXTiledMap@cocos2d@@1HB" PURGE="-1" COMMENT="" />
    <EXPORT ORDINAL="4620" NAME="?ToBool@XMLUtil@tinyxml2@@SA_NPBDPA_N@Z" PURGE="0" COMMENT="" />
    <EXPORT ORDINAL="4621" NAME="?ToComment@XMLComment@tinyxml2@@UAEPAV12@XZ" PURGE="0" COMMENT="" />
    <EXPORT ORDINAL="4622" NAME="?ToComment@XMLComment@tinyxml2@@UBEPBV12@XZ" PURGE="0" COMMENT="" />
    <EXPORT ORDINAL="4623" NAME="?ToComment@XMLNode@tinyxml2@@UAEPAVXMLComment@2@XZ" PURGE="0" COMMENT="" />
    <EXPORT ORDINAL="4624" NAME="?ToComment@XMLNode@tinyxml2@@UBEPBVXMLComment@2@XZ" PURGE="0" COMMENT="" />
    <EXPORT ORDINAL="4625" NAME="?ToDeclaration@XMLConstHandle@tinyxml2@@QBEPBVXMLDeclaration@2@XZ" PURGE="0" COMMENT="" />
    <EXPORT ORDINAL="4626" NAME="?ToDeclaration@XMLDeclaration@tinyxml2@@UAEPAV12@XZ" PURGE="0" COMMENT="" />
    <EXPORT ORDINAL="4627" NAME="?ToDeclaration@XMLDeclaration@tinyxml2@@UBEPBV12@XZ" PURGE="0" COMMENT="" />
    <EXPORT ORDINAL="4628" NAME="?ToDeclaration@XMLHandle@tinyxml2@@QAEPAVXMLDeclaration@2@XZ" PURGE="0" COMMENT="" />
    <EXPORT ORDINAL="4629" NAME="?ToDeclaration@XMLNode@tinyxml2@@UAEPAVXMLDeclaration@2@XZ" PURGE="0" COMMENT="" />
    <EXPORT ORDINAL="4630" NAME="?ToDeclaration@XMLNode@tinyxml2@@UBEPBVXMLDeclaration@2@XZ" PURGE="0" COMMENT="" />
    <EXPORT ORDINAL="4631" NAME="?ToDocument@XMLDocument@tinyxml2@@UAEPAV12@XZ" PURGE="0" COMMENT="" />
    <EXPORT ORDINAL="4632" NAME="?ToDocument@XMLDocument@tinyxml2@@UBEPBV12@XZ" PURGE="0" COMMENT="" />
    <EXPORT ORDINAL="4633" NAME="?ToDocument@XMLNode@tinyxml2@@UAEPAVXMLDocument@2@XZ" PURGE="0" COMMENT="" />
    <EXPORT ORDINAL="4634" NAME="?ToDocument@XMLNode@tinyxml2@@UBEPBVXMLDocument@2@XZ" PURGE="0" COMMENT="" />
    <EXPORT ORDINAL="4635" NAME="?ToDouble@XMLUtil@tinyxml2@@SA_NPBDPAN@Z" PURGE="0" COMMENT="" />
    <EXPORT ORDINAL="4636" NAME="?ToElement@XMLConstHandle@tinyxml2@@QBEPBVXMLElement@2@XZ" PURGE="0" COMMENT="" />
    <EXPORT ORDINAL="4637" NAME="?ToElement@XMLElement@tinyxml2@@UAEPAV12@XZ" PURGE="0" COMMENT="" />
    <EXPORT ORDINAL="4638" NAME="?ToElement@XMLElement@tinyxml2@@UBEPBV12@XZ" PURGE="0" COMMENT="" />
    <EXPORT ORDINAL="4639" NAME="?ToElement@XMLHandle@tinyxml2@@QAEPAVXMLElement@2@XZ" PURGE="0" COMMENT="" />
    <EXPORT ORDINAL="4640" NAME="?ToElement@XMLNode@tinyxml2@@UAEPAVXMLElement@2@XZ" PURGE="0" COMMENT="" />
    <EXPORT ORDINAL="4641" NAME="?ToElement@XMLNode@tinyxml2@@UBEPBVXMLElement@2@XZ" PURGE="0" COMMENT="" />
    <EXPORT ORDINAL="4642" NAME="?ToFloat@XMLUtil@tinyxml2@@SA_NPBDPAM@Z" PURGE="0" COMMENT="" />
    <EXPORT ORDINAL="4643" NAME="?ToInt@XMLUtil@tinyxml2@@SA_NPBDPAH@Z" PURGE="0" COMMENT="" />
    <EXPORT ORDINAL="4644" NAME="?ToNode@XMLConstHandle@tinyxml2@@QBEPBVXMLNode@2@XZ" PURGE="0" COMMENT="" />
    <EXPORT ORDINAL="4645" NAME="?ToNode@XMLHandle@tinyxml2@@QAEPAVXMLNode@2@XZ" PURGE="0" COMMENT="" />
    <EXPORT ORDINAL="4646" NAME="?ToStr@XMLUtil@tinyxml2@@SAXHPADH@Z" PURGE="0" COMMENT="" />
    <EXPORT ORDINAL="4647" NAME="?ToStr@XMLUtil@tinyxml2@@SAXIPADH@Z" PURGE="0" COMMENT="" />
    <EXPORT ORDINAL="4648" NAME="?ToStr@XMLUtil@tinyxml2@@SAXMPADH@Z" PURGE="0" COMMENT="" />
    <EXPORT ORDINAL="4649" NAME="?ToStr@XMLUtil@tinyxml2@@SAXNPADH@Z" PURGE="0" COMMENT="" />
    <EXPORT ORDINAL="4650" NAME="?ToStr@XMLUtil@tinyxml2@@SAX_NPADH@Z" PURGE="0" COMMENT="" />
    <EXPORT ORDINAL="4651" NAME="?ToText@XMLConstHandle@tinyxml2@@QBEPBVXMLText@2@XZ" PURGE="0" COMMENT="" />
    <EXPORT ORDINAL="4652" NAME="?ToText@XMLHandle@tinyxml2@@QAEPAVXMLText@2@XZ" PURGE="0" COMMENT="" />
    <EXPORT ORDINAL="4653" NAME="?ToText@XMLNode@tinyxml2@@UAEPAVXMLText@2@XZ" PURGE="0" COMMENT="" />
    <EXPORT ORDINAL="4654" NAME="?ToText@XMLNode@tinyxml2@@UBEPBVXMLText@2@XZ" PURGE="0" COMMENT="" />
    <EXPORT ORDINAL="4655" NAME="?ToText@XMLText@tinyxml2@@UAEPAV12@XZ" PURGE="0" COMMENT="" />
    <EXPORT ORDINAL="4656" NAME="?ToText@XMLText@tinyxml2@@UBEPBV12@XZ" PURGE="0" COMMENT="" />
    <EXPORT ORDINAL="4657" NAME="?ToUnknown@XMLConstHandle@tinyxml2@@QBEPBVXMLUnknown@2@XZ" PURGE="0" COMMENT="" />
    <EXPORT ORDINAL="4658" NAME="?ToUnknown@XMLHandle@tinyxml2@@QAEPAVXMLUnknown@2@XZ" PURGE="0" COMMENT="" />
    <EXPORT ORDINAL="4659" NAME="?ToUnknown@XMLNode@tinyxml2@@UAEPAVXMLUnknown@2@XZ" PURGE="0" COMMENT="" />
    <EXPORT ORDINAL="4660" NAME="?ToUnknown@XMLNode@tinyxml2@@UBEPBVXMLUnknown@2@XZ" PURGE="0" COMMENT="" />
    <EXPORT ORDINAL="4661" NAME="?ToUnknown@XMLUnknown@tinyxml2@@UAEPAV12@XZ" PURGE="0" COMMENT="" />
    <EXPORT ORDINAL="4662" NAME="?ToUnknown@XMLUnknown@tinyxml2@@UBEPBV12@XZ" PURGE="0" COMMENT="" />
    <EXPORT ORDINAL="4663" NAME="?ToUnsigned@XMLUtil@tinyxml2@@SA_NPBDPAI@Z" PURGE="0" COMMENT="" />
    <EXPORT ORDINAL="4664" NAME="?TransformConcat@cocos2d@@YA?AVMat4@1@ABV21@0@Z" PURGE="0" COMMENT="" />
    <EXPORT ORDINAL="4665" NAME="?Type@ComAttribute@cocostudio@@2UTInfo@ObjectFactory@cocos2d@@A" PURGE="-1" COMMENT="" />
    <EXPORT ORDINAL="4666" NAME="?Type@ComAudio@cocostudio@@2UTInfo@ObjectFactory@cocos2d@@A" PURGE="-1" COMMENT="" />
    <EXPORT ORDINAL="4667" NAME="?Type@ComController@cocostudio@@2UTInfo@ObjectFactory@cocos2d@@A" PURGE="-1" COMMENT="" />
    <EXPORT ORDINAL="4668" NAME="?Type@ComExtensionData@cocostudio@@2UTInfo@ObjectFactory@cocos2d@@A" PURGE="-1" COMMENT="" />
    <EXPORT ORDINAL="4669" NAME="?Type@ComRender@cocostudio@@2UTInfo@ObjectFactory@cocos2d@@A" PURGE="-1" COMMENT="" />
    <EXPORT ORDINAL="4670" NAME="?UNIFORM_NAME_ALPHA_TEST_VALUE@GLProgram@cocos2d@@2PBDB" PURGE="-1" COMMENT="" />
    <EXPORT ORDINAL="4671" NAME="?UNIFORM_NAME_AMBIENT_COLOR@GLProgram@cocos2d@@2PBDB" PURGE="-1" COMMENT="" />
    <EXPORT ORDINAL="4672" NAME="?UNIFORM_NAME_COS_TIME@GLProgram@cocos2d@@2PBDB" PURGE="-1" COMMENT="" />
    <EXPORT ORDINAL="4673" NAME="?UNIFORM_NAME_MULTIVIEW_MVP_MATRIX@GLProgram@cocos2d@@2PBDB" PURGE="-1" COMMENT="" />
    <EXPORT ORDINAL="4674" NAME="?UNIFORM_NAME_MULTIVIEW_P_MATRIX@GLProgram@cocos2d@@2PBDB" PURGE="-1" COMMENT="" />
    <EXPORT ORDINAL="4675" NAME="?UNIFORM_NAME_MVP_MATRIX@GLProgram@cocos2d@@2PBDB" PURGE="-1" COMMENT="" />
    <EXPORT ORDINAL="4676" NAME="?UNIFORM_NAME_MV_MATRIX@GLProgram@cocos2d@@2PBDB" PURGE="-1" COMMENT="" />
    <EXPORT ORDINAL="4677" NAME="?UNIFORM_NAME_NORMAL_MATRIX@GLProgram@cocos2d@@2PBDB" PURGE="-1" COMMENT="" />
    <EXPORT ORDINAL="4678" NAME="?UNIFORM_NAME_P_MATRIX@GLProgram@cocos2d@@2PBDB" PURGE="-1" COMMENT="" />
    <EXPORT ORDINAL="4679" NAME="?UNIFORM_NAME_RANDOM01@GLProgram@cocos2d@@2PBDB" PURGE="-1" COMMENT="" />
    <EXPORT ORDINAL="4680" NAME="?UNIFORM_NAME_SAMPLER0@GLProgram@cocos2d@@2PBDB" PURGE="-1" COMMENT="" />
    <EXPORT ORDINAL="4681" NAME="?UNIFORM_NAME_SAMPLER1@GLProgram@cocos2d@@2PBDB" PURGE="-1" COMMENT="" />
    <EXPORT ORDINAL="4682" NAME="?UNIFORM_NAME_SAMPLER2@GLProgram@cocos2d@@2PBDB" PURGE="-1" COMMENT="" />
    <EXPORT ORDINAL="4683" NAME="?UNIFORM_NAME_SAMPLER3@GLProgram@cocos2d@@2PBDB" PURGE="-1" COMMENT="" />
    <EXPORT ORDINAL="4684" NAME="?UNIFORM_NAME_SIN_TIME@GLProgram@cocos2d@@2PBDB" PURGE="-1" COMMENT="" />
    <EXPORT ORDINAL="4685" NAME="?UNIFORM_NAME_TIME@GLProgram@cocos2d@@2PBDB" PURGE="-1" COMMENT="" />
    <EXPORT ORDINAL="4686" NAME="?UNIT_W@Vec4@cocos2d@@2V12@B" PURGE="-1" COMMENT="" />
    <EXPORT ORDINAL="4687" NAME="?UNIT_X@Vec2@cocos2d@@2V12@B" PURGE="-1" COMMENT="" />
    <EXPORT ORDINAL="4688" NAME="?UNIT_X@Vec3@cocos2d@@2V12@B" PURGE="-1" COMMENT="" />
    <EXPORT ORDINAL="4689" NAME="?UNIT_X@Vec4@cocos2d@@2V12@B" PURGE="-1" COMMENT="" />
    <EXPORT ORDINAL="4690" NAME="?UNIT_Y@Vec2@cocos2d@@2V12@B" PURGE="-1" COMMENT="" />
    <EXPORT ORDINAL="4691" NAME="?UNIT_Y@Vec3@cocos2d@@2V12@B" PURGE="-1" COMMENT="" />
    <EXPORT ORDINAL="4692" NAME="?UNIT_Y@Vec4@cocos2d@@2V12@B" PURGE="-1" COMMENT="" />
    <EXPORT ORDINAL="4693" NAME="?UNIT_Z@Vec3@cocos2d@@2V12@B" PURGE="-1" COMMENT="" />
    <EXPORT ORDINAL="4694" NAME="?UNIT_Z@Vec4@cocos2d@@2V12@B" PURGE="-1" COMMENT="" />
    <EXPORT ORDINAL="4695" NAME="?UTF16ToUTF32@StringUtils@cocos2d@@YA_NABV?$basic_string@_SU?$char_traits@_S@std@@V?$allocator@_S@2@@std@@AAV?$basic_string@_UU?$char_traits@_U@std@@V?$allocator@_U@2@@4@@Z" PURGE="0" COMMENT="" />
    <EXPORT ORDINAL="4696" NAME="?UTF16ToUTF8@StringUtils@cocos2d@@YA_NABV?$basic_string@_SU?$char_traits@_S@std@@V?$allocator@_S@2@@std@@AAV?$basic_string@DU?$char_traits@D@std@@V?$allocator@D@2@@4@@Z" PURGE="0" COMMENT="" />
    <EXPORT ORDINAL="4697" NAME="?UTF32ToUTF16@StringUtils@cocos2d@@YA_NABV?$basic_string@_UU?$char_traits@_U@std@@V?$allocator@_U@2@@std@@AAV?$basic_string@_SU?$char_traits@_S@std@@V?$allocator@_S@2@@4@@Z" PURGE="0" COMMENT="" />
    <EXPORT ORDINAL="4698" NAME="?UTF32ToUTF8@StringUtils@cocos2d@@YA_NABV?$basic_string@_UU?$char_traits@_U@std@@V?$allocator@_U@2@@std@@AAV?$basic_string@DU?$char_traits@D@std@@V?$allocator@D@2@@4@@Z" PURGE="0" COMMENT="" />
    <EXPORT ORDINAL="4699" NAME="?UTF8StringToMultiByte@cocos2d@@YA?AV?$basic_string@DU?$char_traits@D@std@@V?$allocator@D@2@@std@@ABV23@@Z" PURGE="0" COMMENT="" />
    <EXPORT ORDINAL="4700" NAME="?UTF8ToUTF16@StringUtils@cocos2d@@YA_NABV?$basic_string@DU?$char_traits@D@std@@V?$allocator@D@2@@std@@AAV?$basic_string@_SU?$char_traits@_S@std@@V?$allocator@_S@2@@4@@Z" PURGE="0" COMMENT="" />
    <EXPORT ORDINAL="4701" NAME="?UTF8ToUTF32@StringUtils@cocos2d@@YA_NABV?$basic_string@DU?$char_traits@D@std@@V?$allocator@D@2@@std@@AAV?$basic_string@_UU?$char_traits@_U@std@@V?$allocator@_U@2@@4@@Z" PURGE="0" COMMENT="" />
    <EXPORT ORDINAL="4702" NAME="?Unlink@XMLNode@tinyxml2@@AAEXPAV12@@Z" PURGE="4" COMMENT="" />
    <EXPORT ORDINAL="4703" NAME="?UnsignedAttribute@XMLElement@tinyxml2@@QBEIPBD@Z" PURGE="4" COMMENT="" />
    <EXPORT ORDINAL="4704" NAME="?UnsignedValue@XMLAttribute@tinyxml2@@QBEIXZ" PURGE="0" COMMENT="" />
    <EXPORT ORDINAL="4705" NAME="?VALUE_TEXT_LINE_DEL@RichText@ui@cocos2d@@2V?$basic_string@DU?$char_traits@D@std@@V?$allocator@D@2@@std@@B" PURGE="-1" COMMENT="" />
    <EXPORT ORDINAL="4706" NAME="?VALUE_TEXT_LINE_NONE@RichText@ui@cocos2d@@2V?$basic_string@DU?$char_traits@D@std@@V?$allocator@D@2@@std@@B" PURGE="-1" COMMENT="" />
    <EXPORT ORDINAL="4707" NAME="?VALUE_TEXT_LINE_UNDER@RichText@ui@cocos2d@@2V?$basic_string@DU?$char_traits@D@std@@V?$allocator@D@2@@std@@B" PURGE="-1" COMMENT="" />
    <EXPORT ORDINAL="4708" NAME="?VALUE_TEXT_STYLE_GLOW@RichText@ui@cocos2d@@2V?$basic_string@DU?$char_traits@D@std@@V?$allocator@D@2@@std@@B" PURGE="-1" COMMENT="" />
    <EXPORT ORDINAL="4709" NAME="?VALUE_TEXT_STYLE_NONE@RichText@ui@cocos2d@@2V?$basic_string@DU?$char_traits@D@std@@V?$allocator@D@2@@std@@B" PURGE="-1" COMMENT="" />
    <EXPORT ORDINAL="4710" NAME="?VALUE_TEXT_STYLE_OUTLINE@RichText@ui@cocos2d@@2V?$basic_string@DU?$char_traits@D@std@@V?$allocator@D@2@@std@@B" PURGE="-1" COMMENT="" />
    <EXPORT ORDINAL="4711" NAME="?VALUE_TEXT_STYLE_SHADOW@RichText@ui@cocos2d@@2V?$basic_string@DU?$char_traits@D@std@@V?$allocator@D@2@@std@@B" PURGE="-1" COMMENT="" />
    <EXPORT ORDINAL="4712" NAME="?VBO_SIZE@Renderer@cocos2d@@2HB" PURGE="-1" COMMENT="" />
    <EXPORT ORDINAL="4713" NAME="?VERSION_ID@AssetsManagerEx@extension@cocos2d@@2V?$basic_string@DU?$char_traits@D@std@@V?$allocator@D@2@@std@@B" PURGE="-1" COMMENT="" />
    <EXPORT ORDINAL="4714" NAME="?Value@XMLAttribute@tinyxml2@@QBEPBDXZ" PURGE="0" COMMENT="" />
    <EXPORT ORDINAL="4715" NAME="?Value@XMLNode@tinyxml2@@QBEPBDXZ" PURGE="0" COMMENT="" />
    <EXPORT ORDINAL="4716" NAME="?ValueMapIntKeyNull@cocos2d@@3V?$unordered_map@HVValue@cocos2d@@U?$hash@H@std@@U?$equal_to@H@4@V?$allocator@U?$pair@$$CBHVValue@cocos2d@@@std@@@4@@std@@B" PURGE="-1" COMMENT="" />
    <EXPORT ORDINAL="4717" NAME="?ValueMapNull@cocos2d@@3V?$unordered_map@V?$basic_string@DU?$char_traits@D@std@@V?$allocator@D@2@@std@@VValue@cocos2d@@U?$hash@V?$basic_string@DU?$char_traits@D@std@@V?$allocator@D@2@@std@@@2@U?$equal_to@V?$basic_string@DU?$char_traits@D@std@@V?$allocator@D@2@@std@@@2@V?$allocator@U?$pair@$$CBV?$basic_string@DU?$char_traits@D@std@@V?$allocator@D@2@@std@@VValue@cocos2d@@@std@@@2@@std@@B" PURGE="-1" COMMENT="" />
    <EXPORT ORDINAL="4718" NAME="?ValueVectorNull@cocos2d@@3V?$vector@VValue@cocos2d@@V?$allocator@VValue@cocos2d@@@std@@@std@@B" PURGE="-1" COMMENT="" />
    <EXPORT ORDINAL="4719" NAME="?Visit@XMLPrinter@tinyxml2@@UAE_NABVXMLComment@2@@Z" PURGE="4" COMMENT="" />
    <EXPORT ORDINAL="4720" NAME="?Visit@XMLPrinter@tinyxml2@@UAE_NABVXMLDeclaration@2@@Z" PURGE="4" COMMENT="" />
    <EXPORT ORDINAL="4721" NAME="?Visit@XMLPrinter@tinyxml2@@UAE_NABVXMLText@2@@Z" PURGE="4" COMMENT="" />
    <EXPORT ORDINAL="4722" NAME="?Visit@XMLPrinter@tinyxml2@@UAE_NABVXMLUnknown@2@@Z" PURGE="4" COMMENT="" />
    <EXPORT ORDINAL="4723" NAME="?Visit@XMLVisitor@tinyxml2@@UAE_NABVXMLComment@2@@Z" PURGE="4" COMMENT="" />
    <EXPORT ORDINAL="4724" NAME="?Visit@XMLVisitor@tinyxml2@@UAE_NABVXMLDeclaration@2@@Z" PURGE="4" COMMENT="" />
    <EXPORT ORDINAL="4725" NAME="?Visit@XMLVisitor@tinyxml2@@UAE_NABVXMLText@2@@Z" PURGE="4" COMMENT="" />
    <EXPORT ORDINAL="4726" NAME="?Visit@XMLVisitor@tinyxml2@@UAE_NABVXMLUnknown@2@@Z" PURGE="4" COMMENT="" />
    <EXPORT ORDINAL="4727" NAME="?VisitEnter@XMLPrinter@tinyxml2@@UAE_NABVXMLDocument@2@@Z" PURGE="4" COMMENT="" />
    <EXPORT ORDINAL="4728" NAME="?VisitEnter@XMLPrinter@tinyxml2@@UAE_NABVXMLElement@2@PBVXMLAttribute@2@@Z" PURGE="8" COMMENT="" />
    <EXPORT ORDINAL="4729" NAME="?VisitEnter@XMLVisitor@tinyxml2@@UAE_NABVXMLDocument@2@@Z" PURGE="4" COMMENT="" />
    <EXPORT ORDINAL="4730" NAME="?VisitEnter@XMLVisitor@tinyxml2@@UAE_NABVXMLElement@2@PBVXMLAttribute@2@@Z" PURGE="8" COMMENT="" />
    <EXPORT ORDINAL="4731" NAME="?VisitExit@XMLPrinter@tinyxml2@@UAE_NABVXMLDocument@2@@Z" PURGE="4" COMMENT="" />
    <EXPORT ORDINAL="4732" NAME="?VisitExit@XMLPrinter@tinyxml2@@UAE_NABVXMLElement@2@@Z" PURGE="4" COMMENT="" />
    <EXPORT ORDINAL="4733" NAME="?VisitExit@XMLVisitor@tinyxml2@@UAE_NABVXMLDocument@2@@Z" PURGE="4" COMMENT="" />
    <EXPORT ORDINAL="4734" NAME="?VisitExit@XMLVisitor@tinyxml2@@UAE_NABVXMLElement@2@@Z" PURGE="4" COMMENT="" />
    <EXPORT ORDINAL="4735" NAME="?WHITE@Color3B@cocos2d@@2U12@B" PURGE="-1" COMMENT="" />
    <EXPORT ORDINAL="4736" NAME="?WHITE@Color4B@cocos2d@@2U12@B" PURGE="-1" COMMENT="" />
    <EXPORT ORDINAL="4737" NAME="?WHITE@Color4F@cocos2d@@2U12@B" PURGE="-1" COMMENT="" />
    <EXPORT ORDINAL="4738" NAME="?WhitespaceMode@XMLDocument@tinyxml2@@QBE?AW4Whitespace@2@XZ" PURGE="0" COMMENT="" />
    <EXPORT ORDINAL="4739" NAME="?YELLOW@Color3B@cocos2d@@2U12@B" PURGE="-1" COMMENT="" />
    <EXPORT ORDINAL="4740" NAME="?YELLOW@Color4B@cocos2d@@2U12@B" PURGE="-1" COMMENT="" />
    <EXPORT ORDINAL="4741" NAME="?YELLOW@Color4F@cocos2d@@2U12@B" PURGE="-1" COMMENT="" />
    <EXPORT ORDINAL="4742" NAME="?ZERO@Margin@ui@cocos2d@@2V123@B" PURGE="-1" COMMENT="" />
    <EXPORT ORDINAL="4743" NAME="?ZERO@Mat4@cocos2d@@2V12@B" PURGE="-1" COMMENT="" />
    <EXPORT ORDINAL="4744" NAME="?ZERO@Quaternion@cocos2d@@2V12@B" PURGE="-1" COMMENT="" />
    <EXPORT ORDINAL="4745" NAME="?ZERO@Rect@cocos2d@@2V12@B" PURGE="-1" COMMENT="" />
    <EXPORT ORDINAL="4746" NAME="?ZERO@Size@cocos2d@@2V12@B" PURGE="-1" COMMENT="" />
    <EXPORT ORDINAL="4747" NAME="?ZERO@Vec2@cocos2d@@2V12@B" PURGE="-1" COMMENT="" />
    <EXPORT ORDINAL="4748" NAME="?ZERO@Vec3@cocos2d@@2V12@B" PURGE="-1" COMMENT="" />
    <EXPORT ORDINAL="4749" NAME="?ZERO@Vec4@cocos2d@@2V12@B" PURGE="-1" COMMENT="" />
    <EXPORT ORDINAL="4750" NAME="?_FTInitialized@FontFreeType@cocos2d@@0_NA" PURGE="-1" COMMENT="" />
    <EXPORT ORDINAL="4751" NAME="?_FTlibrary@FontFreeType@cocos2d@@0PAUFT_LibraryRec_@@A" PURGE="-1" COMMENT="" />
    <EXPORT ORDINAL="4752" NAME="?__CCAffineTransformMake@cocos2d@@YA?AUAffineTransform@1@MMMMMM@Z" PURGE="0" COMMENT="" />
    <EXPORT ORDINAL="4753" NAME="?__CCPointApplyAffineTransform@cocos2d@@YA?AVVec2@1@ABV21@ABUAffineTransform@1@@Z" PURGE="0" COMMENT="" />
    <EXPORT ORDINAL="4754" NAME="?__CCSizeApplyAffineTransform@cocos2d@@YA?AVSize@1@ABV21@ABUAffineTransform@1@@Z" PURGE="0" COMMENT="" />
    <EXPORT ORDINAL="4755" NAME="?__Type@Button@ui@cocos2d@@2UTInfo@ObjectFactory@3@A" PURGE="-1" COMMENT="" />
    <EXPORT ORDINAL="4756" NAME="?__Type@ButtonReader@cocostudio@@2UTInfo@ObjectFactory@cocos2d@@A" PURGE="-1" COMMENT="" />
    <EXPORT ORDINAL="4757" NAME="?__Type@CheckBox@ui@cocos2d@@2UTInfo@ObjectFactory@3@A" PURGE="-1" COMMENT="" />
    <EXPORT ORDINAL="4758" NAME="?__Type@CheckBoxReader@cocostudio@@2UTInfo@ObjectFactory@cocos2d@@A" PURGE="-1" COMMENT="" />
    <EXPORT ORDINAL="4759" NAME="?__Type@GameMapReader@cocostudio@@2UTInfo@ObjectFactory@cocos2d@@A" PURGE="-1" COMMENT="" />
    <EXPORT ORDINAL="4760" NAME="?__Type@GameNode3DReader@cocostudio@@2UTInfo@ObjectFactory@cocos2d@@A" PURGE="-1" COMMENT="" />
    <EXPORT ORDINAL="4761" NAME="?__Type@ImageView@ui@cocos2d@@2UTInfo@ObjectFactory@3@A" PURGE="-1" COMMENT="" />
    <EXPORT ORDINAL="4762" NAME="?__Type@ImageViewReader@cocostudio@@2UTInfo@ObjectFactory@cocos2d@@A" PURGE="-1" COMMENT="" />
    <EXPORT ORDINAL="4763" NAME="?__Type@Layout@ui@cocos2d@@2UTInfo@ObjectFactory@3@A" PURGE="-1" COMMENT="" />
    <EXPORT ORDINAL="4764" NAME="?__Type@LayoutReader@cocostudio@@2UTInfo@ObjectFactory@cocos2d@@A" PURGE="-1" COMMENT="" />
    <EXPORT ORDINAL="4765" NAME="?__Type@Light3DReader@cocostudio@@2UTInfo@ObjectFactory@cocos2d@@A" PURGE="-1" COMMENT="" />
    <EXPORT ORDINAL="4766" NAME="?__Type@ListView@ui@cocos2d@@2UTInfo@ObjectFactory@3@A" PURGE="-1" COMMENT="" />
    <EXPORT ORDINAL="4767" NAME="?__Type@ListViewReader@cocostudio@@2UTInfo@ObjectFactory@cocos2d@@A" PURGE="-1" COMMENT="" />
    <EXPORT ORDINAL="4768" NAME="?__Type@LoadingBar@ui@cocos2d@@2UTInfo@ObjectFactory@3@A" PURGE="-1" COMMENT="" />
    <EXPORT ORDINAL="4769" NAME="?__Type@LoadingBarReader@cocostudio@@2UTInfo@ObjectFactory@cocos2d@@A" PURGE="-1" COMMENT="" />
    <EXPORT ORDINAL="4770" NAME="?__Type@Node3DReader@cocostudio@@2UTInfo@ObjectFactory@cocos2d@@A" PURGE="-1" COMMENT="" />
    <EXPORT ORDINAL="4771" NAME="?__Type@NodeReader@cocostudio@@2UTInfo@ObjectFactory@cocos2d@@A" PURGE="-1" COMMENT="" />
    <EXPORT ORDINAL="4772" NAME="?__Type@PageView@ui@cocos2d@@2UTInfo@ObjectFactory@3@A" PURGE="-1" COMMENT="" />
    <EXPORT ORDINAL="4773" NAME="?__Type@PageViewReader@cocostudio@@2UTInfo@ObjectFactory@cocos2d@@A" PURGE="-1" COMMENT="" />
    <EXPORT ORDINAL="4774" NAME="?__Type@Particle3DReader@cocostudio@@2UTInfo@ObjectFactory@cocos2d@@A" PURGE="-1" COMMENT="" />
    <EXPORT ORDINAL="4775" NAME="?__Type@ParticleReader@cocostudio@@2UTInfo@ObjectFactory@cocos2d@@A" PURGE="-1" COMMENT="" />
    <EXPORT ORDINAL="4776" NAME="?__Type@RadioButton@ui@cocos2d@@2UTInfo@ObjectFactory@3@A" PURGE="-1" COMMENT="" />
    <EXPORT ORDINAL="4777" NAME="?__Type@ScrollView@ui@cocos2d@@2UTInfo@ObjectFactory@3@A" PURGE="-1" COMMENT="" />
    <EXPORT ORDINAL="4778" NAME="?__Type@ScrollViewReader@cocostudio@@2UTInfo@ObjectFactory@cocos2d@@A" PURGE="-1" COMMENT="" />
    <EXPORT ORDINAL="4779" NAME="?__Type@SingleNodeReader@cocostudio@@2UTInfo@ObjectFactory@cocos2d@@A" PURGE="-1" COMMENT="" />
    <EXPORT ORDINAL="4780" NAME="?__Type@Slider@ui@cocos2d@@2UTInfo@ObjectFactory@3@A" PURGE="-1" COMMENT="" />
    <EXPORT ORDINAL="4781" NAME="?__Type@SliderReader@cocostudio@@2UTInfo@ObjectFactory@cocos2d@@A" PURGE="-1" COMMENT="" />
    <EXPORT ORDINAL="4782" NAME="?__Type@Sprite3DReader@cocostudio@@2UTInfo@ObjectFactory@cocos2d@@A" PURGE="-1" COMMENT="" />
    <EXPORT ORDINAL="4783" NAME="?__Type@SpriteReader@cocostudio@@2UTInfo@ObjectFactory@cocos2d@@A" PURGE="-1" COMMENT="" />
    <EXPORT ORDINAL="4784" NAME="?__Type@Text@ui@cocos2d@@2UTInfo@ObjectFactory@3@A" PURGE="-1" COMMENT="" />
    <EXPORT ORDINAL="4785" NAME="?__Type@TextAtlas@ui@cocos2d@@2UTInfo@ObjectFactory@3@A" PURGE="-1" COMMENT="" />
    <EXPORT ORDINAL="4786" NAME="?__Type@TextAtlasReader@cocostudio@@2UTInfo@ObjectFactory@cocos2d@@A" PURGE="-1" COMMENT="" />
    <EXPORT ORDINAL="4787" NAME="?__Type@TextBMFont@ui@cocos2d@@2UTInfo@ObjectFactory@3@A" PURGE="-1" COMMENT="" />
    <EXPORT ORDINAL="4788" NAME="?__Type@TextBMFontReader@cocostudio@@2UTInfo@ObjectFactory@cocos2d@@A" PURGE="-1" COMMENT="" />
    <EXPORT ORDINAL="4789" NAME="?__Type@TextField@ui@cocos2d@@2UTInfo@ObjectFactory@3@A" PURGE="-1" COMMENT="" />
    <EXPORT ORDINAL="4790" NAME="?__Type@TextFieldReader@cocostudio@@2UTInfo@ObjectFactory@cocos2d@@A" PURGE="-1" COMMENT="" />
    <EXPORT ORDINAL="4791" NAME="?__Type@TextReader@cocostudio@@2UTInfo@ObjectFactory@cocos2d@@A" PURGE="-1" COMMENT="" />
    <EXPORT ORDINAL="4792" NAME="?__Type@UserCameraReader@cocostudio@@2UTInfo@ObjectFactory@cocos2d@@A" PURGE="-1" COMMENT="" />
    <EXPORT ORDINAL="4793" NAME="?__Type@WidgetReader@cocostudio@@2UTInfo@ObjectFactory@cocos2d@@A" PURGE="-1" COMMENT="" />
    <EXPORT ORDINAL="4794" NAME="?__indexCapacity@QuadCommand@cocos2d@@1HA" PURGE="-1" COMMENT="" />
    <EXPORT ORDINAL="4795" NAME="?__indexFromOffset@TableView@extension@cocos2d@@IAEJVVec2@3@@Z" PURGE="8" COMMENT="" />
    <EXPORT ORDINAL="4796" NAME="?__indices@QuadCommand@cocos2d@@1PAGA" PURGE="-1" COMMENT="" />
    <EXPORT ORDINAL="4797" NAME="?__offsetFromIndex@TableView@extension@cocos2d@@IAE?AVVec2@3@J@Z" PURGE="8" COMMENT="" />
    <EXPORT ORDINAL="4798" NAME="?_addCellIfNecessary@TableView@extension@cocos2d@@IAEXPAVTableViewCell@23@@Z" PURGE="4" COMMENT="" />
    <EXPORT ORDINAL="4799" NAME="?_addTouchListener@Layer@cocos2d@@IAEXXZ" PURGE="0" COMMENT="" />
    <EXPORT ORDINAL="4800" NAME="?_atlasMap@FontAtlasCache@cocos2d@@0V?$unordered_map@V?$basic_string@DU?$char_traits@D@std@@V?$allocator@D@2@@std@@PAVFontAtlas@cocos2d@@U?$hash@V?$basic_string@DU?$char_traits@D@std@@V?$allocator@D@2@@std@@@2@U?$equal_to@V?$basic_string@DU?$char_traits@D@std@@V?$allocator@D@2@@std@@@2@V?$allocator@U?$pair@$$CBV?$basic_string@DU?$char_traits@D@std@@V?$allocator@D@2@@std@@PAVFontAtlas@cocos2d@@@std@@@2@@std@@A" PURGE="-1" COMMENT="" />
    <EXPORT ORDINAL="4801" NAME="?_audioEngineImpl@AudioEngine@experimental@cocos2d@@1PAVAudioEngineImpl@23@A" PURGE="-1" COMMENT="" />
    <EXPORT ORDINAL="4802" NAME="?_audioIDInfoMap@AudioEngine@experimental@cocos2d@@1V?$unordered_map@HUAudioInfo@AudioEngine@experimental@cocos2d@@U?$hash@H@std@@U?$equal_to@H@6@V?$allocator@U?$pair@$$CBHUAudioInfo@AudioEngine@experimental@cocos2d@@@std@@@6@@std@@A" PURGE="-1" COMMENT="" />
    <EXPORT ORDINAL="4803" NAME="?_audioPathIDMap@AudioEngine@experimental@cocos2d@@1V?$unordered_map@V?$basic_string@DU?$char_traits@D@std@@V?$allocator@D@2@@std@@V?$list@HV?$allocator@H@std@@@2@U?$hash@V?$basic_string@DU?$char_traits@D@std@@V?$allocator@D@2@@std@@@2@U?$equal_to@V?$basic_string@DU?$char_traits@D@std@@V?$allocator@D@2@@std@@@2@V?$allocator@U?$pair@$$CBV?$basic_string@DU?$char_traits@D@std@@V?$allocator@D@2@@std@@V?$list@HV?$allocator@H@std@@@2@@std@@@2@@std@@A" PURGE="-1" COMMENT="" />
    <EXPORT ORDINAL="4804" NAME="?_audioPathProfileHelperMap@AudioEngine@experimental@cocos2d@@1V?$unordered_map@V?$basic_string@DU?$char_traits@D@std@@V?$allocator@D@2@@std@@UProfileHelper@AudioEngine@experimental@cocos2d@@U?$hash@V?$basic_string@DU?$char_traits@D@std@@V?$allocator@D@2@@std@@@2@U?$equal_to@V?$basic_string@DU?$char_traits@D@std@@V?$allocator@D@2@@std@@@2@V?$allocator@U?$pair@$$CBV?$basic_string@DU?$char_traits@D@std@@V?$allocator@D@2@@std@@UProfileHelper@AudioEngine@experimental@cocos2d@@@std@@@2@@std@@A" PURGE="-1" COMMENT="" />
    <EXPORT ORDINAL="4805" NAME="?_bumpedDiffuseMaterial@Sprite3DMaterial@cocos2d@@1PAV12@A" PURGE="-1" COMMENT="" />
    <EXPORT ORDINAL="4806" NAME="?_bumpedDiffuseMaterialSkin@Sprite3DMaterial@cocos2d@@1PAV12@A" PURGE="-1" COMMENT="" />
    <EXPORT ORDINAL="4807" NAME="?_cacheInstance@Sprite3DCache@cocos2d@@1PAV12@A" PURGE="-1" COMMENT="" />
    <EXPORT ORDINAL="4808" NAME="?_configFileList@DataReaderHelper@cocostudio@@1V?$vector@V?$basic_string@DU?$char_traits@D@std@@V?$allocator@D@2@@std@@V?$allocator@V?$basic_string@DU?$char_traits@D@std@@V?$allocator@D@2@@std@@@2@@std@@A" PURGE="-1" COMMENT="" />
    <EXPORT ORDINAL="4809" NAME="?_customAutoBindingResolvers@GLProgramState@cocos2d@@1V?$vector@PAVAutoBindingResolver@GLProgramState@cocos2d@@V?$allocator@PAVAutoBindingResolver@GLProgramState@cocos2d@@@std@@@std@@A" PURGE="-1" COMMENT="" />
    <EXPORT ORDINAL="4810" NAME="?_dataReaderHelper@DataReaderHelper@cocostudio@@1PAV12@A" PURGE="-1" COMMENT="" />
    <EXPORT ORDINAL="4811" NAME="?_defaultFBO@FrameBuffer@experimental@cocos2d@@0PAV123@A" PURGE="-1" COMMENT="" />
    <EXPORT ORDINAL="4812" NAME="?_defaultProfileHelper@AudioEngine@experimental@cocos2d@@1PAUProfileHelper@123@A" PURGE="-1" COMMENT="" />
    <EXPORT ORDINAL="4813" NAME="?_defaultState@StateBlock@RenderState@cocos2d@@2PAV123@A" PURGE="-1" COMMENT="" />
    <EXPORT ORDINAL="4814" NAME="?_defaultViewport@Camera@cocos2d@@1UViewport@experimental@2@A" PURGE="-1" COMMENT="" />
    <EXPORT ORDINAL="4815" NAME="?_diffuseMaterial@Sprite3DMaterial@cocos2d@@1PAV12@A" PURGE="-1" COMMENT="" />
    <EXPORT ORDINAL="4816" NAME="?_diffuseMaterialSkin@Sprite3DMaterial@cocos2d@@1PAV12@A" PURGE="-1" COMMENT="" />
    <EXPORT ORDINAL="4817" NAME="?_diffuseNoTexMaterial@Sprite3DMaterial@cocos2d@@1PAV12@A" PURGE="-1" COMMENT="" />
    <EXPORT ORDINAL="4818" NAME="?_enableShadowCopy@IndexBuffer@cocos2d@@1_NA" PURGE="-1" COMMENT="" />
    <EXPORT ORDINAL="4819" NAME="?_enableShadowCopy@VertexBuffer@cocos2d@@1_NA" PURGE="-1" COMMENT="" />
    <EXPORT ORDINAL="4820" NAME="?_eventMessage@VideoPlayer@ui@experimental@cocos2d@@1V?$queue@IV?$deque@IV?$allocator@I@std@@@std@@@std@@A" PURGE="-1" COMMENT="" />
    <EXPORT ORDINAL="4821" NAME="?_filePath@UserDefault@cocos2d@@0V?$basic_string@DU?$char_traits@D@std@@V?$allocator@D@2@@std@@A" PURGE="-1" COMMENT="" />
    <EXPORT ORDINAL="4822" NAME="?_focusNavigationController@Widget@ui@cocos2d@@0PAVFocusNavigationController@123@A" PURGE="-1" COMMENT="" />
    <EXPORT ORDINAL="4823" NAME="?_focusedWidget@Widget@ui@cocos2d@@1PAV123@A" PURGE="-1" COMMENT="" />
    <EXPORT ORDINAL="4824" NAME="?_frameBuffers@FrameBuffer@experimental@cocos2d@@0V?$set@PAVFrameBuffer@experimental@cocos2d@@U?$less@PAVFrameBuffer@experimental@cocos2d@@@std@@V?$allocator@PAVFrameBuffer@experimental@cocos2d@@@5@@std@@A" PURGE="-1" COMMENT="" />
    <EXPORT ORDINAL="4825" NAME="?_getFontDefinition@Label@cocos2d@@IBE?AUFontDefinition@2@XZ" PURGE="4" COMMENT="" />
    <EXPORT ORDINAL="4826" NAME="?_getOriginalEnabled@PUObserver@cocos2d@@QBE_NXZ" PURGE="0" COMMENT="" />
    <EXPORT ORDINAL="4827" NAME="?_glContextAttrs@GLView@cocos2d@@2UGLContextAttrs@@A" PURGE="-1" COMMENT="" />
    <EXPORT ORDINAL="4828" NAME="?_glyphASCII@FontFreeType@cocos2d@@0PBDB" PURGE="-1" COMMENT="" />
    <EXPORT ORDINAL="4829" NAME="?_glyphNEHE@FontFreeType@cocos2d@@0PBDB" PURGE="-1" COMMENT="" />
    <EXPORT ORDINAL="4830" NAME="?_indexFromOffset@TableView@extension@cocos2d@@IAEJVVec2@3@@Z" PURGE="8" COMMENT="" />
    <EXPORT ORDINAL="4831" NAME="?_isFilePathInitialized@UserDefault@cocos2d@@0_NA" PURGE="-1" COMMENT="" />
    <EXPORT ORDINAL="4832" NAME="?_materials@Sprite3DMaterial@cocos2d@@1V?$unordered_map@V?$basic_string@DU?$char_traits@D@std@@V?$allocator@D@2@@std@@PAVSprite3DMaterial@cocos2d@@U?$hash@V?$basic_string@DU?$char_traits@D@std@@V?$allocator@D@2@@std@@@2@U?$equal_to@V?$basic_string@DU?$char_traits@D@std@@V?$allocator@D@2@@std@@@2@V?$allocator@U?$pair@$$CBV?$basic_string@DU?$char_traits@D@std@@V?$allocator@D@2@@std@@PAVSprite3DMaterial@cocos2d@@@std@@@2@@std@@A" PURGE="-1" COMMENT="" />
    <EXPORT ORDINAL="4833" NAME="?_maxInstances@AudioEngine@experimental@cocos2d@@1IA" PURGE="-1" COMMENT="" />
    <EXPORT ORDINAL="4834" NAME="?_moveCellOutOfSight@TableView@extension@cocos2d@@IAEXPAVTableViewCell@23@@Z" PURGE="4" COMMENT="" />
    <EXPORT ORDINAL="4835" NAME="?_offsetFromIndex@TableView@extension@cocos2d@@IAE?AVVec2@3@J@Z" PURGE="8" COMMENT="" />
    <EXPORT ORDINAL="4836" NAME="?_pixelFormatInfoTables@Texture2D@cocos2d@@1V?$map@W4PixelFormat@Texture2D@cocos2d@@$$CBUPixelFormatInfo@23@U?$less@W4PixelFormat@Texture2D@cocos2d@@@std@@V?$allocator@U?$pair@$$CBW4PixelFormat@Texture2D@cocos2d@@$$CBUPixelFormatInfo@23@@std@@@6@@std@@B" PURGE="-1" COMMENT="" />
    <EXPORT ORDINAL="4837" NAME="?_play2d@AudioEngineImpl@experimental@cocos2d@@AAEXPAVAudioCache@23@H@Z" PURGE="8" COMMENT="" />
    <EXPORT ORDINAL="4838" NAME="?_resetEnabled@PUObserver@cocos2d@@QAEXXZ" PURGE="0" COMMENT="" />
    <EXPORT ORDINAL="4839" NAME="?_setIndexForCell@TableView@extension@cocos2d@@IAEXJPAVTableViewCell@23@@Z" PURGE="8" COMMENT="" />
    <EXPORT ORDINAL="4840" NAME="?_setLocalZOrder@Node@cocos2d@@UAEXH@Z" PURGE="4" COMMENT="" />
    <EXPORT ORDINAL="4841" NAME="?_sharedFactory@ObjectFactory@cocos2d@@0PAV12@A" PURGE="-1" COMMENT="" />
    <EXPORT ORDINAL="4842" NAME="?_sharedTriggerMng@TriggerMng@cocostudio@@0PAV12@A" PURGE="-1" COMMENT="" />
    <EXPORT ORDINAL="4843" NAME="?_spriteFrameCacheHelper@SpriteFrameCacheHelper@cocostudio@@0PAV12@A" PURGE="-1" COMMENT="" />
    <EXPORT ORDINAL="4844" NAME="?_transTime@Animate3D@cocos2d@@1MA" PURGE="-1" COMMENT="" />
    <EXPORT ORDINAL="4845" NAME="?_unLitMaterial@Sprite3DMaterial@cocos2d@@1PAV12@A" PURGE="-1" COMMENT="" />
    <EXPORT ORDINAL="4846" NAME="?_unLitMaterialSkin@Sprite3DMaterial@cocos2d@@1PAV12@A" PURGE="-1" COMMENT="" />
    <EXPORT ORDINAL="4847" NAME="?_unLitNoTexMaterial@Sprite3DMaterial@cocos2d@@1PAV12@A" PURGE="-1" COMMENT="" />
    <EXPORT ORDINAL="4848" NAME="?_updateCellPositions@TableView@extension@cocos2d@@IAEXXZ" PURGE="0" COMMENT="" />
    <EXPORT ORDINAL="4849" NAME="?_updateContentSize@TableView@extension@cocos2d@@QAEXXZ" PURGE="0" COMMENT="" />
    <EXPORT ORDINAL="4850" NAME="?_userDefault@UserDefault@cocos2d@@0PAV12@A" PURGE="-1" COMMENT="" />
    <EXPORT ORDINAL="4851" NAME="?_vertexLitMaterial@Sprite3DMaterial@cocos2d@@1PAV12@A" PURGE="-1" COMMENT="" />
    <EXPORT ORDINAL="4852" NAME="?_vertexLitMaterialSkin@Sprite3DMaterial@cocos2d@@1PAV12@A" PURGE="-1" COMMENT="" />
    <EXPORT ORDINAL="4853" NAME="?_visitingCamera@Camera@cocos2d@@1PAV12@A" PURGE="-1" COMMENT="" />
    <EXPORT ORDINAL="4854" NAME="?absolutePosition@ParallaxNode@cocos2d@@IAE?AVVec2@2@XZ" PURGE="4" COMMENT="" />
    <EXPORT ORDINAL="4855" NAME="?acceptVisitor@__Array@cocos2d@@UAEXAAVDataVisitor@2@@Z" PURGE="4" COMMENT="" />
    <EXPORT ORDINAL="4856" NAME="?acceptVisitor@__Bool@cocos2d@@UAEXAAVDataVisitor@2@@Z" PURGE="4" COMMENT="" />
    <EXPORT ORDINAL="4857" NAME="?acceptVisitor@__Dictionary@cocos2d@@UAEXAAVDataVisitor@2@@Z" PURGE="4" COMMENT="" />
    <EXPORT ORDINAL="4858" NAME="?acceptVisitor@__Double@cocos2d@@UAEXAAVDataVisitor@2@@Z" PURGE="4" COMMENT="" />
    <EXPORT ORDINAL="4859" NAME="?acceptVisitor@__Float@cocos2d@@UAEXAAVDataVisitor@2@@Z" PURGE="4" COMMENT="" />
    <EXPORT ORDINAL="4860" NAME="?acceptVisitor@__Integer@cocos2d@@UAEXAAVDataVisitor@2@@Z" PURGE="4" COMMENT="" />
    <EXPORT ORDINAL="4861" NAME="?acceptVisitor@__Set@cocos2d@@UAEXAAVDataVisitor@2@@Z" PURGE="4" COMMENT="" />
    <EXPORT ORDINAL="4862" NAME="?acceptVisitor@__String@cocos2d@@UAEXAAVDataVisitor@2@@Z" PURGE="4" COMMENT="" />
    <EXPORT ORDINAL="4863" NAME="?action@TransitionMoveInL@cocos2d@@UAEPAVActionInterval@2@XZ" PURGE="0" COMMENT="" />
    <EXPORT ORDINAL="4864" NAME="?action@TransitionSlideInB@cocos2d@@UAEPAVActionInterval@2@XZ" PURGE="0" COMMENT="" />
    <EXPORT ORDINAL="4865" NAME="?action@TransitionSlideInL@cocos2d@@UAEPAVActionInterval@2@XZ" PURGE="0" COMMENT="" />
    <EXPORT ORDINAL="4866" NAME="?action@TransitionSlideInR@cocos2d@@UAEPAVActionInterval@2@XZ" PURGE="0" COMMENT="" />
    <EXPORT ORDINAL="4867" NAME="?action@TransitionSlideInT@cocos2d@@UAEPAVActionInterval@2@XZ" PURGE="0" COMMENT="" />
    <EXPORT ORDINAL="4868" NAME="?action@TransitionSplitCols@cocos2d@@UAEPAVActionInterval@2@XZ" PURGE="0" COMMENT="" />
